LX51 LINKER/LOCATER V4.66.97.0                                                          05/09/2023  16:57:25  PAGE 1


LX51 LINKER/LOCATER V4.66.97.0, INVOKED BY:
D:\PROGRAM_FILES\KEIL5_521A\C51\BIN\LX51.EXE .\Output\STARTUP.obj, .\Output\Other.obj, .\Output\Config.obj, .\Output\XS1
>> 6TK06X_LVDT.obj, .\Output\XS16TK06X_Timer.obj, .\Output\XS16TK06X_TK.obj, .\Output\XS16TK06X_TraceMode.obj, .\Output\
>> XS16TK06X_ADC.obj, .\Output\XS16TK06X_EEP.obj, .\Output\XS16TK06X_Idle.obj, .\Output\XS16TK06X_IIC.obj, .\Output\XS16
>> TK06X_INT.obj, .\Output\XS16TK06X_PWM.obj, .\Output\XS16TK06X_Read_UID.obj, .\Output\XS16TK06X_Sleep.obj, .\Output\XS
>> 16TK06X_UART.obj, .\Lib\XS16TK06X_CS_DataDeal_V1_0.LIB, .\Output\AD.obj, .\Output\Buz.obj, .\Output\codingSwitch.obj,
>>  .\Output\codingSwitch_user.obj, .\Output\Display.obj, .\Output\Key.obj, .\Output\TM1628.obj, .\Output\WORK_DEAL.obj,
>>  .\Output\main.obj, .\Output\Project.obj, .\Output\Touch_MCU_Init.obj TO .\Output\XS16TK06X_V1.0.1_XSV1.0.0 PRINT (.\
>> List\XS16TK06X_V1.0.1_XSV1.0.map) DISABLEWARNING (16) REMOVEUNUSED


CPU MODE:     8051 MODE
MEMORY MODEL: SMALL WITH FLOATING POINT ARITHMETIC


INPUT MODULES INCLUDED:
  .\Output\STARTUP.obj (?C_STARTUP)
         COMMENT TYPE 1: A51 / ASM51 Assembler
  .\Output\Other.obj (OTHER)
         COMMENT TYPE 0: C51 V9.60.0.0
  .\Output\Config.obj (CONFIG)
         COMMENT TYPE 0: C51 V9.60.0.0
  .\Output\XS16TK06X_LVDT.obj (XS16TK06X_LVDT)
         COMMENT TYPE 0: C51 V9.60.0.0
  .\Output\XS16TK06X_Timer.obj (XS16TK06X_TIMER)
         COMMENT TYPE 0: C51 V9.60.0.0
  .\Output\XS16TK06X_TK.obj (XS16TK06X_TK)
         COMMENT TYPE 0: C51 V9.60.0.0
  .\Output\XS16TK06X_TraceMode.obj (XS16TK06X_TRACEMODE)
         COMMENT TYPE 0: C51 V9.60.0.0
  .\Output\XS16TK06X_ADC.obj (XS16TK06X_ADC)
         COMMENT TYPE 0: C51 V9.60.0.0
  .\Output\XS16TK06X_EEP.obj (XS16TK06X_EEP)
         COMMENT TYPE 0: C51 V9.60.0.0
  .\Output\XS16TK06X_Idle.obj (XS16TK06X_IDLE)
         COMMENT TYPE 0: C51 V9.60.0.0
  .\Output\XS16TK06X_IIC.obj (XS16TK06X_IIC)
         COMMENT TYPE 0: C51 V9.60.0.0
  .\Output\XS16TK06X_INT.obj (XS16TK06X_INT)
         COMMENT TYPE 0: C51 V9.60.0.0
  .\Output\XS16TK06X_PWM.obj (XS16TK06X_PWM)
         COMMENT TYPE 0: C51 V9.60.0.0
  .\Output\XS16TK06X_Read_UID.obj (XS16TK06X_READ_UID)
         COMMENT TYPE 0: C51 V9.60.0.0
  .\Output\XS16TK06X_Sleep.obj (XS16TK06X_SLEEP)
         COMMENT TYPE 0: C51 V9.60.0.0
  .\Output\XS16TK06X_UART.obj (XS16TK06X_UART)
         COMMENT TYPE 0: C51 V9.60.0.0
  .\Output\AD.obj (AD)
         COMMENT TYPE 0: C51 V9.60.0.0
  .\Output\Buz.obj (BUZ)
         COMMENT TYPE 0: C51 V9.60.0.0
  .\Output\codingSwitch.obj (CODINGSWITCH)
         COMMENT TYPE 0: C51 V9.60.0.0
  .\Output\codingSwitch_user.obj (CODINGSWITCH_USER)
         COMMENT TYPE 0: C51 V9.60.0.0
  .\Output\Display.obj (DISPLAY)
         COMMENT TYPE 0: C51 V9.60.0.0
  .\Output\Key.obj (KEY)
         COMMENT TYPE 0: C51 V9.60.0.0
  .\Output\TM1628.obj (TM1628)
         COMMENT TYPE 0: C51 V9.60.0.0
  .\Output\WORK_DEAL.obj (WORK_DEAL)
         COMMENT TYPE 0: C51 V9.60.0.0
  .\Output\main.obj (MAIN)
         COMMENT TYPE 0: C51 V9.60.0.0
LX51 LINKER/LOCATER V4.66.97.0                                                        05/09/2023  16:57:25  PAGE 2


  .\Output\Project.obj (PROJECT)
         COMMENT TYPE 0: C51 V9.60.0.0
  .\Output\Touch_MCU_Init.obj (TOUCH_MCU_INIT)
         COMMENT TYPE 0: C51 V9.60.0.0
  D:\PROGRAM_FILES\KEIL5_521A\C51\LIB\C51FPS.LIB (?C?FCAST)
         COMMENT TYPE 1: A51 / ASM51 Assembler
  D:\PROGRAM_FILES\KEIL5_521A\C51\LIB\C51FPS.LIB (?C?CASTF)
         COMMENT TYPE 1: A51 / ASM51 Assembler
  D:\PROGRAM_FILES\KEIL5_521A\C51\LIB\C51S.LIB (?C_INIT)
         COMMENT TYPE 1: A51 / ASM51 Assembler
  D:\PROGRAM_FILES\KEIL5_521A\C51\LIB\C51S.LIB (?C?IMUL)
         COMMENT TYPE 1: A51 / ASM51 Assembler
  D:\PROGRAM_FILES\KEIL5_521A\C51\LIB\C51S.LIB (?C?UIDIV)
         COMMENT TYPE 1: A51 / ASM51 Assembler
  D:\PROGRAM_FILES\KEIL5_521A\C51\LIB\C51S.LIB (?C?SIDIV)
         COMMENT TYPE 1: A51 / ASM51 Assembler
  D:\PROGRAM_FILES\KEIL5_521A\C51\LIB\C51S.LIB (?C?IILDX)
         COMMENT TYPE 1: A51 / ASM51 Assembler
  D:\PROGRAM_FILES\KEIL5_521A\C51\LIB\C51S.LIB (?C?LMUL)
         COMMENT TYPE 1: A51 / ASM51 Assembler
  D:\PROGRAM_FILES\KEIL5_521A\C51\LIB\C51S.LIB (?C?ULDIV)
         COMMENT TYPE 1: A51 / ASM51 Assembler
  D:\PROGRAM_FILES\KEIL5_521A\C51\LIB\C51S.LIB (?C?SLDIV)
         COMMENT TYPE 1: A51 / ASM51 Assembler
  D:\PROGRAM_FILES\KEIL5_521A\C51\LIB\C51S.LIB (?C?LNOT)
         COMMENT TYPE 1: A51 / ASM51 Assembler
  D:\PROGRAM_FILES\KEIL5_521A\C51\LIB\C51S.LIB (?C?LNEG)
         COMMENT TYPE 1: A51 / ASM51 Assembler
  D:\PROGRAM_FILES\KEIL5_521A\C51\LIB\C51S.LIB (?C?SLCMP)
         COMMENT TYPE 1: A51 / ASM51 Assembler
  D:\PROGRAM_FILES\KEIL5_521A\C51\LIB\C51S.LIB (?C?ULCMP)
         COMMENT TYPE 1: A51 / ASM51 Assembler
  D:\PROGRAM_FILES\KEIL5_521A\C51\LIB\C51S.LIB (?C?ULSHR)
         COMMENT TYPE 1: A51 / ASM51 Assembler
  D:\PROGRAM_FILES\KEIL5_521A\C51\LIB\C51S.LIB (?C?SLSHR)
         COMMENT TYPE 1: A51 / ASM51 Assembler
  D:\PROGRAM_FILES\KEIL5_521A\C51\LIB\C51S.LIB (?C?LSHL)
         COMMENT TYPE 1: A51 / ASM51 Assembler
  D:\PROGRAM_FILES\KEIL5_521A\C51\LIB\C51S.LIB (?C?LSTXDATA)
         COMMENT TYPE 1: A51 / ASM51 Assembler
  D:\PROGRAM_FILES\KEIL5_521A\C51\LIB\C51S.LIB (?C?LSTKXDATA)
         COMMENT TYPE 1: A51 / ASM51 Assembler
  D:\PROGRAM_FILES\KEIL5_521A\C51\LIB\C51S.LIB (?C?LIMUL)
         COMMENT TYPE 1: A51 / ASM51 Assembler


ACTIVE MEMORY CLASSES OF MODULE:  .\Output\XS16TK06X_V1.0.1_XSV1.0.0 (?C_STARTUP)

BASE        START       END         USED      MEMORY CLASS
==========================================================
C:000000H   C:000000H   C:00FFFFH   003392H   CODE
I:000000H   I:000000H   I:0000FFH   000001H   IDATA
I:000000H   I:000000H   I:00007FH   000047H   DATA
X:000000H   X:000000H   X:00FFFFH   000128H   XDATA
I:000020H.0 I:000020H.0 I:00002FH.7 000006H.5 BIT
C:000000H   C:000000H   C:00FFFFH   00020AH   CONST


MEMORY MAP OF MODULE:  .\Output\XS16TK06X_V1.0.1_XSV1.0.0 (?C_STARTUP)


START     STOP      LENGTH    ALIGN  RELOC    MEMORY CLASS   SEGMENT NAME
=========================================================================

* * * * * * * * * * *   D A T A   M E M O R Y   * * * * * * * * * * * * *
LX51 LINKER/LOCATER V4.66.97.0                                                        05/09/2023  16:57:25  PAGE 3


000000H   000007H   000008H   ---    AT..     DATA           "REG BANK 0"
000008H   000016H   00000FH   BYTE   UNIT     DATA           ?DT?WORK_DEAL
000017H   00001AH   000004H   BYTE   UNIT     DATA           ?DT?XS16TK06X_TIMER
00001BH   00001EH   000004H   BYTE   UNIT     DATA           ?DT?XS16TK06X_ADC
00001FH   00001FH   000001H   BYTE   UNIT     DATA           ?DT?BUZ
000020H.0 000022H.2 000002H.3 BIT    UNIT     BIT            ?BI?WORK_DEAL
000022H.3 000023H.3 000001H.1 BIT    UNIT     BIT            ?BI?KEY
000023H.4 000024H.2 000000H.7 BIT    UNIT     BIT            ?BI?DISPLAY
000024H.3 000025H.0 000000H.6 BIT    UNIT     BIT            ?BI?XS16TK06X_TK
000025H.1 000025H.4 000000H.4 BIT    UNIT     BIT            ?BI?XS16TK06X_LVDT
000025H.5 000025H.7 000000H.3 BIT    UNIT     BIT            ?BI?BUZ
000026H.0 000026H.1 000000H.2 BIT    UNIT     BIT            ?BI?AD
000026H.2 000026H.2 000000H.1 BIT    UNIT     BIT            ?BI?XS16TK06X_ADC
000026H.3 000026H.3 000000H.1 BIT    UNIT     BIT            ?BI?PROJECT
000026H.4 000026H.4 000000H.1 BIT    UNIT     BIT            _BIT_GROUP_
000026H.5 000026H   000000H.3 ---    ---      **GAP**
000027H   000032H   00000CH   BYTE   UNIT     DATA           _DATA_GROUP_
000033H   00003DH   00000BH   BYTE   UNIT     DATA           ?DT?DISPLAY
00003EH   000047H   00000AH   BYTE   UNIT     DATA           ?DT?OTHER
000048H   00004AH   000003H   BYTE   UNIT     DATA           ?DT?AD
00004BH   00004CH   000002H   BYTE   UNIT     DATA           ?DT?XS16TK06X_TK
00004DH   00004DH   000001H   BYTE   UNIT     DATA           ?DT?PROJECT
00004EH   00004EH   000001H   BYTE   UNIT     IDATA          ?STACK

* * * * * * * * * * *   C O D E   M E M O R Y   * * * * * * * * * * * * *
000000H   000002H   000003H   ---    OFFS..   CODE           ?CO??C_STARTUP?0
000003H   00000AH   000008H   BYTE   UNIT     CODE           ?PR?SHUTDOWN_POWER?WORK_DEAL
00000BH   00000DH   000003H   BYTE   OFFS..   CODE           ?XS16TK06X_TIMER?0000B
00000EH   000012H   000005H   BYTE   UNIT     CODE           ?PR?MCU_OTHER_INIT?OTHER
000013H   000016H   000004H   BYTE   UNIT     CODE           ?PR?SET_SYS_CLK?TOUCH_MCU_INIT
000017H   000019H   000003H   BYTE   UNIT     CODE           ?PR?_ADC_OBTAIN?XS16TK06X_ADC
00001AH   00001AH   000001H   BYTE   UNIT     CODE           ?PR?INIT_IO?TOUCH_MCU_INIT
00001BH   00001DH   000003H   BYTE   OFFS..   CODE           ?XS16TK06X_TIMER?0001B
00001EH   000061H   000044H   BYTE   UNIT     CODE           ?C?LDIV
000062H   000062H   000001H   ---    ---      **GAP**
000063H   000065H   000003H   BYTE   OFFS..   CODE           ?XS16TK06X_TK?00063
000066H   000068H   000003H   BYTE   UNIT     CODE           ?PR?_OPEN_BUZ?BUZ
000069H   000072H   00000AH   ---    ---      **GAP**
000073H   000075H   000003H   BYTE   OFFS..   CODE           ?XS16TK06X_TIMER?00073
000076H   00007AH   000005H   ---    ---      **GAP**
00007BH   00007DH   000003H   BYTE   OFFS..   CODE           ?XS16TK06X_LVDT?0007B
00007EH   0005CCH   00054FH   BYTE   UNIT     CODE           ?PR?_CTK_SNS_RENOVATE?XS16TK06X_TK
0005CDH   00093BH   00036FH   BYTE   UNIT     CODE           ?C_INITSEG
00093CH   000C66H   00032BH   BYTE   UNIT     CODE           ?C?LIB_CODE
000C67H   000F6CH   000306H   BYTE   UNIT     CODE           ?PR?LED_SCAN?DISPLAY
000F6DH   001198H   00022CH   BYTE   UNIT     CODE           ?PR?TIME_DEAL?PROJECT
001199H   0013ADH   000215H   BYTE   UNIT     CODE           ?PR?CTK_XS16TK06X_ADJUST_INT?XS16TK06X_TK
0013AEH   001530H   000183H   BYTE   UNIT     CODE           ?PR?WORK_DEAL?WORK_DEAL
001531H   001679H   000149H   BYTE   UNIT     CODE           ?PR?DINGSHI_DEC_FUN?KEY
00167AH   0017BFH   000146H   BYTE   UNIT     CODE           ?PR?ZHU_MODE_CHAO_SP?WORK_DEAL
0017C0H   0018FFH   000140H   BYTE   UNIT     CODE           ?PR?KEY_DEAL?KEY
001900H   001A34H   000135H   BYTE   UNIT     CODE           ?PR?SMG_DEAL_DINGSHI_1?DISPLAY
001A35H   001B59H   000125H   BYTE   UNIT     CODE           ?PR?SMG_DEAL_DINGSHI_2?DISPLAY
001B5AH   001C7AH   000121H   BYTE   UNIT     CODE           ?PR?ZHU_MODE_BB?WORK_DEAL
001C7BH   001D8EH   000114H   BYTE   UNIT     CODE           ?PR?DINGSHI_ADD_FUN?KEY
001D8FH   001E92H   000104H   BYTE   UNIT     CODE           ?PR?LAB_AD_FUN?AD
001E93H   001F7DH   0000EBH   BYTE   UNIT     CODE           ?PR?CTK_INIT?XS16TK06X_TK
001F7EH   002057H   0000DAH   BYTE   UNIT     CODE           ?PR?TIMER0_ISR?XS16TK06X_TIMER
002058H   002129H   0000D2H   BYTE   UNIT     CODE           ?PR?WARNING_CHECK?AD
00212AH   0021F3H   0000CAH   BYTE   UNIT     CODE           ?PR?CTK_SET_PARA?XS16TK06X_TK
0021F4H   0022A8H   0000B5H   BYTE   UNIT     CODE           ?PR?KEY_SCAN?KEY
0022A9H   002352H   0000AAH   BYTE   UNIT     CODE           ?PR?CTK_ISR?XS16TK06X_TK
002353H   0023F7H   0000A5H   BYTE   UNIT     CODE           ?PR?SMG_DEAL?DISPLAY
0023F8H   002498H   0000A1H   BYTE   UNIT     CODE           ?PR?_GET_ADC?XS16TK06X_ADC
002499H   002538H   0000A0H   BYTE   UNIT     CODE           ?PR?BUZ_DEAL?BUZ
LX51 LINKER/LOCATER V4.66.97.0                                                        05/09/2023  16:57:25  PAGE 4


002539H   0025D7H   00009FH   BYTE   UNIT     CODE           ?PR?ADD_KEY?KEY
0025D8H   002676H   00009FH   BYTE   UNIT     CODE           ?PR?DEC_KEY?KEY
002677H   002710H   00009AH   BYTE   UNIT     CODE           ?C_C51STARTUP
002711H   00279BH   00008BH   BYTE   UNIT     CODE           ?PR?CFG_CHECK?TOUCH_MCU_INIT
00279CH   002824H   000089H   BYTE   UNIT     CODE           ?PR?_TIMER0_INIT?XS16TK06X_TIMER
002825H   0028A9H   000085H   BYTE   UNIT     CODE           ?PR?KKG_WORK_API?WORK_DEAL
0028AAH   002928H   00007FH   BYTE   UNIT     CODE           ?PR?MODE_KEY?KEY
002929H   0029A6H   00007EH   BYTE   UNIT     CODE           ?PR?_CTK_TK_LEFT_COUNT?XS16TK06X_TK
0029A7H   002A1FH   000079H   BYTE   UNIT     CODE           ?PR?BAOWEN_DEC_FUN?KEY
002A20H   002A95H   000076H   BYTE   UNIT     CODE           ?PR?BAOWEN_ADD_FUN?KEY
002A96H   002B08H   000073H   BYTE   UNIT     CODE           ?PR?XS16TK06X_SET_TOUCH_FLAG?XS16TK06X_TK
002B09H   002B6FH   000067H   BYTE   UNIT     CODE           ?PR?SMG_DEAL_YUYUE_1?DISPLAY
002B70H   002BD1H   000062H   BYTE   UNIT     CODE           ?PR?BASE_LINE_INIT?XS16TK06X_TK
002BD2H   002C2EH   00005DH   BYTE   UNIT     CODE           ?PR?ZHU_MODE_QINGZHENG?WORK_DEAL
002C2FH   002C8BH   00005DH   BYTE   UNIT     CODE           ?PR?ZHU_MODE_MANDUN?WORK_DEAL
002C8CH   002CE4H   000059H   BYTE   UNIT     CODE           ?PR?TIMER1_ISR?XS16TK06X_TIMER
002CE5H   002D3BH   000057H   BYTE   UNIT     CODE           ?PR?ADC_INIT?XS16TK06X_ADC
002D3CH   002D8FH   000054H   BYTE   UNIT     CODE           ?PR?YUYUE_ADD_FUN?KEY
002D90H   002DDFH   000050H   BYTE   UNIT     CODE           ?PR?ZHU_MODE_NIUPAI?WORK_DEAL
002DE0H   002E2DH   00004EH   BYTE   UNIT     CODE           ?PR?MODE_INIT?KEY
002E2EH   002E7AH   00004DH   BYTE   UNIT     CODE           ?PR?DISPLAY_DEAL?DISPLAY
002E7BH   002EC2H   000048H   BYTE   UNIT     CODE           ?PR?LED_DEAL_MODE_ONE?DISPLAY
002EC3H   002F0AH   000048H   BYTE   UNIT     CODE           ?PR?ZHU_MODE_CHAO?WORK_DEAL
002F0BH   002F4AH   000040H   BYTE   UNIT     CODE           ?PR?SET_NEXT_SNS?XS16TK06X_TK
002F4BH   002F85H   00003BH   BYTE   UNIT     CODE           ?PR?LED_DEAL?DISPLAY
002F86H   002FB7H   000032H   BYTE   UNIT     CODE           ?PR?YUYUE_DEC_FUN?KEY
002FB8H   002FE8H   000031H   BYTE   UNIT     CODE           ?PR?LVDT_ISR?XS16TK06X_LVDT
002FE9H   003017H   00002FH   BYTE   UNIT     CODE           ?PR?_INTERMITTENT?WORK_DEAL
003018H   003046H   00002FH   BYTE   UNIT     CODE           ?PR?ZHU_MODE_DUNZHU?WORK_DEAL
003047H   003073H   00002DH   BYTE   UNIT     CODE           ?PR?PROJECT?PROJECT
003074H   0030A0H   00002DH   BYTE   UNIT     CODE           ?PR?DEFAULT_SET_IO?TOUCH_MCU_INIT
0030A1H   0030CBH   00002BH   BYTE   UNIT     CODE           ?PR?RESET_CNT_ADD?XS16TK06X_TIMER
0030CCH   0030F6H   00002BH   BYTE   UNIT     CODE           ?PR?DISPDATA_MOV?DISPLAY
0030F7H   00311EH   000028H   BYTE   UNIT     CODE           ?PR?GRADE_DEC_FUN?KEY
00311FH   003143H   000025H   BYTE   UNIT     CODE           ?PR?GRADE_ADD_FUN?KEY
003144H   003167H   000024H   BYTE   UNIT     CODE           ?PR?NEXT_STEP?WORK_DEAL
003168H   00318AH   000023H   BYTE   UNIT     CODE           ?PR?BAOWEN_FUN?KEY
00318BH   0031ABH   000021H   BYTE   UNIT     CODE           ?PR?CTK_LONG_TK_COUNT?XS16TK06X_TK
0031ACH   0031CCH   000021H   BYTE   UNIT     CODE           ?PR?KEY_CLR_SEC?KEY
0031CDH   0031EBH   00001FH   BYTE   UNIT     CODE           ?PR?ADC_RESET_COUNT?XS16TK06X_ADC
0031ECH   003209H   00001EH   BYTE   UNIT     CODE           ?PR?_TIMER1_INIT?XS16TK06X_TIMER
00320AH   003227H   00001EH   BYTE   UNIT     CODE           ?PR?_GET_WENDU1?AD
003228H   003244H   00001DH   BYTE   UNIT     CODE           ?PR?LVDT_INIT?XS16TK06X_LVDT
003245H   003260H   00001CH   BYTE   UNIT     CODE           ?PR?DISPDATA_CLR?DISPLAY
003261H   00327BH   00001BH   BYTE   UNIT     CODE           ?PR?TIMER2_WDT_ISR?XS16TK06X_TIMER
00327CH   003294H   000019H   BYTE   UNIT     CODE           ?PR?KEY_YUYUE?KEY
003295H   0032ABH   000017H   BYTE   UNIT     CODE           ?PR?DISPDATA_SET?DISPLAY
0032ACH   0032C2H   000017H   BYTE   UNIT     CODE           ?PR?LED_DEAL_ALL_ON?DISPLAY
0032C3H   0032D9H   000017H   BYTE   UNIT     CODE           ?PR?BOR_INIT?TOUCH_MCU_INIT
0032DAH   0032F0H   000017H   BYTE   UNIT     CODE           ?PR?WDT_INIT?TOUCH_MCU_INIT
0032F1H   003307H   000017H   BYTE   UNIT     CODE           ?PR?FUNCTION_INIT?TOUCH_MCU_INIT
003308H   00331DH   000016H   BYTE   UNIT     CODE           ?PR?ACTION_WORK?WORK_DEAL
00331EH   003332H   000015H   BYTE   UNIT     CODE           ?PR?MCU_INIT?TOUCH_MCU_INIT
003333H   003346H   000014H   BYTE   UNIT     CODE           ?PR?_ADC_DELAY_US?XS16TK06X_ADC
003347H   00335AH   000014H   BYTE   UNIT     CODE           ?PR?MAIN?MAIN
00335BH   00336DH   000013H   BYTE   UNIT     CODE           ?PR?CHECK_DEAL?OTHER
00336EH   003380H   000013H   BYTE   UNIT     CODE           ?PR?QUIT_WORK?WORK_DEAL
003381H   003393H   000013H   BYTE   UNIT     CODE           ?PR?RELAY_DEAL?WORK_DEAL
003394H   0033A1H   00000EH   BYTE   UNIT     CODE           ?PR?BUZ_RING?BUZ
0033A2H   00349CH   0000FBH   BYTE   UNIT     CONST          ?CO?AD
00349DH   00351EH   000082H   BYTE   UNIT     CONST          ?CO?XS16TK06X_TK
00351FH   003560H   000042H   BYTE   UNIT     CONST          ?CO?KEY
003561H   00357BH   00001BH   BYTE   UNIT     CONST          ?CO?BUZ
00357CH   003596H   00001BH   BYTE   UNIT     CONST          ?CO?TOUCH_MCU_INIT
003597H   0035ABH   000015H   BYTE   UNIT     CONST          ?CO?DISPLAY
LX51 LINKER/LOCATER V4.66.97.0                                                        05/09/2023  16:57:25  PAGE 5



* * * * * * * * * * *  X D A T A   M E M O R Y  * * * * * * * * * * * * *
000000H   0000BDH   0000BEH   BYTE   UNIT     XDATA          ?XD?XS16TK06X_TK
0000BEH   0000E2H   000025H   BYTE   UNIT     XDATA          ?XD?WORK_DEAL
0000E3H   0000F7H   000015H   BYTE   UNIT     XDATA          ?XD?KEY
0000F8H   000108H   000011H   BYTE   UNIT     XDATA          ?XD?AD
000109H   000114H   00000CH   BYTE   UNIT     XDATA          ?XD?DISPLAY
000115H   00011AH   000006H   BYTE   UNIT     XDATA          ?XD?BUZ
00011BH   00011EH   000004H   BYTE   UNIT     XDATA          ?XD?XS16TK06X_LVDT
00011FH   000122H   000004H   BYTE   UNIT     XDATA          ?XD?XS16TK06X_TIMER
000123H   000124H   000002H   BYTE   UNIT     XDATA          ?XD?PROJECT
000125H   000125H   000001H   BYTE   UNIT     XDATA          ?XD?OTHER
000126H   000126H   000001H   BYTE   UNIT     XDATA          ?XD?TOUCH_MCU_INIT
000127H   000127H   000001H   BYTE   UNIT     XDATA          _XDATA_GROUP_

* * * * * * * * *   R E M O V E D     S E G M E N T S   * * * * * * * *
   *DEL*:           000007H   BYTE   UNIT     CODE           ?PR?DELAY_1US?OTHER
   *DEL*:           000006H   BYTE   UNIT     CODE           ?PR?DELAY_2US?OTHER
   *DEL*:           00000FH   BYTE   UNIT     CODE           ?PR?DELAY_5US?OTHER
   *DEL*:           000008H   BYTE   UNIT     CODE           ?PR?LEDFLASH_INIT?OTHER
   *DEL*:           000001H   BYTE   UNIT     CODE           ?PR?LED_DEAL_ALL_OFF?DISPLAY
   *DEL*:           0000F1H   BYTE   UNIT     CODE           ?PR?LIUSHUI_LIUCHENG1?DISPLAY
   *DEL*:           000003H   BYTE   UNIT     XDATA          ?XD?LIUSHUI_LIUCHENG1?DISPLAY
   *DEL*:           000003H   BYTE   UNIT     CODE           ?PR?BAOWEN_YUYU_KEY?KEY
   *DEL*:           000028H   BYTE   UNIT     CODE           ?PR?_THREE_HEAT?WORK_DEAL
   *DEL*:           000008H   BYTE   UNIT     DATA           ?DT?_THREE_HEAT?WORK_DEAL
   *DEL*:           00001BH   BYTE   UNIT     CODE           ?PR?_BAOWEN_HDLE?WORK_DEAL
   *DEL*:           000027H   BYTE   UNIT     CODE           ?PR?_HEAT_HDLE?WORK_DEAL
   *DEL*:           000005H   BYTE   UNIT     CODE           ?PR?ZHU_MODE_0?WORK_DEAL
   *DEL*:           000043H   BYTE   UNIT     CODE           ?PR?ZHU_MODE_1?WORK_DEAL
   *DEL*:           00003FH   BYTE   UNIT     CODE           ?PR?BAOWEN_MODE_HDLE?WORK_DEAL
   *DEL*:           000127H   BYTE   UNIT     CODE           ?PR?ZHUFAN_HDLE_ONE?WORK_DEAL



OVERLAY MAP OF MODULE:   .\Output\XS16TK06X_V1.0.1_XSV1.0.0 (?C_STARTUP)


FUNCTION/MODULE                             BIT_GROUP   DATA_GROUP   XDATA_GROUP
--> CALLED FUNCTION/MODULE                 START  STOP  START  STOP  START  STOP
================================================================================
?C_C51STARTUP                              ----- -----  ----- -----  ----- -----
  +--> MAIN/MAIN
  +--> ?C_INITSEG

MAIN/MAIN                                  ----- -----  ----- -----  ----- -----
  +--> MCU_INIT/TOUCH_MCU_INIT
  +--> MCU_OTHER_INIT/OTHER
  +--> XS16TK06X_SET_TOUCH_FLAG/XS16TK06X_TK
  +--> PROJECT/PROJECT

MCU_INIT/TOUCH_MCU_INIT                    ----- -----  ----- -----  ----- -----
  +--> BOR_INIT/TOUCH_MCU_INIT
  +--> WDT_INIT/TOUCH_MCU_INIT
  +--> SET_SYS_CLK/TOUCH_MCU_INIT
  +--> CFG_CHECK/TOUCH_MCU_INIT
  +--> DEFAULT_SET_IO/TOUCH_MCU_INIT
  +--> INIT_IO/TOUCH_MCU_INIT
  +--> FUNCTION_INIT/TOUCH_MCU_INIT

BOR_INIT/TOUCH_MCU_INIT                    ----- -----  ----- -----  ----- -----

WDT_INIT/TOUCH_MCU_INIT                    ----- -----  ----- -----  ----- -----

SET_SYS_CLK/TOUCH_MCU_INIT                 ----- -----  ----- -----  ----- -----
LX51 LINKER/LOCATER V4.66.97.0                                                        05/09/2023  16:57:25  PAGE 6



CFG_CHECK/TOUCH_MCU_INIT                   ----- -----  ----- -----  ----- -----

DEFAULT_SET_IO/TOUCH_MCU_INIT              ----- -----  ----- -----  ----- -----

INIT_IO/TOUCH_MCU_INIT                     ----- -----  ----- -----  ----- -----

FUNCTION_INIT/TOUCH_MCU_INIT               ----- -----  ----- -----  ----- -----
  +--> _TIMER0_INIT/XS16TK06X_TIMER
  +--> _TIMER1_INIT/XS16TK06X_TIMER
  +--> LVDT_INIT/XS16TK06X_LVDT
  +--> ADC_INIT/XS16TK06X_ADC
  +--> CTK_INIT/XS16TK06X_TK

_TIMER0_INIT/XS16TK06X_TIMER               ----- -----  0027H 0028H  ----- -----

_TIMER1_INIT/XS16TK06X_TIMER               ----- -----  ----- -----  ----- -----

LVDT_INIT/XS16TK06X_LVDT                   ----- -----  ----- -----  ----- -----

ADC_INIT/XS16TK06X_ADC                     ----- -----  ----- -----  ----- -----

CTK_INIT/XS16TK06X_TK                      ----- -----  ----- -----  ----- -----
  +--> CTK_SET_PARA/XS16TK06X_TK

CTK_SET_PARA/XS16TK06X_TK                  ----- -----  0027H 0027H  ----- -----

MCU_OTHER_INIT/OTHER                       ----- -----  ----- -----  ----- -----
  +--> _OPEN_BUZ/BUZ

_OPEN_BUZ/BUZ                              ----- -----  ----- -----  ----- -----

XS16TK06X_SET_TOUCH_FLAG/XS16TK06X_TK      ----- -----  ----- -----  ----- -----
  +--> _CTK_SNS_RENOVATE/XS16TK06X_TK

_CTK_SNS_RENOVATE/XS16TK06X_TK             ----- -----  0027H 0031H  ----- -----
  +--> BASE_LINE_INIT/XS16TK06X_TK
  +--> CTK_LONG_TK_COUNT/XS16TK06X_TK
  +--> _CTK_TK_LEFT_COUNT/XS16TK06X_TK

BASE_LINE_INIT/XS16TK06X_TK                ----- -----  ----- -----  0127H 0127H

CTK_LONG_TK_COUNT/XS16TK06X_TK             ----- -----  ----- -----  ----- -----
  +--> BASE_LINE_INIT/XS16TK06X_TK

_CTK_TK_LEFT_COUNT/XS16TK06X_TK            ----- -----  0032H 0032H  ----- -----

PROJECT/PROJECT                            ----- -----  ----- -----  ----- -----
  +--> KEY_DEAL/KEY
  +--> WORK_DEAL/WORK_DEAL
  +--> WARNING_CHECK/AD
  +--> BUZ_DEAL/BUZ
  +--> CHECK_DEAL/OTHER
  +--> LAB_AD_FUN/AD
  +--> TIME_DEAL/PROJECT
  +--> DISPLAY_DEAL/DISPLAY

KEY_DEAL/KEY                               ----- -----  ----- -----  ----- -----
  +--> KEY_SCAN/KEY
  +--> _OPEN_BUZ/BUZ
  +--> KEY_CLR_SEC/KEY
  +--> BAOWEN_FUN/KEY
  +--> KEY_YUYUE/KEY
  +--> QUIT_WORK/WORK_DEAL
  +--> MODE_KEY/KEY
LX51 LINKER/LOCATER V4.66.97.0                                                        05/09/2023  16:57:25  PAGE 7


  +--> DEC_KEY/KEY
  +--> ADD_KEY/KEY

KEY_SCAN/KEY                               ----- -----  0027H 0027H  ----- -----

KEY_CLR_SEC/KEY                            ----- -----  ----- -----  ----- -----
  +--> _OPEN_BUZ/BUZ

BAOWEN_FUN/KEY                             ----- -----  ----- -----  ----- -----

KEY_YUYUE/KEY                              ----- -----  ----- -----  ----- -----

QUIT_WORK/WORK_DEAL                        ----- -----  ----- -----  ----- -----

MODE_KEY/KEY                               ----- -----  ----- -----  ----- -----
  +--> MODE_INIT/KEY
  +--> KEY_CLR_SEC/KEY

MODE_INIT/KEY                              ----- -----  ----- -----  ----- -----

DEC_KEY/KEY                                ----- -----  ----- -----  ----- -----
  +--> YUYUE_DEC_FUN/KEY
  +--> GRADE_DEC_FUN/KEY
  +--> DINGSHI_DEC_FUN/KEY
  +--> KEY_CLR_SEC/KEY
  +--> BAOWEN_DEC_FUN/KEY

YUYUE_DEC_FUN/KEY                          ----- -----  ----- -----  ----- -----

GRADE_DEC_FUN/KEY                          ----- -----  ----- -----  ----- -----

DINGSHI_DEC_FUN/KEY                        ----- -----  0027H 0027H  ----- -----
  +--> KEY_CLR_SEC/KEY

BAOWEN_DEC_FUN/KEY                         ----- -----  0027H 0027H  ----- -----
  +--> KEY_CLR_SEC/KEY

ADD_KEY/KEY                                ----- -----  ----- -----  ----- -----
  +--> YUYUE_ADD_FUN/KEY
  +--> GRADE_ADD_FUN/KEY
  +--> DINGSHI_ADD_FUN/KEY
  +--> KEY_CLR_SEC/KEY
  +--> BAOWEN_ADD_FUN/KEY

YUYUE_ADD_FUN/KEY                          ----- -----  ----- -----  ----- -----

GRADE_ADD_FUN/KEY                          ----- -----  ----- -----  ----- -----

DINGSHI_ADD_FUN/KEY                        ----- -----  0027H 0027H  ----- -----
  +--> KEY_CLR_SEC/KEY

BAOWEN_ADD_FUN/KEY                         ----- -----  0027H 0027H  ----- -----
  +--> KEY_CLR_SEC/KEY

WORK_DEAL/WORK_DEAL                        ----- -----  0027H 0027H  ----- -----
  +--> ACTION_WORK/WORK_DEAL
  +--> SHUTDOWN_POWER/WORK_DEAL
  +--> NEXT_STEP/WORK_DEAL
  +--> _OPEN_BUZ/BUZ
  +--> QUIT_WORK/WORK_DEAL
  +--> ZHU_MODE_CHAO_SP/WORK_DEAL
  +--> ZHU_MODE_DUNZHU/WORK_DEAL
  +--> ZHU_MODE_QINGZHENG/WORK_DEAL
  +--> ZHU_MODE_MANDUN/WORK_DEAL
  +--> ZHU_MODE_NIUPAI/WORK_DEAL
LX51 LINKER/LOCATER V4.66.97.0                                                        05/09/2023  16:57:25  PAGE 8


  +--> ZHU_MODE_CHAO/WORK_DEAL
  +--> ZHU_MODE_BB/WORK_DEAL

ACTION_WORK/WORK_DEAL                      ----- -----  ----- -----  ----- -----
  +--> NEXT_STEP/WORK_DEAL

NEXT_STEP/WORK_DEAL                        ----- -----  ----- -----  ----- -----

SHUTDOWN_POWER/WORK_DEAL                   ----- -----  ----- -----  ----- -----
  +--> _OPEN_BUZ/BUZ
  +--> QUIT_WORK/WORK_DEAL

ZHU_MODE_CHAO_SP/WORK_DEAL                 ----- -----  ----- -----  ----- -----
  +--> _INTERMITTENT/WORK_DEAL

_INTERMITTENT/WORK_DEAL                    ----- -----  ----- -----  ----- -----

ZHU_MODE_DUNZHU/WORK_DEAL                  ----- -----  ----- -----  ----- -----
  +--> _INTERMITTENT/WORK_DEAL

ZHU_MODE_QINGZHENG/WORK_DEAL               ----- -----  ----- -----  ----- -----
  +--> _INTERMITTENT/WORK_DEAL

ZHU_MODE_MANDUN/WORK_DEAL                  ----- -----  ----- -----  ----- -----
  +--> _INTERMITTENT/WORK_DEAL

ZHU_MODE_NIUPAI/WORK_DEAL                  ----- -----  ----- -----  ----- -----
  +--> _INTERMITTENT/WORK_DEAL

ZHU_MODE_CHAO/WORK_DEAL                    ----- -----  ----- -----  ----- -----
  +--> _INTERMITTENT/WORK_DEAL

ZHU_MODE_BB/WORK_DEAL                      26H.4 26H.4  ----- -----  ----- -----
  +--> _INTERMITTENT/WORK_DEAL

WARNING_CHECK/AD                           ----- -----  ----- -----  ----- -----
  +--> _OPEN_BUZ/BUZ
  +--> QUIT_WORK/WORK_DEAL

BUZ_DEAL/BUZ                               ----- -----  ----- -----  ----- -----

CHECK_DEAL/OTHER                           ----- -----  ----- -----  ----- -----

LAB_AD_FUN/AD                              ----- -----  ----- -----  ----- -----
  +--> _ADC_OBTAIN/XS16TK06X_ADC
  +--> _GET_WENDU1/AD

_ADC_OBTAIN/XS16TK06X_ADC                  ----- -----  ----- -----  ----- -----
  +--> _GET_ADC/XS16TK06X_ADC

_GET_ADC/XS16TK06X_ADC                     ----- -----  ----- -----  ----- -----
  +--> _ADC_DELAY_US/XS16TK06X_ADC

_ADC_DELAY_US/XS16TK06X_ADC                ----- -----  ----- -----  ----- -----

_GET_WENDU1/AD                             ----- -----  ----- -----  ----- -----

TIME_DEAL/PROJECT                          ----- -----  ----- -----  ----- -----
  +--> QUIT_WORK/WORK_DEAL
  +--> _OPEN_BUZ/BUZ
  +--> RELAY_DEAL/WORK_DEAL

RELAY_DEAL/WORK_DEAL                       ----- -----  ----- -----  ----- -----

DISPLAY_DEAL/DISPLAY                       ----- -----  ----- -----  ----- -----
LX51 LINKER/LOCATER V4.66.97.0                                                        05/09/2023  16:57:25  PAGE 9


  +--> DISPDATA_CLR/DISPLAY
  +--> DISPDATA_SET/DISPLAY
  +--> SMG_DEAL/DISPLAY
  +--> LED_DEAL/DISPLAY
  +--> DISPDATA_MOV/DISPLAY

DISPDATA_CLR/DISPLAY                       ----- -----  ----- -----  ----- -----

DISPDATA_SET/DISPLAY                       ----- -----  ----- -----  ----- -----

SMG_DEAL/DISPLAY                           ----- -----  ----- -----  ----- -----
  +--> SMG_DEAL_DINGSHI_1/DISPLAY
  +--> SMG_DEAL_YUYUE_1/DISPLAY
  +--> SMG_DEAL_DINGSHI_2/DISPLAY

SMG_DEAL_DINGSHI_1/DISPLAY                 ----- -----  0027H 0027H  ----- -----

SMG_DEAL_YUYUE_1/DISPLAY                   ----- -----  ----- -----  ----- -----

SMG_DEAL_DINGSHI_2/DISPLAY                 ----- -----  0027H 0027H  ----- -----

LED_DEAL/DISPLAY                           ----- -----  ----- -----  ----- -----
  +--> LED_DEAL_ALL_ON/DISPLAY
  +--> LED_DEAL_MODE_ONE/DISPLAY

LED_DEAL_ALL_ON/DISPLAY                    ----- -----  ----- -----  ----- -----

LED_DEAL_MODE_ONE/DISPLAY                  ----- -----  ----- -----  ----- -----

DISPDATA_MOV/DISPLAY                       ----- -----  ----- -----  ----- -----

?C_INITSEG                                 ----- -----  ----- -----  ----- -----

*** NEW ROOT *****************************

LVDT_ISR/XS16TK06X_LVDT                    ----- -----  ----- -----  ----- -----

*** NEW ROOT *****************************

TIMER0_ISR/XS16TK06X_TIMER                 ----- -----  ----- -----  ----- -----
  +--> RESET_CNT_ADD/XS16TK06X_TIMER
  +--> ADC_RESET_COUNT/XS16TK06X_ADC

RESET_CNT_ADD/XS16TK06X_TIMER              ----- -----  ----- -----  ----- -----

ADC_RESET_COUNT/XS16TK06X_ADC              ----- -----  ----- -----  ----- -----

*** NEW ROOT *****************************

TIMER1_ISR/XS16TK06X_TIMER                 ----- -----  ----- -----  ----- -----
  +--> BUZ_RING/BUZ
  +--> LED_SCAN/DISPLAY
  +--> KKG_WORK_API/WORK_DEAL

BUZ_RING/BUZ                               ----- -----  ----- -----  ----- -----

LED_SCAN/DISPLAY                           ----- -----  ----- -----  ----- -----

KKG_WORK_API/WORK_DEAL                     ----- -----  ----- -----  ----- -----

*** NEW ROOT *****************************

TIMER2_WDT_ISR/XS16TK06X_TIMER             ----- -----  ----- -----  ----- -----

*** NEW ROOT *****************************
LX51 LINKER/LOCATER V4.66.97.0                                                        05/09/2023  16:57:25  PAGE 10



CTK_ISR/XS16TK06X_TK                       ----- -----  ----- -----  ----- -----
  +--> CTK_XS16TK06X_ADJUST_INT/XS16TK06X_TK
  +--> SET_NEXT_SNS/XS16TK06X_TK

CTK_XS16TK06X_ADJUST_INT/XS16TK06X_TK      ----- -----  ----- -----  ----- -----
  +--> SET_NEXT_SNS/XS16TK06X_TK

SET_NEXT_SNS/XS16TK06X_TK                  ----- -----  ----- -----  ----- -----



PUBLIC SYMBOLS OF MODULE:  .\Output\XS16TK06X_V1.0.1_XSV1.0.0 (?C_STARTUP)


      VALUE       CLASS    TYPE      PUBLIC SYMBOL NAME
      =================================================
*DEL*:00000000H   DATA     BYTE      ?_three_heat?BYTE
      0100097AH   CODE     ---       ?C?CASTF
      00000000H   NUMBER   ---       ?C?CODESEG
      01000946H   CODE     ---       ?C?FCASTC
      01000941H   CODE     ---       ?C?FCASTI
      0100093CH   CODE     ---       ?C?FCASTL
      01000A4EH   CODE     ---       ?C?IILDX
      010009B1H   CODE     ---       ?C?IMUL
      01000C3AH   CODE     ---       ?C?LIMUL
      01000A64H   CODE     ---       ?C?LMUL
      01000B8EH   CODE     ---       ?C?LNEG
      01000B81H   CODE     ---       ?C?LNOT
      01000BEAH   CODE     ---       ?C?LSHL
      01000C09H   CODE     ---       ?C?LSTKXDATA
      01000BFDH   CODE     ---       ?C?LSTXDATA
      01000A18H   CODE     ---       ?C?SIDIV
      01000B9CH   CODE     ---       ?C?SLCMP
      0100001EH   CODE     ---       ?C?SLDIV
      01000BD6H   CODE     ---       ?C?SLSHR
      010009C3H   CODE     ---       ?C?UIDIV
      01000BB2H   CODE     ---       ?C?ULCMP
      01000AEFH   CODE     ---       ?C?ULDIV
      01000BC3H   CODE     ---       ?C?ULSHR
      00000000H   NUMBER   ---       ?C?XDATASEG
      010026CCH   CODE     ---       ?C_START
      01000000H   CODE     ---       ?C_STARTUP
      01003333H   CODE     ---       _ADC_Delay_us
      01000017H   CODE     ---       _ADC_Obtain
*DEL*:00000000H   CODE     ---       _baowen_hdle
      0100007EH   CODE     ---       _CTK_SNS_Renovate
      01002929H   CODE     ---       _CTK_TK_Left_Count
      010023F8H   CODE     ---       _Get_ADC
      0100320AH   CODE     ---       _get_wendu1
*DEL*:00000000H   CODE     ---       _heat_hdle
      01002FF4H   CODE     ---       _intermittent
      01000066H   CODE     ---       _open_buz
*DEL*:00000000H   CODE     ---       _three_heat
      0100279CH   CODE     ---       _Timer0_Init
      010031ECH   CODE     ---       _Timer1_Init
*SFR* 000000D0H.6 DATA     BIT       AC
*SFR* 000000E0H   DATA     BYTE      ACC
      01003308H   CODE     ---       action_work
*SFR* 000000BBH   DATA     BYTE      ADC_CFG1
*SFR* 000000BCH   DATA     BYTE      ADC_CFG2
      01002CE5H   CODE     ---       ADC_Init
*SFR* 000000D9H   DATA     BYTE      ADC_IO_SEL1
*SFR* 000000DAH   DATA     BYTE      ADC_IO_SEL2
*SFR* 000000DBH   DATA     BYTE      ADC_IO_SEL3
LX51 LINKER/LOCATER V4.66.97.0                                                        05/09/2023  16:57:25  PAGE 11


*SFR* 000000DCH   DATA     BYTE      ADC_IO_SEL4
*SFR* 000000B9H   DATA     BYTE      ADC_RDATAH
*SFR* 000000BAH   DATA     BYTE      ADC_RDATAL
      010031CDH   CODE     ---       ADC_Reset_Count
      0000001DH   DATA     WORD      ADC_Rest_Max_Count
*SFR* 000000B5H   DATA     BYTE      ADC_SCAN_CFG
*SFR* 000000B4H   DATA     BYTE      ADC_SPT
      0000001BH   DATA     WORD      ADC_Start_Count
      00000026H.2 BIT      BIT       ADC_Start_Flag
*SFR* 000000B6H   DATA     BYTE      ADCCKC
      01002539H   CODE     ---       add_key
      00000024H.3 BIT      BIT       adjust_done_flag
*SFR* 000000F0H   DATA     BYTE      B
      02000103H   XDATA    WORD      b_ad_buf0
      02000105H   XDATA    BYTE      b_ad_buf1
      020000FAH   XDATA    BYTE      b_ad_value
      02000102H   XDATA    BYTE      b_admax_value
      02000101H   XDATA    BYTE      b_admin_value
      020000DBH   XDATA    BYTE      b_baowen_hour
      020000E0H   XDATA    BYTE      b_baowen_min
      020000D9H   XDATA    BYTE      b_baowen_sec
      02000119H   XDATA    BYTE      b_buz_SP_cnt
      02000118H   XDATA    BYTE      b_buzCnt
      0000001FH   DATA     BYTE      b_buzKind
      0200011AH   XDATA    BYTE      b_buzNum
      02000115H   XDATA    BYTE      b_buzTable
      02000117H   XDATA    BYTE      b_buzType
      02000125H   XDATA    BYTE      b_checkTime
      020000F7H   XDATA    BYTE      b_clock_key
      020000C5H   XDATA    BYTE      b_ctrl_cnt
      020000D5H   XDATA    BYTE      b_ctrl_cnt1
      020000D6H   XDATA    BYTE      b_ctrl_cnt2
      020000C9H   XDATA    BYTE      b_ctrl_sec_1
      020000CAH   XDATA    WORD      b_ctrl_sec_2
      020000CCH   XDATA    BYTE      b_ctrl_sec_3
      020000BEH   XDATA    BYTE      b_ctrl_status
      0000004AH   DATA     BYTE      b_delay_check_ad
      020000E2H   XDATA    BYTE      b_delay_kkg
      020000D3H   XDATA    BYTE      b_dingshi_hour
      020000D7H   XDATA    BYTE      b_dingshi_min
      020000D2H   XDATA    BYTE      b_dingshi_sec
      00000035H   DATA     BYTE      b_dis_r18
      00000036H   DATA     BYTE      b_dis_r28
      00000037H   DATA     BYTE      b_dis_r38
      00000038H   DATA     BYTE      b_dis_r48
      00000039H   DATA     BYTE      b_dis_r58
      0000003AH   DATA     BYTE      b_dis_r68
      0000003BH   DATA     BYTE      b_dis_r78
      0000003CH   DATA     BYTE      b_dis_r88
      00000034H   DATA     BYTE      b_disp_rl
      0000003DH   DATA     BYTE      b_disp_status
      02000109H   XDATA    BYTE      b_disp_test
      02000113H   XDATA    BYTE      b_disp_test2
      02000107H   XDATA    BYTE      b_error_e3
      020000FBH   XDATA    BYTE      b_error_sec
      020000FEH   XDATA    BYTE      b_error_sec_1
      020000F5H   XDATA    BYTE      b_force_flash_cnt
      020000D1H   XDATA    BYTE      b_grade
      020000DAH   XDATA    BYTE      b_high_level
      020000EDH   XDATA    BYTE      b_key_cnt
      020000F4H   XDATA    BYTE      b_key_double
      020000F3H   XDATA    BYTE      b_key_longcnt
      020000F6H   XDATA    BYTE      b_key_noCnt
      020000F0H   XDATA    BYTE      b_key_num
      020000ECH   XDATA    BYTE      b_key_old
LX51 LINKER/LOCATER V4.66.97.0                                                        05/09/2023  16:57:25  PAGE 12


      020000E6H   XDATA    BYTE      b_key_value
      020000C4H   XDATA    BYTE      b_kkg_buf
      020000C1H   XDATA    BYTE      b_kkg_count
      0200010CH   XDATA    BYTE      b_led_slide1
      020000D8H   XDATA    BYTE      b_mjs_set_sec
      020000E1H   XDATA    BYTE      b_mode
      02000124H   XDATA    BYTE      b_NOW_or_Target_cnt
      02000123H   XDATA    BYTE      b_NOW_or_Target_cnt2
      020000CFH   XDATA    WORD      b_out_ctrl
      020000DDH   XDATA    WORD      b_out_ctrl2
      020000FCH   XDATA    WORD      b_quit_time
      0200010AH   XDATA    BYTE      b_r18
      0200010BH   XDATA    BYTE      b_r28
      0200010DH   XDATA    BYTE      b_r38
      0200010EH   XDATA    BYTE      b_r48
      0200010FH   XDATA    BYTE      b_r58
      02000110H   XDATA    BYTE      b_r68
      02000111H   XDATA    BYTE      b_r78
      02000112H   XDATA    BYTE      b_r88
      020000C3H   XDATA    BYTE      b_set_wendu
      02000116H   XDATA    BYTE      b_SP_n
      020000F1H   XDATA    BYTE      b_stop_1_min
      020000EEH   XDATA    BYTE      b_stop_1_sec
      020000F2H   XDATA    BYTE      b_stop_2_min
      020000EFH   XDATA    BYTE      b_stop_2_sec
      0000004DH   DATA     BYTE      b_tbcheck
      02000108H   XDATA    BYTE      b_temp
      020000FFH   XDATA    BYTE      b_temp_ad
      02000100H   XDATA    BYTE      b_temp_cnt
      020000BFH   XDATA    BYTE      b_test
      020000C0H   XDATA    BYTE      b_test_mode
      020000D4H   XDATA    BYTE      b_test_out_time
      00000033H   DATA     BYTE      b_time_grade_cnt
      00000048H   DATA     BYTE      b_warning
      02000106H   XDATA    BYTE      b_warning_buf
      020000C2H   XDATA    BYTE      b_wendu_min
      020000C7H   XDATA    BYTE      b_wendu_ok
      020000C8H   XDATA    BYTE      b_yuyue_hour
      020000CDH   XDATA    BYTE      b_yuyue_min
      020000DCH   XDATA    BYTE      b_yuyue_run_cnt
      020000C6H   XDATA    BYTE      b_yuyue_sec
      020000CEH   XDATA    BYTE      b_zeor_pre
      01002A20H   CODE     ---       baowen_add_fun
      010029A7H   CODE     ---       baowen_dec_fun
      01003168H   CODE     ---       baowen_fun
*DEL*:00000000H   CODE     ---       baowen_mode_hdle
*DEL*:00000000H   CODE     ---       baowen_yuyu_key
      02000030H   XDATA    ---       base_line
      01002B70H   CODE     ---       Base_Line_Init
      00000024H.5 BIT      BIT       base_line_int_flag
      010032C3H   CODE     ---       Bor_Init
*SFR* 000000FFH   DATA     BYTE      BOR_LVDT_VTH
      01002499H   CODE     ---       buz_deal
      01003394H   CODE     ---       buz_ring
      01002711H   CODE     ---       CFG_Check
      02000126H   XDATA    BYTE      CFG_Rb
      00000026H.0 BIT      BIT       check_ad_ok
      00000026H.1 BIT      BIT       check_ad_ok_1
      0100335BH   CODE     ---       check_deal
*SFR* 000000EEH   DATA     BYTE      COM_IO_SEL
*SFR* 000000CFH   DATA     BYTE      CSD_RAWDATAH
*SFR* 000000CEH   DATA     BYTE      CSD_RAWDATAL
*SFR* 000000CAH   DATA     BYTE      CSD_START
      00000024H.4 BIT      BIT       ctk_circle_done
      01001E93H   CODE     ---       CTK_Init
LX51 LINKER/LOCATER V4.66.97.0                                                        05/09/2023  16:57:25  PAGE 13


      010022A9H   CODE     ---       CTK_ISR
      0100318BH   CODE     ---       CTK_Long_TK_Count
      00000024H.6 BIT      BIT       ctk_para_done
      0100212AH   CODE     ---       CTK_Set_Para
      02000121H   XDATA    WORD      ctk_soft_reset_count
      0200011FH   XDATA    WORD      ctk_soft_reset_max_count
      01001199H   CODE     ---       CTK_XS16TK06X_Adjust_Int
*SFR* 000000D0H.7 DATA     BIT       CY
*SFR* 000000F8H   DATA     BYTE      DATAA
*SFR* 00000080H   DATA     BYTE      DATAB
*SFR* 00000090H   DATA     BYTE      DATAC
*SFR* 00000098H   DATA     BYTE      DATAD
      010025D8H   CODE     ---       dec_key
      01003074H   CODE     ---       Default_Set_IO
*DEL*:00000000H   CODE     ---       delay_1us
*DEL*:00000000H   CODE     ---       delay_2us
*DEL*:00000000H   CODE     ---       delay_5us
      01001C7BH   CODE     ---       dingshi_add_fun
      01001531H   CODE     ---       dingshi_dec_fun
      01003245H   CODE     ---       dispdata_clr
      010030CCH   CODE     ---       dispdata_mov
      01003295H   CODE     ---       dispdata_set
      01002E2EH   CODE     ---       display_deal
*SFR* 000000B0H   DATA     BYTE      DP_CON
*SFR* 00000083H   DATA     BYTE      DPH
*SFR* 00000082H   DATA     BYTE      DPL
*SFR* 000000A8H.7 DATA     BIT       EA
*SFR* 000000A8H.1 DATA     BIT       ET0
*SFR* 000000A8H.3 DATA     BIT       ET1
*SFR* 000000A8H.0 DATA     BIT       EX0
*SFR* 000000A8H.2 DATA     BIT       EX1
*SFR* 000000F7H   DATA     BYTE      EXT_INT_CON
*SFR* 000000D0H.5 DATA     BIT       F0
*SFR* 000000D0H.1 DATA     BIT       F1
      00000025H.5 BIT      BIT       f_buzFre
      00000025H.7 BIT      BIT       f_buzOn
      00000025H.6 BIT      BIT       f_buzRun
      00000022H.3 BIT      BIT       f_clock_key
      00000022H.0 BIT      BIT       f_delay_kkg
      00000024H.2 BIT      BIT       f_dgtn
      00000020H.3 BIT      BIT       f_dingshi_begin
      00000024H.1 BIT      BIT       f_disp_dingshi
      00000023H.5 BIT      BIT       f_disp_yuyue
      00000023H.4 BIT      BIT       f_dp
      00000023H.7 BIT      BIT       f_dp_2
      00000023H.6 BIT      BIT       f_fanzhuan
      00000022H.7 BIT      BIT       f_firstKey
      00000022H.2 BIT      BIT       f_high_time
      00000020H.0 BIT      BIT       f_jdq
      00000021H.0 BIT      BIT       f_jdq2
      00000021H.1 BIT      BIT       f_jdq3
      00000023H.3 BIT      BIT       f_k1_down
      00000022H.6 BIT      BIT       f_key_done
      00000023H.2 BIT      BIT       f_key_double
      00000022H.4 BIT      BIT       f_lamp_long
      00000023H.0 BIT      BIT       f_longKey
      00000021H.5 BIT      BIT       f_mjs_dingshi
      00000020H.5 BIT      BIT       f_mjs_down
      00000020H.4 BIT      BIT       f_mjs_power
      00000021H.2 BIT      BIT       f_mjs_set
      00000020H.7 BIT      BIT       f_mjs_yuyue
      00000021H.6 BIT      BIT       f_NO_jiangdang
      00000016H   DATA     BYTE      f_out_out
      00000022H.5 BIT      BIT       f_power_long
      00000020H.1 BIT      BIT       f_power_power
LX51 LINKER/LOCATER V4.66.97.0                                                        05/09/2023  16:57:25  PAGE 14


      00000023H.1 BIT      BIT       f_readKey_over
      00000020H.6 BIT      BIT       f_relay_change
      00000021H.7 BIT      BIT       f_sys_on_1
      00000022H.1 BIT      BIT       f_sys_on_2
      00000021H.3 BIT      BIT       f_sys_power_1
      00000021H.4 BIT      BIT       f_sys_power_2
      00000020H.2 BIT      BIT       f_test
      010034B7H   CONST    ---       FTH
      010032F1H   CODE     ---       Function_Init
      0000003EH   DATA     BYTE      gb_100ms
      00000040H   DATA     BYTE      gb_1ms
      00000041H   DATA     BYTE      gb_1s
      0000003FH   DATA     BYTE      gb_200ms
      00000042H   DATA     BYTE      gb_20ms
      02000114H   XDATA    BYTE      gb_flashTime
      020000DFH   XDATA    BYTE      gb_kkg
      00000049H   DATA     BYTE      gb_wendu
      00000043H   DATA     ---       gbs_paLayer
      00000026H.3 BIT      BIT       gf_check
      00000024H.0 BIT      BIT       gf_flash
      0100311FH   CODE     ---       grade_add_fun
      010030F7H   CODE     ---       grade_dec_fun
      020000ADH   XDATA    BYTE      i
*SFR* 00000088H.1 DATA     BIT       IE0
*SFR* 00000088H.3 DATA     BIT       IE1
*SFR* 000000A8H   DATA     BYTE      IEN0
*SFR* 000000E6H   DATA     BYTE      IEN1
*SFR* 000000E7H   DATA     BYTE      IEN2
*SFR* 000000E8H.2 DATA     BIT       IIC_ACK
*SFR* 000000E8H.4 DATA     BIT       IIC_AD
*SFR* 000000E8H.3 DATA     BIT       IIC_BF
*SFR* 000000E8H.0 DATA     BIT       IIC_RECOV
*SFR* 000000E8H.5 DATA     BIT       IIC_RW
*SFR* 000000E8H.7 DATA     BIT       IIC_START
*SFR* 000000E8H.6 DATA     BIT       IIC_STOP
*SFR* 000000E8H.1 DATA     BIT       IIC_WCOL
*SFR* 000000E3H   DATA     BYTE      IICADD
*SFR* 000000E4H   DATA     BYTE      IICBUF
*SFR* 000000E9H   DATA     BYTE      IICBUFFER
*SFR* 000000E5H   DATA     BYTE      IICCON
*SFR* 000000E8H   DATA     BYTE      IICSTAT
      0100001AH   CODE     ---       Init_IO
*SFR* 00000085H   DATA     BYTE      INT_PE_STAT
*SFR* 00000086H   DATA     BYTE      INT_POBO_STAT
*SFR* 000000B8H   DATA     BYTE      IPL0
*SFR* 000000F6H   DATA     BYTE      IPL1
*SFR* 000000F4H   DATA     BYTE      IPL2
*SFR* 000000F1H   DATA     BYTE      IRCON1
*SFR* 000000E1H   DATA     BYTE      IRCON2
      010031ACH   CODE     ---       key_clr_sec
      010017C0H   CODE     ---       key_deal
      010021F4H   CODE     ---       key_scan
      0100327CH   CODE     ---       key_yuyue
      02000068H   XDATA    DWORD     keys_flag
      01002825H   CODE     ---       kkg_work_api
      01001D8FH   CODE     ---       lab_ad_fun
*SFR* 000000B2H   DATA     BYTE      LED2_WIDTH
      01002F4BH   CODE     ---       led_deal
*DEL*:00000000H   CODE     ---       led_deal_ALL_OFF
      010032ACH   CODE     ---       led_deal_ALL_ON
      01002E7BH   CODE     ---       led_deal_mode_one
*SFR* 000000B3H   DATA     BYTE      LED_DRIVE
*SFR* 000000C4H   DATA     BYTE      LED_IO_START
      01000C67H   CODE     ---       led_scan
*DEL*:00000000H   CODE     ---       ledFlash_init
LX51 LINKER/LOCATER V4.66.97.0                                                        05/09/2023  16:57:25  PAGE 15


*DEL*:00000000H   CODE     ---       liushui_liucheng1
      020000A6H   XDATA    WORD      long_key_clear_count
      00000025H.3 BIT      BIT       low_power
      00000025H.2 BIT      BIT       Low_Volotage_Flag
      00000025H.4 BIT      BIT       Low_Volotage_Flag_Confirm
      0200011DH   XDATA    WORD      Low_Volotage_Flag_Confirm_count
      0200011BH   XDATA    WORD      Low_Volotage_Flag_Count
      00000025H.1 BIT      BIT       Low_Volotage_Flag_First
      01003228H   CODE     ---       LVDT_Init
      01002FB8H   CODE     ---       LVDT_ISR
      01003347H   CODE     ---       main
      0100331EH   CODE     ---       MCU_Init
      0100000EH   CODE     ---       MCU_other_Init
      0200000DH   XDATA    BYTE      Mode
      02000028H   XDATA    DWORD     mode_flag
      01002DE0H   CODE     ---       mode_init
      010028AAH   CODE     ---       mode_key
      020000A8H   XDATA    DWORD     muli_key_flag
      020000ACH   XDATA    BYTE      multi_key_count
      0200000EH   XDATA    BYTE      multi_key_reset_cnt
      020000B6H   XDATA    ---       n_base_line
      0200001BH   XDATA    ---       n_base_line_reno_count
      01003144H   CODE     ---       next_step
*SFR* 000000EFH   DATA     BYTE      ODRAIN_EN
      020000AEH   XDATA    DWORD     open_sns
      02000017H   XDATA    DWORD     open_sns_tem
*SFR* 000000D0H.2 DATA     BIT       OV
      02000020H   XDATA    ---       over_n_noise_count
      02000024H   XDATA    ---       over_p_noise_count
*SFR* 000000D0H.0 DATA     BIT       P
*SFR* 000000A0H   DATA     BYTE      P2_XH
*SFR* 000000F8H.0 DATA     BIT       PA0
*SFR* 000000F8H.1 DATA     BIT       PA1
      00000025H.0 BIT      BIT       parallel_init_flag
      00000024H.7 BIT      BIT       parallel_mode
*SFR* 00000080H.0 DATA     BIT       PB0
*SFR* 00000080H.1 DATA     BIT       PB1
*SFR* 00000080H.2 DATA     BIT       PB2
*SFR* 00000080H.3 DATA     BIT       PB3
*SFR* 00000080H.4 DATA     BIT       PB4
*SFR* 00000080H.5 DATA     BIT       PB5
*SFR* 00000080H.6 DATA     BIT       PB6
*SFR* 00000080H.7 DATA     BIT       PB7
*SFR* 00000090H.0 DATA     BIT       PC0
*SFR* 00000090H.1 DATA     BIT       PC1
*SFR* 00000090H.2 DATA     BIT       PC2
*SFR* 00000090H.3 DATA     BIT       PC3
*SFR* 00000090H.4 DATA     BIT       PC4
*SFR* 00000090H.5 DATA     BIT       PC5
*SFR* 00000090H.6 DATA     BIT       PC6
*SFR* 00000090H.7 DATA     BIT       PC7
*SFR* 00000087H   DATA     BYTE      PCON
*SFR* 00000098H.0 DATA     BIT       PD0
*SFR* 00000098H.1 DATA     BIT       PD1
*SFR* 00000098H.2 DATA     BIT       PD2
*SFR* 00000098H.3 DATA     BIT       PD3
*SFR* 00000098H.4 DATA     BIT       PD4
*SFR* 00000098H.5 DATA     BIT       PD5
*SFR* 00000098H.6 DATA     BIT       PD6
*SFR* 00000098H.7 DATA     BIT       PD7
*SFR* 000000FEH   DATA     BYTE      PD_ANA
*SFR* 000000D8H   DATA     BYTE      PD_PB
*SFR* 000000F2H   DATA     BYTE      PERIPH_IO_SEL
      01003047H   CODE     ---       Project
*SFR* 000000D0H   DATA     BYTE      PSW
LX51 LINKER/LOCATER V4.66.97.0                                                        05/09/2023  16:57:25  PAGE 16


*SFR* 000000B8H.1 DATA     BIT       PT0
*SFR* 000000B8H.3 DATA     BIT       PT1
*SFR* 000000DDH   DATA     BYTE      PU_PA
*SFR* 000000DEH   DATA     BYTE      PU_PB
*SFR* 000000DFH   DATA     BYTE      PU_PC
*SFR* 000000E2H   DATA     BYTE      PU_PD
      010034EBH   CONST    ---       PUIV
*SFR* 000000D1H   DATA     BYTE      PULL_I_SELA_L
      0200002CH   XDATA    ---       pull_i_step
      0200000FH   XDATA    ---       pull_i_value
      0200006CH   XDATA    WORD      pull_i_value_parallel
*SFR* 000000A5H   DATA     BYTE      PWM0_CH0_CNT_H
*SFR* 000000A4H   DATA     BYTE      PWM0_CH0_CNT_L
*SFR* 000000A7H   DATA     BYTE      PWM0_CH1_CNT_H
*SFR* 000000A6H   DATA     BYTE      PWM0_CH1_CNT_L
*SFR* 000000AAH   DATA     BYTE      PWM0_CH2_CNT_H
*SFR* 000000A9H   DATA     BYTE      PWM0_CH2_CNT_L
*SFR* 000000ACH   DATA     BYTE      PWM0_CH3_CNT_H
*SFR* 000000ABH   DATA     BYTE      PWM0_CH3_CNT_L
*SFR* 000000A3H   DATA     BYTE      PWM0_CH_CTRL
*SFR* 000000AEH   DATA     BYTE      PWM0_MOD_H
*SFR* 000000ADH   DATA     BYTE      PWM0_MOD_L
*SFR* 0000009CH   DATA     BYTE      PWM1_H_H
*SFR* 0000009BH   DATA     BYTE      PWM1_H_L
*SFR* 0000009AH   DATA     BYTE      PWM1_L_H
*SFR* 00000099H   DATA     BYTE      PWM1_L_L
*SFR* 000000A1H   DATA     BYTE      PWM2_H_H
*SFR* 0000009FH   DATA     BYTE      PWM2_H_L
*SFR* 0000009EH   DATA     BYTE      PWM2_L_H
*SFR* 0000009DH   DATA     BYTE      PWM2_L_L
*SFR* 000000A2H   DATA     BYTE      PWM_EN
*SFR* 000000B8H.0 DATA     BIT       PX0
*SFR* 000000B8H.2 DATA     BIT       PX1
      0100336EH   CODE     ---       quit_work
      02000072H   XDATA    ---       raw_data
*SFR* 00000096H   DATA     BYTE      REG_ADDR
*SFR* 00000097H   DATA     BYTE      REG_DATA
      01003381H   CODE     ---       relay_deal
      010030A1H   CODE     ---       Reset_Cnt_Add
*SFR* 000000C0H.3 DATA     BIT       RI0
*SFR* 000000C8H.3 DATA     BIT       RI1
*SFR* 000000D0H.3 DATA     BIT       RS0
*SFR* 000000D0H.4 DATA     BIT       RS1
*SFR* 000000D7H   DATA     BYTE      RST_STAT
*SFR* 000000AFH   DATA     BYTE      SCAN_START
*SFR* 000000B1H   DATA     BYTE      SCAN_WIDTH
      02000064H   XDATA    ---       sensor_open
      01002F0BH   CODE     ---       Set_Next_SNS
      01000013H   CODE     ---       Set_Sys_Clk
      020000E8H   XDATA    BYTE      set_time_1_hour
      020000EAH   XDATA    BYTE      set_time_1_min
      020000E5H   XDATA    BYTE      set_time_1_sec
      020000E9H   XDATA    BYTE      set_time_2_hour
      020000EBH   XDATA    BYTE      set_time_2_min
      020000E7H   XDATA    BYTE      set_time_2_sec
      01000003H   CODE     ---       shutdown_power
      01002353H   CODE     ---       smg_deal
      01001900H   CODE     ---       smg_deal_dingshi_1
      01001A35H   CODE     ---       smg_deal_dingshi_2
      01002B09H   CODE     ---       smg_deal_yuyue_1
      0100349DH   CONST    ---       SNS
*SFR* 000000D2H   DATA     BYTE      SNS_ANA_CFG
      0000004BH   DATA     BYTE      Sns_Count
*SFR* 000000D3H   DATA     BYTE      SNS_IO_SEL1
*SFR* 000000D4H   DATA     BYTE      SNS_IO_SEL2
LX51 LINKER/LOCATER V4.66.97.0                                                        05/09/2023  16:57:25  PAGE 17


*SFR* 000000D5H   DATA     BYTE      SNS_IO_SEL3
*SFR* 000000D6H   DATA     BYTE      SNS_IO_SEL4
      0000004CH   DATA     BYTE      sns_next
      02000008H   XDATA    BYTE      sns_next_count
*SFR* 000000CBH   DATA     BYTE      SNS_SCAN_CFG1
*SFR* 000000CCH   DATA     BYTE      SNS_SCAN_CFG2
*SFR* 000000CDH   DATA     BYTE      SNS_SCAN_CFG3
*SFR* 0000008EH   DATA     BYTE      SOFT_RST
*SFR* 00000081H   DATA     BYTE      SP
*SFR* 000000F9H   DATA     BYTE      SPROG_ADDR_H
*SFR* 000000FAH   DATA     BYTE      SPROG_ADDR_L
*SFR* 000000FCH   DATA     BYTE      SPROG_CMD
*SFR* 000000FBH   DATA     BYTE      SPROG_DATA
*SFR* 000000FDH   DATA     BYTE      SPROG_TIM
*SFR* 00000084H   DATA     BYTE      SYS_CLK_CFG
      01003561H   CONST    ---       tab_buz
      00000008H   DATA     ---       tab_huo_guo_5
      0000000DH   DATA     ---       tab_huo_guo_9
      01003597H   CONST    ---       tab_num
      0100351FH   CONST    ---       tab_set
      010033A2H   CONST    ---       tab_temper
      020000F8H   XDATA    BYTE      Target_wendu_1
      020000F9H   XDATA    BYTE      Target_wendu_2
      020000E3H   XDATA    BYTE      Target_wendu_mode_1
      020000E4H   XDATA    BYTE      Target_wendu_mode_2
*SFR* 00000088H   DATA     BYTE      TCON
*SFR* 00000088H.5 DATA     BIT       TF0
*SFR* 00000088H.7 DATA     BIT       TF1
*SFR* 0000008CH   DATA     BYTE      TH0
      00000017H   DATA     BYTE      TH0_Reload
*SFR* 0000008DH   DATA     BYTE      TH1
      00000018H   DATA     BYTE      TH1_Reload
*SFR* 000000C0H.4 DATA     BIT       TI0
*SFR* 000000C8H.4 DATA     BIT       TI1
      01000F6DH   CODE     ---       time_deal
      01001F7EH   CODE     ---       Timer0_ISR
      01002C8CH   CODE     ---       Timer1_ISR
*SFR* 00000093H   DATA     BYTE      TIMER2_CFG
*SFR* 00000094H   DATA     BYTE      TIMER2_SET_H
*SFR* 00000095H   DATA     BYTE      TIMER2_SET_L
      01003261H   CODE     ---       Timer2_WDT_ISR
*SFR* 0000008AH   DATA     BYTE      TL0
      00000019H   DATA     BYTE      TL0_Reload
*SFR* 0000008BH   DATA     BYTE      TL1
      0000001AH   DATA     BYTE      TL1_Reload
*SFR* 00000089H   DATA     BYTE      TMOD
      02000009H   XDATA    ---       touch_confirm_count
      0200006EH   XDATA    ---       touch_left_count
*SFR* 00000088H.4 DATA     BIT       TR0
*SFR* 00000088H.6 DATA     BIT       TR1
*SFR* 000000EAH   DATA     BYTE      TRISA
*SFR* 000000EBH   DATA     BYTE      TRISB
*SFR* 000000ECH   DATA     BYTE      TRISC
*SFR* 000000EDH   DATA     BYTE      TRISD
*SFR* 000000BDH   DATA     BYTE      UART0_BDL
*SFR* 000000C1H   DATA     BYTE      UART0_BUF
*SFR* 000000BEH   DATA     BYTE      UART0_CON1
*SFR* 000000BFH   DATA     BYTE      UART0_CON2
*SFR* 000000C0H.1 DATA     BIT       UART0_F
*SFR* 000000C0H.0 DATA     BIT       UART0_P
*SFR* 000000C0H.6 DATA     BIT       UART0_R8
*SFR* 000000C0H.2 DATA     BIT       UART0_RO
*SFR* 000000C0H   DATA     BYTE      UART0_STATE
*SFR* 000000C0H.5 DATA     BIT       UART0_T8
*SFR* 000000C5H   DATA     BYTE      UART1_BDL
LX51 LINKER/LOCATER V4.66.97.0                                                        05/09/2023  16:57:25  PAGE 18


*SFR* 000000C9H   DATA     BYTE      UART1_BUF
*SFR* 000000C6H   DATA     BYTE      UART1_CON1
*SFR* 000000C7H   DATA     BYTE      UART1_CON2
*SFR* 000000C8H.1 DATA     BIT       UART1_F
*SFR* 000000C8H.0 DATA     BIT       UART1_P
*SFR* 000000C8H.6 DATA     BIT       UART1_R8
*SFR* 000000C8H.2 DATA     BIT       UART1_RO
*SFR* 000000C8H   DATA     BYTE      UART1_STATE
*SFR* 000000C8H.5 DATA     BIT       UART1_T8
*SFR* 000000C2H   DATA     BYTE      UART_IO_CTRL
*SFR* 000000C3H   DATA     BYTE      UART_IO_CTRL1
      02000000H   XDATA    ---       under_n_noise_count
      020000B2H   XDATA    ---       under_nn_noise_count
      02000004H   XDATA    ---       under_p_noise_count
      01002058H   CODE     ---       warning_check
*SFR* 00000091H   DATA     BYTE      WDT_CTRL
*SFR* 00000092H   DATA     BYTE      WDT_EN
      010032DAH   CODE     ---       WDT_Init
      010013AEH   CODE     ---       work_deal
      01002A96H   CODE     ---       XS16TK06X_Set_Touch_Flag
      01002D3CH   CODE     ---       yuyue_add_fun
      01002F86H   CODE     ---       yuyue_dec_fun
*DEL*:00000000H   CODE     ---       zhu_mode_0
*DEL*:00000000H   CODE     ---       zhu_mode_1
      01001B5AH   CODE     ---       zhu_mode_bb
      01002EC3H   CODE     ---       zhu_mode_chao
      0100167AH   CODE     ---       zhu_mode_chao_SP
      01003018H   CODE     ---       zhu_mode_dunzhu
      01002C2FH   CODE     ---       zhu_mode_mandun
      01002D90H   CODE     ---       zhu_mode_niupai
      01002BD2H   CODE     ---       zhu_mode_qingzheng
*DEL*:00000000H   CODE     ---       zhufan_hdle_ONE



SYMBOL TABLE OF MODULE:  .\Output\XS16TK06X_V1.0.1_XSV1.0.0 (?C_STARTUP)

      VALUE       REP       CLASS    TYPE      SYMBOL NAME
      ====================================================
      ---         MODULE    ---      ---       ?C_STARTUP
      01000000H   PUBLIC    CODE     ---       ?C_STARTUP
      000000E0H   SYMBOL    DATA     ---       ACC
      000000F0H   SYMBOL    DATA     ---       B
      00000083H   SYMBOL    DATA     ---       DPH
      00000082H   SYMBOL    DATA     ---       DPL
      00000000H   SYMBOL    NUMBER   ---       IBPSTACK
      00000100H   SYMBOL    NUMBER   ---       IBPSTACKTOP
      00000100H   SYMBOL    NUMBER   ---       IDATALEN
      0100267AH   SYMBOL    CODE     ---       IDATALOOP
      00000000H   SYMBOL    NUMBER   ---       PBPSTACK
      00000000H   SYMBOL    NUMBER   ---       PBPSTACKTOP
      00000000H   SYMBOL    NUMBER   ---       PDATALEN
      00000000H   SYMBOL    NUMBER   ---       PDATASTART
      00000000H   SYMBOL    NUMBER   ---       PPAGE
      00000000H   SYMBOL    NUMBER   ---       PPAGEENABLE
      000000A0H   SYMBOL    DATA     ---       PPAGE_SFR
      00000081H   SYMBOL    DATA     ---       SP
      01002677H   SYMBOL    CODE     ---       STARTUP1
      00000000H   SYMBOL    NUMBER   ---       XBPSTACK
      00000000H   SYMBOL    NUMBER   ---       XBPSTACKTOP
      00000200H   SYMBOL    NUMBER   ---       XDATALEN
      01002685H   SYMBOL    CODE     ---       XDATALOOP
      00000000H   SYMBOL    NUMBER   ---       XDATASTART
      01000000H   LINE      CODE     ---       #92
      01002677H   LINE      CODE     ---       #99
LX51 LINKER/LOCATER V4.66.97.0                                                        05/09/2023  16:57:25  PAGE 19


      01002679H   LINE      CODE     ---       #100
      0100267AH   LINE      CODE     ---       #101
      0100267BH   LINE      CODE     ---       #102
      0100267DH   LINE      CODE     ---       #106
      01002680H   LINE      CODE     ---       #107
      01002682H   LINE      CODE     ---       #111
      01002684H   LINE      CODE     ---       #113
      01002685H   LINE      CODE     ---       #114
      01002686H   LINE      CODE     ---       #115
      01002687H   LINE      CODE     ---       #116
      01002689H   LINE      CODE     ---       #117
      0100268BH   LINE      CODE     ---       #151
      0100268EH   LINE      CODE     ---       #155

      ---         MODULE    ---      ---       OTHER
      00000043H   PUBLIC    DATA     ---       gbs_paLayer
      00000042H   PUBLIC    DATA     BYTE      gb_20ms
      02000125H   PUBLIC    XDATA    BYTE      b_checkTime
      00000041H   PUBLIC    DATA     BYTE      gb_1s
      00000040H   PUBLIC    DATA     BYTE      gb_1ms
      0000003FH   PUBLIC    DATA     BYTE      gb_200ms
      0000003EH   PUBLIC    DATA     BYTE      gb_100ms
      0100335BH   PUBLIC    CODE     ---       check_deal
      0100000EH   PUBLIC    CODE     ---       MCU_other_Init
      000000C3H   SFRSYM    DATA     BYTE      UART_IO_CTRL1
      00000099H   SFRSYM    DATA     BYTE      PWM1_L_L
      000000F7H   SFRSYM    DATA     BYTE      EXT_INT_CON
      0000009DH   SFRSYM    DATA     BYTE      PWM2_L_L
      00000085H   SFRSYM    DATA     BYTE      INT_PE_STAT
      000000B5H   SFRSYM    DATA     BYTE      ADC_SCAN_CFG
      000000A0H   SFRSYM    DATA     BYTE      P2_XH
      000000D0H.6 SFRSYM    DATA     BIT       AC
      000000EAH   SFRSYM    DATA     BYTE      TRISA
      000000E8H.2 SFRSYM    DATA     BIT       IIC_ACK
      000000A8H.7 SFRSYM    DATA     BIT       EA
      000000EBH   SFRSYM    DATA     BYTE      TRISB
      000000ECH   SFRSYM    DATA     BYTE      TRISC
      000000D8H   SFRSYM    DATA     BYTE      PD_PB
      00000091H   SFRSYM    DATA     BYTE      WDT_CTRL
      000000EDH   SFRSYM    DATA     BYTE      TRISD
      000000FBH   SFRSYM    DATA     BYTE      SPROG_DATA
      000000F2H   SFRSYM    DATA     BYTE      PERIPH_IO_SEL
      000000B1H   SFRSYM    DATA     BYTE      SCAN_WIDTH
      000000CFH   SFRSYM    DATA     BYTE      CSD_RAWDATAH
      000000A8H   SFRSYM    DATA     BYTE      IEN0
      000000E6H   SFRSYM    DATA     BYTE      IEN1
      000000E7H   SFRSYM    DATA     BYTE      IEN2
      000000CEH   SFRSYM    DATA     BYTE      CSD_RAWDATAL
      000000AEH   SFRSYM    DATA     BYTE      PWM0_MOD_H
      000000E9H   SFRSYM    DATA     BYTE      IICBUFFER
      000000ADH   SFRSYM    DATA     BYTE      PWM0_MOD_L
      000000C0H.1 SFRSYM    DATA     BIT       UART0_F
      000000E8H   SFRSYM    DATA     BYTE      IICSTAT
      000000C8H.1 SFRSYM    DATA     BIT       UART1_F
      000000B8H   SFRSYM    DATA     BYTE      IPL0
      000000F6H   SFRSYM    DATA     BYTE      IPL1
      000000DDH   SFRSYM    DATA     BYTE      PU_PA
      000000AFH   SFRSYM    DATA     BYTE      SCAN_START
      000000F4H   SFRSYM    DATA     BYTE      IPL2
      000000DEH   SFRSYM    DATA     BYTE      PU_PB
      000000D7H   SFRSYM    DATA     BYTE      RST_STAT
      0000008EH   SFRSYM    DATA     BYTE      SOFT_RST
      000000DFH   SFRSYM    DATA     BYTE      PU_PC
      000000E2H   SFRSYM    DATA     BYTE      PU_PD
      000000D1H   SFRSYM    DATA     BYTE      PULL_I_SELA_L
LX51 LINKER/LOCATER V4.66.97.0                                                        05/09/2023  16:57:25  PAGE 20


      000000B6H   SFRSYM    DATA     BYTE      ADCCKC
      000000D0H.7 SFRSYM    DATA     BIT       CY
      00000086H   SFRSYM    DATA     BYTE      INT_POBO_STAT
      000000C0H.0 SFRSYM    DATA     BIT       UART0_P
      000000EEH   SFRSYM    DATA     BYTE      COM_IO_SEL
      000000C8H.0 SFRSYM    DATA     BIT       UART1_P
      000000E3H   SFRSYM    DATA     BYTE      IICADD
      000000BDH   SFRSYM    DATA     BYTE      UART0_BDL
      000000B4H   SFRSYM    DATA     BYTE      ADC_SPT
      000000C5H   SFRSYM    DATA     BYTE      UART1_BDL
      00000081H   SFRSYM    DATA     BYTE      SP
      000000D0H.2 SFRSYM    DATA     BIT       OV
      000000A3H   SFRSYM    DATA     BYTE      PWM0_CH_CTRL
      000000BBH   SFRSYM    DATA     BYTE      ADC_CFG1
      00000094H   SFRSYM    DATA     BYTE      TIMER2_SET_H
      000000C1H   SFRSYM    DATA     BYTE      UART0_BUF
      000000BCH   SFRSYM    DATA     BYTE      ADC_CFG2
      000000C9H   SFRSYM    DATA     BYTE      UART1_BUF
      000000F1H   SFRSYM    DATA     BYTE      IRCON1
      000000E1H   SFRSYM    DATA     BYTE      IRCON2
      00000095H   SFRSYM    DATA     BYTE      TIMER2_SET_L
      000000A5H   SFRSYM    DATA     BYTE      PWM0_CH0_CNT_H
      000000A7H   SFRSYM    DATA     BYTE      PWM0_CH1_CNT_H
      00000087H   SFRSYM    DATA     BYTE      PCON
      000000F9H   SFRSYM    DATA     BYTE      SPROG_ADDR_H
      000000B3H   SFRSYM    DATA     BYTE      LED_DRIVE
      000000AAH   SFRSYM    DATA     BYTE      PWM0_CH2_CNT_H
      000000EFH   SFRSYM    DATA     BYTE      ODRAIN_EN
      000000ACH   SFRSYM    DATA     BYTE      PWM0_CH3_CNT_H
      000000E4H   SFRSYM    DATA     BYTE      IICBUF
      000000A4H   SFRSYM    DATA     BYTE      PWM0_CH0_CNT_L
      000000A6H   SFRSYM    DATA     BYTE      PWM0_CH1_CNT_L
      00000089H   SFRSYM    DATA     BYTE      TMOD
      00000088H   SFRSYM    DATA     BYTE      TCON
      000000FAH   SFRSYM    DATA     BYTE      SPROG_ADDR_L
      000000A9H   SFRSYM    DATA     BYTE      PWM0_CH2_CNT_L
      000000E8H.0 SFRSYM    DATA     BIT       IIC_RECOV
      000000E5H   SFRSYM    DATA     BYTE      IICCON
      000000ABH   SFRSYM    DATA     BYTE      PWM0_CH3_CNT_L
      000000D9H   SFRSYM    DATA     BYTE      ADC_IO_SEL1
      000000DAH   SFRSYM    DATA     BYTE      ADC_IO_SEL2
      000000DBH   SFRSYM    DATA     BYTE      ADC_IO_SEL3
      000000E8H.4 SFRSYM    DATA     BIT       IIC_AD
      000000DCH   SFRSYM    DATA     BYTE      ADC_IO_SEL4
      000000E8H.3 SFRSYM    DATA     BIT       IIC_BF
      00000088H.1 SFRSYM    DATA     BIT       IE0
      00000088H.3 SFRSYM    DATA     BIT       IE1
      000000C4H   SFRSYM    DATA     BYTE      LED_IO_START
      000000F8H.0 SFRSYM    DATA     BIT       PA0
      000000F0H   SFRSYM    DATA     BYTE      B
      00000080H.0 SFRSYM    DATA     BIT       PB0
      000000F8H.1 SFRSYM    DATA     BIT       PA1
      000000FCH   SFRSYM    DATA     BYTE      SPROG_CMD
      00000090H.0 SFRSYM    DATA     BIT       PC0
      00000080H.1 SFRSYM    DATA     BIT       PB1
      00000098H.0 SFRSYM    DATA     BIT       PD0
      00000090H.1 SFRSYM    DATA     BIT       PC1
      00000080H.2 SFRSYM    DATA     BIT       PB2
      00000098H.1 SFRSYM    DATA     BIT       PD1
      00000090H.2 SFRSYM    DATA     BIT       PC2
      00000080H.3 SFRSYM    DATA     BIT       PB3
      000000FEH   SFRSYM    DATA     BYTE      PD_ANA
      000000E8H.7 SFRSYM    DATA     BIT       IIC_START
      00000098H.2 SFRSYM    DATA     BIT       PD2
      00000090H.3 SFRSYM    DATA     BIT       PC3
LX51 LINKER/LOCATER V4.66.97.0                                                        05/09/2023  16:57:25  PAGE 21


      00000080H.4 SFRSYM    DATA     BIT       PB4
      00000098H.3 SFRSYM    DATA     BIT       PD3
      00000090H.4 SFRSYM    DATA     BIT       PC4
      00000080H.5 SFRSYM    DATA     BIT       PB5
      000000E0H   SFRSYM    DATA     BYTE      ACC
      00000098H.4 SFRSYM    DATA     BIT       PD4
      00000090H.5 SFRSYM    DATA     BIT       PC5
      00000080H.6 SFRSYM    DATA     BIT       PB6
      000000A8H.1 SFRSYM    DATA     BIT       ET0
      00000098H.5 SFRSYM    DATA     BIT       PD5
      00000090H.6 SFRSYM    DATA     BIT       PC6
      00000080H.7 SFRSYM    DATA     BIT       PB7
      000000A8H.3 SFRSYM    DATA     BIT       ET1
      00000098H.6 SFRSYM    DATA     BIT       PD6
      00000090H.7 SFRSYM    DATA     BIT       PC7
      00000088H.5 SFRSYM    DATA     BIT       TF0
      000000C0H.3 SFRSYM    DATA     BIT       RI0
      00000098H.7 SFRSYM    DATA     BIT       PD7
      00000088H.7 SFRSYM    DATA     BIT       TF1
      000000CAH   SFRSYM    DATA     BYTE      CSD_START
      000000C8H.3 SFRSYM    DATA     BIT       RI1
      0000008CH   SFRSYM    DATA     BYTE      TH0
      000000C0H.4 SFRSYM    DATA     BIT       TI0
      000000A8H.0 SFRSYM    DATA     BIT       EX0
      000000C2H   SFRSYM    DATA     BYTE      UART_IO_CTRL
      0000008DH   SFRSYM    DATA     BYTE      TH1
      000000C8H.4 SFRSYM    DATA     BIT       TI1
      000000A8H.2 SFRSYM    DATA     BIT       EX1
      000000D0H.0 SFRSYM    DATA     BIT       P
      0000008AH   SFRSYM    DATA     BYTE      TL0
      000000C0H   SFRSYM    DATA     BYTE      UART0_STATE
      0000008BH   SFRSYM    DATA     BYTE      TL1
      000000C8H   SFRSYM    DATA     BYTE      UART1_STATE
      000000FFH   SFRSYM    DATA     BYTE      BOR_LVDT_VTH
      000000B8H.1 SFRSYM    DATA     BIT       PT0
      000000D0H.3 SFRSYM    DATA     BIT       RS0
      000000B8H.3 SFRSYM    DATA     BIT       PT1
      000000B0H   SFRSYM    DATA     BYTE      DP_CON
      000000D0H.4 SFRSYM    DATA     BIT       RS1
      00000088H.4 SFRSYM    DATA     BIT       TR0
      00000088H.6 SFRSYM    DATA     BIT       TR1
      000000D2H   SFRSYM    DATA     BYTE      SNS_ANA_CFG
      000000C0H.6 SFRSYM    DATA     BIT       UART0_R8
      000000B8H.0 SFRSYM    DATA     BIT       PX0
      000000FDH   SFRSYM    DATA     BYTE      SPROG_TIM
      000000C8H.6 SFRSYM    DATA     BIT       UART1_R8
      000000B8H.2 SFRSYM    DATA     BIT       PX1
      000000C0H.5 SFRSYM    DATA     BIT       UART0_T8
      00000097H   SFRSYM    DATA     BYTE      REG_DATA
      000000C8H.5 SFRSYM    DATA     BIT       UART1_T8
      00000096H   SFRSYM    DATA     BYTE      REG_ADDR
      000000F8H   SFRSYM    DATA     BYTE      DATAA
      00000083H   SFRSYM    DATA     BYTE      DPH
      00000080H   SFRSYM    DATA     BYTE      DATAB
      000000CBH   SFRSYM    DATA     BYTE      SNS_SCAN_CFG1
      00000090H   SFRSYM    DATA     BYTE      DATAC
      000000E8H.5 SFRSYM    DATA     BIT       IIC_RW
      000000CCH   SFRSYM    DATA     BYTE      SNS_SCAN_CFG2
      000000B9H   SFRSYM    DATA     BYTE      ADC_RDATAH
      00000098H   SFRSYM    DATA     BYTE      DATAD
      000000CDH   SFRSYM    DATA     BYTE      SNS_SCAN_CFG3
      000000BEH   SFRSYM    DATA     BYTE      UART0_CON1
      00000082H   SFRSYM    DATA     BYTE      DPL
      000000C6H   SFRSYM    DATA     BYTE      UART1_CON1
      000000BFH   SFRSYM    DATA     BYTE      UART0_CON2
LX51 LINKER/LOCATER V4.66.97.0                                                        05/09/2023  16:57:25  PAGE 22


      000000C7H   SFRSYM    DATA     BYTE      UART1_CON2
      000000BAH   SFRSYM    DATA     BYTE      ADC_RDATAL
      00000092H   SFRSYM    DATA     BYTE      WDT_EN
      000000D3H   SFRSYM    DATA     BYTE      SNS_IO_SEL1
      000000D4H   SFRSYM    DATA     BYTE      SNS_IO_SEL2
      000000D5H   SFRSYM    DATA     BYTE      SNS_IO_SEL3
      00000093H   SFRSYM    DATA     BYTE      TIMER2_CFG
      000000D6H   SFRSYM    DATA     BYTE      SNS_IO_SEL4
      000000A2H   SFRSYM    DATA     BYTE      PWM_EN
      000000B2H   SFRSYM    DATA     BYTE      LED2_WIDTH
      000000E8H.1 SFRSYM    DATA     BIT       IIC_WCOL
      00000084H   SFRSYM    DATA     BYTE      SYS_CLK_CFG
      000000C0H.2 SFRSYM    DATA     BIT       UART0_RO
      000000C8H.2 SFRSYM    DATA     BIT       UART1_RO
      000000D0H.5 SFRSYM    DATA     BIT       F0
      000000D0H.1 SFRSYM    DATA     BIT       F1
      0000009CH   SFRSYM    DATA     BYTE      PWM1_H_H
      000000A1H   SFRSYM    DATA     BYTE      PWM2_H_H
      000000D0H   SFRSYM    DATA     BYTE      PSW
      0000009BH   SFRSYM    DATA     BYTE      PWM1_H_L
      0000009AH   SFRSYM    DATA     BYTE      PWM1_L_H
      0000009FH   SFRSYM    DATA     BYTE      PWM2_H_L
      0000009EH   SFRSYM    DATA     BYTE      PWM2_L_H
      000000E8H.6 SFRSYM    DATA     BIT       IIC_STOP

      0100000EH   BLOCK     CODE     ---       LVL=0
      0100000EH   LINE      CODE     ---       #87
      0100000EH   LINE      CODE     ---       #88
      0100000EH   LINE      CODE     ---       #95
      ---         BLOCKEND  ---      ---       LVL=0

      0100335BH   BLOCK     CODE     ---       LVL=0
      0100335BH   LINE      CODE     ---       #107
      0100335BH   LINE      CODE     ---       #108
      0100335BH   LINE      CODE     ---       #109
      0100335EH   LINE      CODE     ---       #110
      0100335EH   LINE      CODE     ---       #111
      0100336BH   LINE      CODE     ---       #112
      0100336BH   LINE      CODE     ---       #113
      0100336DH   LINE      CODE     ---       #116
      0100336DH   LINE      CODE     ---       #117
      0100336DH   LINE      CODE     ---       #118
      ---         BLOCKEND  ---      ---       LVL=0

      ---         MODULE    ---      ---       CONFIG
      000000C3H   SFRSYM    DATA     BYTE      UART_IO_CTRL1
      00000099H   SFRSYM    DATA     BYTE      PWM1_L_L
      000000F7H   SFRSYM    DATA     BYTE      EXT_INT_CON
      0000009DH   SFRSYM    DATA     BYTE      PWM2_L_L
      00000085H   SFRSYM    DATA     BYTE      INT_PE_STAT
      000000B5H   SFRSYM    DATA     BYTE      ADC_SCAN_CFG
      000000A0H   SFRSYM    DATA     BYTE      P2_XH
      000000D0H.6 SFRSYM    DATA     BIT       AC
      000000EAH   SFRSYM    DATA     BYTE      TRISA
      000000E8H.2 SFRSYM    DATA     BIT       IIC_ACK
      000000A8H.7 SFRSYM    DATA     BIT       EA
      000000EBH   SFRSYM    DATA     BYTE      TRISB
      000000ECH   SFRSYM    DATA     BYTE      TRISC
      000000D8H   SFRSYM    DATA     BYTE      PD_PB
      00000091H   SFRSYM    DATA     BYTE      WDT_CTRL
      000000EDH   SFRSYM    DATA     BYTE      TRISD
      000000FBH   SFRSYM    DATA     BYTE      SPROG_DATA
      000000F2H   SFRSYM    DATA     BYTE      PERIPH_IO_SEL
      000000B1H   SFRSYM    DATA     BYTE      SCAN_WIDTH
      000000CFH   SFRSYM    DATA     BYTE      CSD_RAWDATAH
LX51 LINKER/LOCATER V4.66.97.0                                                        05/09/2023  16:57:25  PAGE 23


      000000A8H   SFRSYM    DATA     BYTE      IEN0
      000000E6H   SFRSYM    DATA     BYTE      IEN1
      000000E7H   SFRSYM    DATA     BYTE      IEN2
      000000CEH   SFRSYM    DATA     BYTE      CSD_RAWDATAL
      000000AEH   SFRSYM    DATA     BYTE      PWM0_MOD_H
      000000E9H   SFRSYM    DATA     BYTE      IICBUFFER
      000000ADH   SFRSYM    DATA     BYTE      PWM0_MOD_L
      000000C0H.1 SFRSYM    DATA     BIT       UART0_F
      000000E8H   SFRSYM    DATA     BYTE      IICSTAT
      000000C8H.1 SFRSYM    DATA     BIT       UART1_F
      000000B8H   SFRSYM    DATA     BYTE      IPL0
      000000F6H   SFRSYM    DATA     BYTE      IPL1
      000000DDH   SFRSYM    DATA     BYTE      PU_PA
      000000AFH   SFRSYM    DATA     BYTE      SCAN_START
      000000F4H   SFRSYM    DATA     BYTE      IPL2
      000000DEH   SFRSYM    DATA     BYTE      PU_PB
      000000D7H   SFRSYM    DATA     BYTE      RST_STAT
      0000008EH   SFRSYM    DATA     BYTE      SOFT_RST
      000000DFH   SFRSYM    DATA     BYTE      PU_PC
      000000E2H   SFRSYM    DATA     BYTE      PU_PD
      000000D1H   SFRSYM    DATA     BYTE      PULL_I_SELA_L
      000000B6H   SFRSYM    DATA     BYTE      ADCCKC
      000000D0H.7 SFRSYM    DATA     BIT       CY
      00000086H   SFRSYM    DATA     BYTE      INT_POBO_STAT
      000000C0H.0 SFRSYM    DATA     BIT       UART0_P
      000000EEH   SFRSYM    DATA     BYTE      COM_IO_SEL
      000000C8H.0 SFRSYM    DATA     BIT       UART1_P
      000000E3H   SFRSYM    DATA     BYTE      IICADD
      000000BDH   SFRSYM    DATA     BYTE      UART0_BDL
      000000B4H   SFRSYM    DATA     BYTE      ADC_SPT
      000000C5H   SFRSYM    DATA     BYTE      UART1_BDL
      00000081H   SFRSYM    DATA     BYTE      SP
      000000D0H.2 SFRSYM    DATA     BIT       OV
      000000A3H   SFRSYM    DATA     BYTE      PWM0_CH_CTRL
      000000BBH   SFRSYM    DATA     BYTE      ADC_CFG1
      00000094H   SFRSYM    DATA     BYTE      TIMER2_SET_H
      000000C1H   SFRSYM    DATA     BYTE      UART0_BUF
      000000BCH   SFRSYM    DATA     BYTE      ADC_CFG2
      000000C9H   SFRSYM    DATA     BYTE      UART1_BUF
      000000F1H   SFRSYM    DATA     BYTE      IRCON1
      000000E1H   SFRSYM    DATA     BYTE      IRCON2
      00000095H   SFRSYM    DATA     BYTE      TIMER2_SET_L
      000000A5H   SFRSYM    DATA     BYTE      PWM0_CH0_CNT_H
      000000A7H   SFRSYM    DATA     BYTE      PWM0_CH1_CNT_H
      00000087H   SFRSYM    DATA     BYTE      PCON
      000000F9H   SFRSYM    DATA     BYTE      SPROG_ADDR_H
      000000B3H   SFRSYM    DATA     BYTE      LED_DRIVE
      000000AAH   SFRSYM    DATA     BYTE      PWM0_CH2_CNT_H
      000000EFH   SFRSYM    DATA     BYTE      ODRAIN_EN
      000000ACH   SFRSYM    DATA     BYTE      PWM0_CH3_CNT_H
      000000E4H   SFRSYM    DATA     BYTE      IICBUF
      000000A4H   SFRSYM    DATA     BYTE      PWM0_CH0_CNT_L
      000000A6H   SFRSYM    DATA     BYTE      PWM0_CH1_CNT_L
      00000089H   SFRSYM    DATA     BYTE      TMOD
      00000088H   SFRSYM    DATA     BYTE      TCON
      000000FAH   SFRSYM    DATA     BYTE      SPROG_ADDR_L
      000000A9H   SFRSYM    DATA     BYTE      PWM0_CH2_CNT_L
      000000E8H.0 SFRSYM    DATA     BIT       IIC_RECOV
      000000E5H   SFRSYM    DATA     BYTE      IICCON
      000000ABH   SFRSYM    DATA     BYTE      PWM0_CH3_CNT_L
      000000D9H   SFRSYM    DATA     BYTE      ADC_IO_SEL1
      000000DAH   SFRSYM    DATA     BYTE      ADC_IO_SEL2
      000000DBH   SFRSYM    DATA     BYTE      ADC_IO_SEL3
      000000E8H.4 SFRSYM    DATA     BIT       IIC_AD
      000000DCH   SFRSYM    DATA     BYTE      ADC_IO_SEL4
LX51 LINKER/LOCATER V4.66.97.0                                                        05/09/2023  16:57:25  PAGE 24


      000000E8H.3 SFRSYM    DATA     BIT       IIC_BF
      00000088H.1 SFRSYM    DATA     BIT       IE0
      00000088H.3 SFRSYM    DATA     BIT       IE1
      000000C4H   SFRSYM    DATA     BYTE      LED_IO_START
      000000F8H.0 SFRSYM    DATA     BIT       PA0
      000000F0H   SFRSYM    DATA     BYTE      B
      00000080H.0 SFRSYM    DATA     BIT       PB0
      000000F8H.1 SFRSYM    DATA     BIT       PA1
      000000FCH   SFRSYM    DATA     BYTE      SPROG_CMD
      00000090H.0 SFRSYM    DATA     BIT       PC0
      00000080H.1 SFRSYM    DATA     BIT       PB1
      00000098H.0 SFRSYM    DATA     BIT       PD0
      00000090H.1 SFRSYM    DATA     BIT       PC1
      00000080H.2 SFRSYM    DATA     BIT       PB2
      00000098H.1 SFRSYM    DATA     BIT       PD1
      00000090H.2 SFRSYM    DATA     BIT       PC2
      00000080H.3 SFRSYM    DATA     BIT       PB3
      000000FEH   SFRSYM    DATA     BYTE      PD_ANA
      000000E8H.7 SFRSYM    DATA     BIT       IIC_START
      00000098H.2 SFRSYM    DATA     BIT       PD2
      00000090H.3 SFRSYM    DATA     BIT       PC3
      00000080H.4 SFRSYM    DATA     BIT       PB4
      00000098H.3 SFRSYM    DATA     BIT       PD3
      00000090H.4 SFRSYM    DATA     BIT       PC4
      00000080H.5 SFRSYM    DATA     BIT       PB5
      000000E0H   SFRSYM    DATA     BYTE      ACC
      00000098H.4 SFRSYM    DATA     BIT       PD4
      00000090H.5 SFRSYM    DATA     BIT       PC5
      00000080H.6 SFRSYM    DATA     BIT       PB6
      000000A8H.1 SFRSYM    DATA     BIT       ET0
      00000098H.5 SFRSYM    DATA     BIT       PD5
      00000090H.6 SFRSYM    DATA     BIT       PC6
      00000080H.7 SFRSYM    DATA     BIT       PB7
      000000A8H.3 SFRSYM    DATA     BIT       ET1
      00000098H.6 SFRSYM    DATA     BIT       PD6
      00000090H.7 SFRSYM    DATA     BIT       PC7
      00000088H.5 SFRSYM    DATA     BIT       TF0
      000000C0H.3 SFRSYM    DATA     BIT       RI0
      00000098H.7 SFRSYM    DATA     BIT       PD7
      00000088H.7 SFRSYM    DATA     BIT       TF1
      000000CAH   SFRSYM    DATA     BYTE      CSD_START
      000000C8H.3 SFRSYM    DATA     BIT       RI1
      0000008CH   SFRSYM    DATA     BYTE      TH0
      000000C0H.4 SFRSYM    DATA     BIT       TI0
      000000A8H.0 SFRSYM    DATA     BIT       EX0
      000000C2H   SFRSYM    DATA     BYTE      UART_IO_CTRL
      0000008DH   SFRSYM    DATA     BYTE      TH1
      000000C8H.4 SFRSYM    DATA     BIT       TI1
      000000A8H.2 SFRSYM    DATA     BIT       EX1
      000000D0H.0 SFRSYM    DATA     BIT       P
      0000008AH   SFRSYM    DATA     BYTE      TL0
      000000C0H   SFRSYM    DATA     BYTE      UART0_STATE
      0000008BH   SFRSYM    DATA     BYTE      TL1
      000000C8H   SFRSYM    DATA     BYTE      UART1_STATE
      000000FFH   SFRSYM    DATA     BYTE      BOR_LVDT_VTH
      000000B8H.1 SFRSYM    DATA     BIT       PT0
      000000D0H.3 SFRSYM    DATA     BIT       RS0
      000000B8H.3 SFRSYM    DATA     BIT       PT1
      000000B0H   SFRSYM    DATA     BYTE      DP_CON
      000000D0H.4 SFRSYM    DATA     BIT       RS1
      00000088H.4 SFRSYM    DATA     BIT       TR0
      00000088H.6 SFRSYM    DATA     BIT       TR1
      000000D2H   SFRSYM    DATA     BYTE      SNS_ANA_CFG
      000000C0H.6 SFRSYM    DATA     BIT       UART0_R8
      000000B8H.0 SFRSYM    DATA     BIT       PX0
LX51 LINKER/LOCATER V4.66.97.0                                                        05/09/2023  16:57:25  PAGE 25


      000000FDH   SFRSYM    DATA     BYTE      SPROG_TIM
      000000C8H.6 SFRSYM    DATA     BIT       UART1_R8
      000000B8H.2 SFRSYM    DATA     BIT       PX1
      000000C0H.5 SFRSYM    DATA     BIT       UART0_T8
      00000097H   SFRSYM    DATA     BYTE      REG_DATA
      000000C8H.5 SFRSYM    DATA     BIT       UART1_T8
      00000096H   SFRSYM    DATA     BYTE      REG_ADDR
      000000F8H   SFRSYM    DATA     BYTE      DATAA
      00000083H   SFRSYM    DATA     BYTE      DPH
      00000080H   SFRSYM    DATA     BYTE      DATAB
      000000CBH   SFRSYM    DATA     BYTE      SNS_SCAN_CFG1
      00000090H   SFRSYM    DATA     BYTE      DATAC
      000000E8H.5 SFRSYM    DATA     BIT       IIC_RW
      000000CCH   SFRSYM    DATA     BYTE      SNS_SCAN_CFG2
      000000B9H   SFRSYM    DATA     BYTE      ADC_RDATAH
      00000098H   SFRSYM    DATA     BYTE      DATAD
      000000CDH   SFRSYM    DATA     BYTE      SNS_SCAN_CFG3
      000000BEH   SFRSYM    DATA     BYTE      UART0_CON1
      00000082H   SFRSYM    DATA     BYTE      DPL
      000000C6H   SFRSYM    DATA     BYTE      UART1_CON1
      000000BFH   SFRSYM    DATA     BYTE      UART0_CON2
      000000C7H   SFRSYM    DATA     BYTE      UART1_CON2
      000000BAH   SFRSYM    DATA     BYTE      ADC_RDATAL
      00000092H   SFRSYM    DATA     BYTE      WDT_EN
      000000D3H   SFRSYM    DATA     BYTE      SNS_IO_SEL1
      000000D4H   SFRSYM    DATA     BYTE      SNS_IO_SEL2
      000000D5H   SFRSYM    DATA     BYTE      SNS_IO_SEL3
      00000093H   SFRSYM    DATA     BYTE      TIMER2_CFG
      000000D6H   SFRSYM    DATA     BYTE      SNS_IO_SEL4
      000000A2H   SFRSYM    DATA     BYTE      PWM_EN
      000000B2H   SFRSYM    DATA     BYTE      LED2_WIDTH
      000000E8H.1 SFRSYM    DATA     BIT       IIC_WCOL
      00000084H   SFRSYM    DATA     BYTE      SYS_CLK_CFG
      000000C0H.2 SFRSYM    DATA     BIT       UART0_RO
      000000C8H.2 SFRSYM    DATA     BIT       UART1_RO
      000000D0H.5 SFRSYM    DATA     BIT       F0
      000000D0H.1 SFRSYM    DATA     BIT       F1
      0000009CH   SFRSYM    DATA     BYTE      PWM1_H_H
      000000A1H   SFRSYM    DATA     BYTE      PWM2_H_H
      000000D0H   SFRSYM    DATA     BYTE      PSW
      0000009BH   SFRSYM    DATA     BYTE      PWM1_H_L
      0000009AH   SFRSYM    DATA     BYTE      PWM1_L_H
      0000009FH   SFRSYM    DATA     BYTE      PWM2_H_L
      0000009EH   SFRSYM    DATA     BYTE      PWM2_L_H
      000000E8H.6 SFRSYM    DATA     BIT       IIC_STOP

      ---         MODULE    ---      ---       XS16TK06X_LVDT
      0200011DH   PUBLIC    XDATA    WORD      Low_Volotage_Flag_Confirm_count
      00000025H.4 PUBLIC    BIT      BIT       Low_Volotage_Flag_Confirm
      00000025H.3 PUBLIC    BIT      BIT       low_power
      00000025H.2 PUBLIC    BIT      BIT       Low_Volotage_Flag
      0200011BH   PUBLIC    XDATA    WORD      Low_Volotage_Flag_Count
      00000025H.1 PUBLIC    BIT      BIT       Low_Volotage_Flag_First
      01002FB8H   PUBLIC    CODE     ---       LVDT_ISR
      01003228H   PUBLIC    CODE     ---       LVDT_Init
      000000C3H   SFRSYM    DATA     BYTE      UART_IO_CTRL1
      00000099H   SFRSYM    DATA     BYTE      PWM1_L_L
      000000F7H   SFRSYM    DATA     BYTE      EXT_INT_CON
      0000009DH   SFRSYM    DATA     BYTE      PWM2_L_L
      00000085H   SFRSYM    DATA     BYTE      INT_PE_STAT
      000000B5H   SFRSYM    DATA     BYTE      ADC_SCAN_CFG
      000000A0H   SFRSYM    DATA     BYTE      P2_XH
      000000D0H.6 SFRSYM    DATA     BIT       AC
      000000EAH   SFRSYM    DATA     BYTE      TRISA
      000000E8H.2 SFRSYM    DATA     BIT       IIC_ACK
LX51 LINKER/LOCATER V4.66.97.0                                                        05/09/2023  16:57:25  PAGE 26


      000000A8H.7 SFRSYM    DATA     BIT       EA
      000000EBH   SFRSYM    DATA     BYTE      TRISB
      000000ECH   SFRSYM    DATA     BYTE      TRISC
      000000D8H   SFRSYM    DATA     BYTE      PD_PB
      00000091H   SFRSYM    DATA     BYTE      WDT_CTRL
      000000EDH   SFRSYM    DATA     BYTE      TRISD
      000000FBH   SFRSYM    DATA     BYTE      SPROG_DATA
      000000F2H   SFRSYM    DATA     BYTE      PERIPH_IO_SEL
      000000B1H   SFRSYM    DATA     BYTE      SCAN_WIDTH
      000000CFH   SFRSYM    DATA     BYTE      CSD_RAWDATAH
      000000A8H   SFRSYM    DATA     BYTE      IEN0
      000000E6H   SFRSYM    DATA     BYTE      IEN1
      000000E7H   SFRSYM    DATA     BYTE      IEN2
      000000CEH   SFRSYM    DATA     BYTE      CSD_RAWDATAL
      000000AEH   SFRSYM    DATA     BYTE      PWM0_MOD_H
      000000E9H   SFRSYM    DATA     BYTE      IICBUFFER
      000000ADH   SFRSYM    DATA     BYTE      PWM0_MOD_L
      000000C0H.1 SFRSYM    DATA     BIT       UART0_F
      000000E8H   SFRSYM    DATA     BYTE      IICSTAT
      000000C8H.1 SFRSYM    DATA     BIT       UART1_F
      000000B8H   SFRSYM    DATA     BYTE      IPL0
      000000F6H   SFRSYM    DATA     BYTE      IPL1
      000000DDH   SFRSYM    DATA     BYTE      PU_PA
      000000AFH   SFRSYM    DATA     BYTE      SCAN_START
      000000F4H   SFRSYM    DATA     BYTE      IPL2
      000000DEH   SFRSYM    DATA     BYTE      PU_PB
      000000D7H   SFRSYM    DATA     BYTE      RST_STAT
      0000008EH   SFRSYM    DATA     BYTE      SOFT_RST
      000000DFH   SFRSYM    DATA     BYTE      PU_PC
      000000E2H   SFRSYM    DATA     BYTE      PU_PD
      000000D1H   SFRSYM    DATA     BYTE      PULL_I_SELA_L
      000000B6H   SFRSYM    DATA     BYTE      ADCCKC
      000000D0H.7 SFRSYM    DATA     BIT       CY
      00000086H   SFRSYM    DATA     BYTE      INT_POBO_STAT
      000000C0H.0 SFRSYM    DATA     BIT       UART0_P
      000000EEH   SFRSYM    DATA     BYTE      COM_IO_SEL
      000000C8H.0 SFRSYM    DATA     BIT       UART1_P
      000000E3H   SFRSYM    DATA     BYTE      IICADD
      000000BDH   SFRSYM    DATA     BYTE      UART0_BDL
      000000B4H   SFRSYM    DATA     BYTE      ADC_SPT
      000000C5H   SFRSYM    DATA     BYTE      UART1_BDL
      00000081H   SFRSYM    DATA     BYTE      SP
      000000D0H.2 SFRSYM    DATA     BIT       OV
      000000A3H   SFRSYM    DATA     BYTE      PWM0_CH_CTRL
      000000BBH   SFRSYM    DATA     BYTE      ADC_CFG1
      00000094H   SFRSYM    DATA     BYTE      TIMER2_SET_H
      000000C1H   SFRSYM    DATA     BYTE      UART0_BUF
      000000BCH   SFRSYM    DATA     BYTE      ADC_CFG2
      000000C9H   SFRSYM    DATA     BYTE      UART1_BUF
      000000F1H   SFRSYM    DATA     BYTE      IRCON1
      000000E1H   SFRSYM    DATA     BYTE      IRCON2
      00000095H   SFRSYM    DATA     BYTE      TIMER2_SET_L
      000000A5H   SFRSYM    DATA     BYTE      PWM0_CH0_CNT_H
      000000A7H   SFRSYM    DATA     BYTE      PWM0_CH1_CNT_H
      00000087H   SFRSYM    DATA     BYTE      PCON
      000000F9H   SFRSYM    DATA     BYTE      SPROG_ADDR_H
      000000B3H   SFRSYM    DATA     BYTE      LED_DRIVE
      000000AAH   SFRSYM    DATA     BYTE      PWM0_CH2_CNT_H
      000000EFH   SFRSYM    DATA     BYTE      ODRAIN_EN
      000000ACH   SFRSYM    DATA     BYTE      PWM0_CH3_CNT_H
      000000E4H   SFRSYM    DATA     BYTE      IICBUF
      000000A4H   SFRSYM    DATA     BYTE      PWM0_CH0_CNT_L
      000000A6H   SFRSYM    DATA     BYTE      PWM0_CH1_CNT_L
      00000089H   SFRSYM    DATA     BYTE      TMOD
      00000088H   SFRSYM    DATA     BYTE      TCON
LX51 LINKER/LOCATER V4.66.97.0                                                        05/09/2023  16:57:25  PAGE 27


      000000FAH   SFRSYM    DATA     BYTE      SPROG_ADDR_L
      000000A9H   SFRSYM    DATA     BYTE      PWM0_CH2_CNT_L
      000000E8H.0 SFRSYM    DATA     BIT       IIC_RECOV
      000000E5H   SFRSYM    DATA     BYTE      IICCON
      000000ABH   SFRSYM    DATA     BYTE      PWM0_CH3_CNT_L
      000000D9H   SFRSYM    DATA     BYTE      ADC_IO_SEL1
      000000DAH   SFRSYM    DATA     BYTE      ADC_IO_SEL2
      000000DBH   SFRSYM    DATA     BYTE      ADC_IO_SEL3
      000000E8H.4 SFRSYM    DATA     BIT       IIC_AD
      000000DCH   SFRSYM    DATA     BYTE      ADC_IO_SEL4
      000000E8H.3 SFRSYM    DATA     BIT       IIC_BF
      00000088H.1 SFRSYM    DATA     BIT       IE0
      00000088H.3 SFRSYM    DATA     BIT       IE1
      000000C4H   SFRSYM    DATA     BYTE      LED_IO_START
      000000F8H.0 SFRSYM    DATA     BIT       PA0
      000000F0H   SFRSYM    DATA     BYTE      B
      00000080H.0 SFRSYM    DATA     BIT       PB0
      000000F8H.1 SFRSYM    DATA     BIT       PA1
      000000FCH   SFRSYM    DATA     BYTE      SPROG_CMD
      00000090H.0 SFRSYM    DATA     BIT       PC0
      00000080H.1 SFRSYM    DATA     BIT       PB1
      00000098H.0 SFRSYM    DATA     BIT       PD0
      00000090H.1 SFRSYM    DATA     BIT       PC1
      00000080H.2 SFRSYM    DATA     BIT       PB2
      00000098H.1 SFRSYM    DATA     BIT       PD1
      00000090H.2 SFRSYM    DATA     BIT       PC2
      00000080H.3 SFRSYM    DATA     BIT       PB3
      000000FEH   SFRSYM    DATA     BYTE      PD_ANA
      000000E8H.7 SFRSYM    DATA     BIT       IIC_START
      00000098H.2 SFRSYM    DATA     BIT       PD2
      00000090H.3 SFRSYM    DATA     BIT       PC3
      00000080H.4 SFRSYM    DATA     BIT       PB4
      00000098H.3 SFRSYM    DATA     BIT       PD3
      00000090H.4 SFRSYM    DATA     BIT       PC4
      00000080H.5 SFRSYM    DATA     BIT       PB5
      000000E0H   SFRSYM    DATA     BYTE      ACC
      00000098H.4 SFRSYM    DATA     BIT       PD4
      00000090H.5 SFRSYM    DATA     BIT       PC5
      00000080H.6 SFRSYM    DATA     BIT       PB6
      000000A8H.1 SFRSYM    DATA     BIT       ET0
      00000098H.5 SFRSYM    DATA     BIT       PD5
      00000090H.6 SFRSYM    DATA     BIT       PC6
      00000080H.7 SFRSYM    DATA     BIT       PB7
      000000A8H.3 SFRSYM    DATA     BIT       ET1
      00000098H.6 SFRSYM    DATA     BIT       PD6
      00000090H.7 SFRSYM    DATA     BIT       PC7
      00000088H.5 SFRSYM    DATA     BIT       TF0
      000000C0H.3 SFRSYM    DATA     BIT       RI0
      00000098H.7 SFRSYM    DATA     BIT       PD7
      00000088H.7 SFRSYM    DATA     BIT       TF1
      000000CAH   SFRSYM    DATA     BYTE      CSD_START
      000000C8H.3 SFRSYM    DATA     BIT       RI1
      0000008CH   SFRSYM    DATA     BYTE      TH0
      000000C0H.4 SFRSYM    DATA     BIT       TI0
      000000A8H.0 SFRSYM    DATA     BIT       EX0
      000000C2H   SFRSYM    DATA     BYTE      UART_IO_CTRL
      0000008DH   SFRSYM    DATA     BYTE      TH1
      000000C8H.4 SFRSYM    DATA     BIT       TI1
      000000A8H.2 SFRSYM    DATA     BIT       EX1
      000000D0H.0 SFRSYM    DATA     BIT       P
      0000008AH   SFRSYM    DATA     BYTE      TL0
      000000C0H   SFRSYM    DATA     BYTE      UART0_STATE
      0000008BH   SFRSYM    DATA     BYTE      TL1
      000000C8H   SFRSYM    DATA     BYTE      UART1_STATE
      000000FFH   SFRSYM    DATA     BYTE      BOR_LVDT_VTH
LX51 LINKER/LOCATER V4.66.97.0                                                        05/09/2023  16:57:25  PAGE 28


      000000B8H.1 SFRSYM    DATA     BIT       PT0
      000000D0H.3 SFRSYM    DATA     BIT       RS0
      000000B8H.3 SFRSYM    DATA     BIT       PT1
      000000B0H   SFRSYM    DATA     BYTE      DP_CON
      000000D0H.4 SFRSYM    DATA     BIT       RS1
      00000088H.4 SFRSYM    DATA     BIT       TR0
      00000088H.6 SFRSYM    DATA     BIT       TR1
      000000D2H   SFRSYM    DATA     BYTE      SNS_ANA_CFG
      000000C0H.6 SFRSYM    DATA     BIT       UART0_R8
      000000B8H.0 SFRSYM    DATA     BIT       PX0
      000000FDH   SFRSYM    DATA     BYTE      SPROG_TIM
      000000C8H.6 SFRSYM    DATA     BIT       UART1_R8
      000000B8H.2 SFRSYM    DATA     BIT       PX1
      000000C0H.5 SFRSYM    DATA     BIT       UART0_T8
      00000097H   SFRSYM    DATA     BYTE      REG_DATA
      000000C8H.5 SFRSYM    DATA     BIT       UART1_T8
      00000096H   SFRSYM    DATA     BYTE      REG_ADDR
      000000F8H   SFRSYM    DATA     BYTE      DATAA
      00000083H   SFRSYM    DATA     BYTE      DPH
      00000080H   SFRSYM    DATA     BYTE      DATAB
      000000CBH   SFRSYM    DATA     BYTE      SNS_SCAN_CFG1
      00000090H   SFRSYM    DATA     BYTE      DATAC
      000000E8H.5 SFRSYM    DATA     BIT       IIC_RW
      000000CCH   SFRSYM    DATA     BYTE      SNS_SCAN_CFG2
      000000B9H   SFRSYM    DATA     BYTE      ADC_RDATAH
      00000098H   SFRSYM    DATA     BYTE      DATAD
      000000CDH   SFRSYM    DATA     BYTE      SNS_SCAN_CFG3
      000000BEH   SFRSYM    DATA     BYTE      UART0_CON1
      00000082H   SFRSYM    DATA     BYTE      DPL
      000000C6H   SFRSYM    DATA     BYTE      UART1_CON1
      000000BFH   SFRSYM    DATA     BYTE      UART0_CON2
      000000C7H   SFRSYM    DATA     BYTE      UART1_CON2
      000000BAH   SFRSYM    DATA     BYTE      ADC_RDATAL
      00000092H   SFRSYM    DATA     BYTE      WDT_EN
      000000D3H   SFRSYM    DATA     BYTE      SNS_IO_SEL1
      000000D4H   SFRSYM    DATA     BYTE      SNS_IO_SEL2
      000000D5H   SFRSYM    DATA     BYTE      SNS_IO_SEL3
      00000093H   SFRSYM    DATA     BYTE      TIMER2_CFG
      000000D6H   SFRSYM    DATA     BYTE      SNS_IO_SEL4
      000000A2H   SFRSYM    DATA     BYTE      PWM_EN
      000000B2H   SFRSYM    DATA     BYTE      LED2_WIDTH
      000000E8H.1 SFRSYM    DATA     BIT       IIC_WCOL
      00000084H   SFRSYM    DATA     BYTE      SYS_CLK_CFG
      000000C0H.2 SFRSYM    DATA     BIT       UART0_RO
      000000C8H.2 SFRSYM    DATA     BIT       UART1_RO
      000000D0H.5 SFRSYM    DATA     BIT       F0
      000000D0H.1 SFRSYM    DATA     BIT       F1
      0000009CH   SFRSYM    DATA     BYTE      PWM1_H_H
      000000A1H   SFRSYM    DATA     BYTE      PWM2_H_H
      000000D0H   SFRSYM    DATA     BYTE      PSW
      0000009BH   SFRSYM    DATA     BYTE      PWM1_H_L
      0000009AH   SFRSYM    DATA     BYTE      PWM1_L_H
      0000009FH   SFRSYM    DATA     BYTE      PWM2_H_L
      0000009EH   SFRSYM    DATA     BYTE      PWM2_L_H
      000000E8H.6 SFRSYM    DATA     BIT       IIC_STOP

      01003228H   BLOCK     CODE     ---       LVL=0
      01003228H   LINE      CODE     ---       #23
      01003228H   LINE      CODE     ---       #24
      01003228H   LINE      CODE     ---       #25
      0100322AH   LINE      CODE     ---       #26
      0100322DH   LINE      CODE     ---       #27
      01003230H   LINE      CODE     ---       #28
      01003233H   LINE      CODE     ---       #29
      01003236H   LINE      CODE     ---       #31
LX51 LINKER/LOCATER V4.66.97.0                                                        05/09/2023  16:57:25  PAGE 29


      01003239H   LINE      CODE     ---       #32
      0100323FH   LINE      CODE     ---       #34
      01003242H   LINE      CODE     ---       #35
      01003244H   LINE      CODE     ---       #36
      ---         BLOCKEND  ---      ---       LVL=0

      01002FB8H   BLOCK     CODE     ---       LVL=0
      01002FB8H   LINE      CODE     ---       #45
      01002FBEH   LINE      CODE     ---       #47
      01002FC1H   LINE      CODE     ---       #48
      01002FC6H   LINE      CODE     ---       #49
      01002FC6H   LINE      CODE     ---       #50
      01002FC8H   LINE      CODE     ---       #51
      01002FCAH   LINE      CODE     ---       #52
      01002FCDH   LINE      CODE     ---       #61
      01002FCDH   LINE      CODE     ---       #62
      01002FD2H   LINE      CODE     ---       #63
      01002FD2H   LINE      CODE     ---       #64
      01002FD5H   LINE      CODE     ---       #65
      01002FD7H   LINE      CODE     ---       #66
      01002FD9H   LINE      CODE     ---       #67
      01002FDBH   LINE      CODE     ---       #68
      01002FE2H   LINE      CODE     ---       #73
      01002FE2H   LINE      CODE     ---       #75
      ---         BLOCKEND  ---      ---       LVL=0

      ---         MODULE    ---      ---       XS16TK06X_TIMER
      02000121H   PUBLIC    XDATA    WORD      ctk_soft_reset_count
      0200011FH   PUBLIC    XDATA    WORD      ctk_soft_reset_max_count
      0000001AH   PUBLIC    DATA     BYTE      TL1_Reload
      00000019H   PUBLIC    DATA     BYTE      TL0_Reload
      00000018H   PUBLIC    DATA     BYTE      TH1_Reload
      00000017H   PUBLIC    DATA     BYTE      TH0_Reload
      010030A1H   PUBLIC    CODE     ---       Reset_Cnt_Add
      01003261H   PUBLIC    CODE     ---       Timer2_WDT_ISR
      01002C8CH   PUBLIC    CODE     ---       Timer1_ISR
      010031ECH   PUBLIC    CODE     ---       _Timer1_Init
      01001F7EH   PUBLIC    CODE     ---       Timer0_ISR
      0100279CH   PUBLIC    CODE     ---       _Timer0_Init
      000000C3H   SFRSYM    DATA     BYTE      UART_IO_CTRL1
      00000099H   SFRSYM    DATA     BYTE      PWM1_L_L
      000000F7H   SFRSYM    DATA     BYTE      EXT_INT_CON
      0000009DH   SFRSYM    DATA     BYTE      PWM2_L_L
      00000085H   SFRSYM    DATA     BYTE      INT_PE_STAT
      000000B5H   SFRSYM    DATA     BYTE      ADC_SCAN_CFG
      000000A0H   SFRSYM    DATA     BYTE      P2_XH
      000000D0H.6 SFRSYM    DATA     BIT       AC
      000000EAH   SFRSYM    DATA     BYTE      TRISA
      000000E8H.2 SFRSYM    DATA     BIT       IIC_ACK
      000000A8H.7 SFRSYM    DATA     BIT       EA
      000000EBH   SFRSYM    DATA     BYTE      TRISB
      000000ECH   SFRSYM    DATA     BYTE      TRISC
      000000D8H   SFRSYM    DATA     BYTE      PD_PB
      00000091H   SFRSYM    DATA     BYTE      WDT_CTRL
      000000EDH   SFRSYM    DATA     BYTE      TRISD
      000000FBH   SFRSYM    DATA     BYTE      SPROG_DATA
      000000F2H   SFRSYM    DATA     BYTE      PERIPH_IO_SEL
      000000B1H   SFRSYM    DATA     BYTE      SCAN_WIDTH
      000000CFH   SFRSYM    DATA     BYTE      CSD_RAWDATAH
      000000A8H   SFRSYM    DATA     BYTE      IEN0
      000000E6H   SFRSYM    DATA     BYTE      IEN1
      000000E7H   SFRSYM    DATA     BYTE      IEN2
      000000CEH   SFRSYM    DATA     BYTE      CSD_RAWDATAL
      000000AEH   SFRSYM    DATA     BYTE      PWM0_MOD_H
      000000E9H   SFRSYM    DATA     BYTE      IICBUFFER
LX51 LINKER/LOCATER V4.66.97.0                                                        05/09/2023  16:57:25  PAGE 30


      000000ADH   SFRSYM    DATA     BYTE      PWM0_MOD_L
      000000C0H.1 SFRSYM    DATA     BIT       UART0_F
      000000E8H   SFRSYM    DATA     BYTE      IICSTAT
      000000C8H.1 SFRSYM    DATA     BIT       UART1_F
      000000B8H   SFRSYM    DATA     BYTE      IPL0
      000000F6H   SFRSYM    DATA     BYTE      IPL1
      000000DDH   SFRSYM    DATA     BYTE      PU_PA
      000000AFH   SFRSYM    DATA     BYTE      SCAN_START
      000000F4H   SFRSYM    DATA     BYTE      IPL2
      000000DEH   SFRSYM    DATA     BYTE      PU_PB
      000000D7H   SFRSYM    DATA     BYTE      RST_STAT
      0000008EH   SFRSYM    DATA     BYTE      SOFT_RST
      000000DFH   SFRSYM    DATA     BYTE      PU_PC
      000000E2H   SFRSYM    DATA     BYTE      PU_PD
      000000D1H   SFRSYM    DATA     BYTE      PULL_I_SELA_L
      000000B6H   SFRSYM    DATA     BYTE      ADCCKC
      000000D0H.7 SFRSYM    DATA     BIT       CY
      00000086H   SFRSYM    DATA     BYTE      INT_POBO_STAT
      000000C0H.0 SFRSYM    DATA     BIT       UART0_P
      000000EEH   SFRSYM    DATA     BYTE      COM_IO_SEL
      000000C8H.0 SFRSYM    DATA     BIT       UART1_P
      000000E3H   SFRSYM    DATA     BYTE      IICADD
      000000BDH   SFRSYM    DATA     BYTE      UART0_BDL
      000000B4H   SFRSYM    DATA     BYTE      ADC_SPT
      000000C5H   SFRSYM    DATA     BYTE      UART1_BDL
      00000081H   SFRSYM    DATA     BYTE      SP
      000000D0H.2 SFRSYM    DATA     BIT       OV
      000000A3H   SFRSYM    DATA     BYTE      PWM0_CH_CTRL
      000000BBH   SFRSYM    DATA     BYTE      ADC_CFG1
      00000094H   SFRSYM    DATA     BYTE      TIMER2_SET_H
      000000C1H   SFRSYM    DATA     BYTE      UART0_BUF
      000000BCH   SFRSYM    DATA     BYTE      ADC_CFG2
      000000C9H   SFRSYM    DATA     BYTE      UART1_BUF
      000000F1H   SFRSYM    DATA     BYTE      IRCON1
      000000E1H   SFRSYM    DATA     BYTE      IRCON2
      00000095H   SFRSYM    DATA     BYTE      TIMER2_SET_L
      000000A5H   SFRSYM    DATA     BYTE      PWM0_CH0_CNT_H
      000000A7H   SFRSYM    DATA     BYTE      PWM0_CH1_CNT_H
      00000087H   SFRSYM    DATA     BYTE      PCON
      000000F9H   SFRSYM    DATA     BYTE      SPROG_ADDR_H
      000000B3H   SFRSYM    DATA     BYTE      LED_DRIVE
      000000AAH   SFRSYM    DATA     BYTE      PWM0_CH2_CNT_H
      000000EFH   SFRSYM    DATA     BYTE      ODRAIN_EN
      000000ACH   SFRSYM    DATA     BYTE      PWM0_CH3_CNT_H
      000000E4H   SFRSYM    DATA     BYTE      IICBUF
      000000A4H   SFRSYM    DATA     BYTE      PWM0_CH0_CNT_L
      000000A6H   SFRSYM    DATA     BYTE      PWM0_CH1_CNT_L
      00000089H   SFRSYM    DATA     BYTE      TMOD
      00000088H   SFRSYM    DATA     BYTE      TCON
      000000FAH   SFRSYM    DATA     BYTE      SPROG_ADDR_L
      000000A9H   SFRSYM    DATA     BYTE      PWM0_CH2_CNT_L
      000000E8H.0 SFRSYM    DATA     BIT       IIC_RECOV
      000000E5H   SFRSYM    DATA     BYTE      IICCON
      000000ABH   SFRSYM    DATA     BYTE      PWM0_CH3_CNT_L
      000000D9H   SFRSYM    DATA     BYTE      ADC_IO_SEL1
      000000DAH   SFRSYM    DATA     BYTE      ADC_IO_SEL2
      000000DBH   SFRSYM    DATA     BYTE      ADC_IO_SEL3
      000000E8H.4 SFRSYM    DATA     BIT       IIC_AD
      000000DCH   SFRSYM    DATA     BYTE      ADC_IO_SEL4
      000000E8H.3 SFRSYM    DATA     BIT       IIC_BF
      00000088H.1 SFRSYM    DATA     BIT       IE0
      00000088H.3 SFRSYM    DATA     BIT       IE1
      000000C4H   SFRSYM    DATA     BYTE      LED_IO_START
      000000F8H.0 SFRSYM    DATA     BIT       PA0
      000000F0H   SFRSYM    DATA     BYTE      B
LX51 LINKER/LOCATER V4.66.97.0                                                        05/09/2023  16:57:25  PAGE 31


      00000080H.0 SFRSYM    DATA     BIT       PB0
      000000F8H.1 SFRSYM    DATA     BIT       PA1
      000000FCH   SFRSYM    DATA     BYTE      SPROG_CMD
      00000090H.0 SFRSYM    DATA     BIT       PC0
      00000080H.1 SFRSYM    DATA     BIT       PB1
      00000098H.0 SFRSYM    DATA     BIT       PD0
      00000090H.1 SFRSYM    DATA     BIT       PC1
      00000080H.2 SFRSYM    DATA     BIT       PB2
      00000098H.1 SFRSYM    DATA     BIT       PD1
      00000090H.2 SFRSYM    DATA     BIT       PC2
      00000080H.3 SFRSYM    DATA     BIT       PB3
      000000FEH   SFRSYM    DATA     BYTE      PD_ANA
      000000E8H.7 SFRSYM    DATA     BIT       IIC_START
      00000098H.2 SFRSYM    DATA     BIT       PD2
      00000090H.3 SFRSYM    DATA     BIT       PC3
      00000080H.4 SFRSYM    DATA     BIT       PB4
      00000098H.3 SFRSYM    DATA     BIT       PD3
      00000090H.4 SFRSYM    DATA     BIT       PC4
      00000080H.5 SFRSYM    DATA     BIT       PB5
      000000E0H   SFRSYM    DATA     BYTE      ACC
      00000098H.4 SFRSYM    DATA     BIT       PD4
      00000090H.5 SFRSYM    DATA     BIT       PC5
      00000080H.6 SFRSYM    DATA     BIT       PB6
      000000A8H.1 SFRSYM    DATA     BIT       ET0
      00000098H.5 SFRSYM    DATA     BIT       PD5
      00000090H.6 SFRSYM    DATA     BIT       PC6
      00000080H.7 SFRSYM    DATA     BIT       PB7
      000000A8H.3 SFRSYM    DATA     BIT       ET1
      00000098H.6 SFRSYM    DATA     BIT       PD6
      00000090H.7 SFRSYM    DATA     BIT       PC7
      00000088H.5 SFRSYM    DATA     BIT       TF0
      000000C0H.3 SFRSYM    DATA     BIT       RI0
      00000098H.7 SFRSYM    DATA     BIT       PD7
      00000088H.7 SFRSYM    DATA     BIT       TF1
      000000CAH   SFRSYM    DATA     BYTE      CSD_START
      000000C8H.3 SFRSYM    DATA     BIT       RI1
      0000008CH   SFRSYM    DATA     BYTE      TH0
      000000C0H.4 SFRSYM    DATA     BIT       TI0
      000000A8H.0 SFRSYM    DATA     BIT       EX0
      000000C2H   SFRSYM    DATA     BYTE      UART_IO_CTRL
      0000008DH   SFRSYM    DATA     BYTE      TH1
      000000C8H.4 SFRSYM    DATA     BIT       TI1
      000000A8H.2 SFRSYM    DATA     BIT       EX1
      000000D0H.0 SFRSYM    DATA     BIT       P
      0000008AH   SFRSYM    DATA     BYTE      TL0
      000000C0H   SFRSYM    DATA     BYTE      UART0_STATE
      0000008BH   SFRSYM    DATA     BYTE      TL1
      000000C8H   SFRSYM    DATA     BYTE      UART1_STATE
      000000FFH   SFRSYM    DATA     BYTE      BOR_LVDT_VTH
      000000B8H.1 SFRSYM    DATA     BIT       PT0
      000000D0H.3 SFRSYM    DATA     BIT       RS0
      000000B8H.3 SFRSYM    DATA     BIT       PT1
      000000B0H   SFRSYM    DATA     BYTE      DP_CON
      000000D0H.4 SFRSYM    DATA     BIT       RS1
      00000088H.4 SFRSYM    DATA     BIT       TR0
      00000088H.6 SFRSYM    DATA     BIT       TR1
      000000D2H   SFRSYM    DATA     BYTE      SNS_ANA_CFG
      000000C0H.6 SFRSYM    DATA     BIT       UART0_R8
      000000B8H.0 SFRSYM    DATA     BIT       PX0
      000000FDH   SFRSYM    DATA     BYTE      SPROG_TIM
      000000C8H.6 SFRSYM    DATA     BIT       UART1_R8
      000000B8H.2 SFRSYM    DATA     BIT       PX1
      000000C0H.5 SFRSYM    DATA     BIT       UART0_T8
      00000097H   SFRSYM    DATA     BYTE      REG_DATA
      000000C8H.5 SFRSYM    DATA     BIT       UART1_T8
LX51 LINKER/LOCATER V4.66.97.0                                                        05/09/2023  16:57:25  PAGE 32


      00000096H   SFRSYM    DATA     BYTE      REG_ADDR
      000000F8H   SFRSYM    DATA     BYTE      DATAA
      00000083H   SFRSYM    DATA     BYTE      DPH
      00000080H   SFRSYM    DATA     BYTE      DATAB
      000000CBH   SFRSYM    DATA     BYTE      SNS_SCAN_CFG1
      00000090H   SFRSYM    DATA     BYTE      DATAC
      000000E8H.5 SFRSYM    DATA     BIT       IIC_RW
      000000CCH   SFRSYM    DATA     BYTE      SNS_SCAN_CFG2
      000000B9H   SFRSYM    DATA     BYTE      ADC_RDATAH
      00000098H   SFRSYM    DATA     BYTE      DATAD
      000000CDH   SFRSYM    DATA     BYTE      SNS_SCAN_CFG3
      000000BEH   SFRSYM    DATA     BYTE      UART0_CON1
      00000082H   SFRSYM    DATA     BYTE      DPL
      000000C6H   SFRSYM    DATA     BYTE      UART1_CON1
      000000BFH   SFRSYM    DATA     BYTE      UART0_CON2
      000000C7H   SFRSYM    DATA     BYTE      UART1_CON2
      000000BAH   SFRSYM    DATA     BYTE      ADC_RDATAL
      00000092H   SFRSYM    DATA     BYTE      WDT_EN
      000000D3H   SFRSYM    DATA     BYTE      SNS_IO_SEL1
      000000D4H   SFRSYM    DATA     BYTE      SNS_IO_SEL2
      000000D5H   SFRSYM    DATA     BYTE      SNS_IO_SEL3
      00000093H   SFRSYM    DATA     BYTE      TIMER2_CFG
      000000D6H   SFRSYM    DATA     BYTE      SNS_IO_SEL4
      000000A2H   SFRSYM    DATA     BYTE      PWM_EN
      000000B2H   SFRSYM    DATA     BYTE      LED2_WIDTH
      000000E8H.1 SFRSYM    DATA     BIT       IIC_WCOL
      00000084H   SFRSYM    DATA     BYTE      SYS_CLK_CFG
      000000C0H.2 SFRSYM    DATA     BIT       UART0_RO
      000000C8H.2 SFRSYM    DATA     BIT       UART1_RO
      000000D0H.5 SFRSYM    DATA     BIT       F0
      000000D0H.1 SFRSYM    DATA     BIT       F1
      0000009CH   SFRSYM    DATA     BYTE      PWM1_H_H
      000000A1H   SFRSYM    DATA     BYTE      PWM2_H_H
      000000D0H   SFRSYM    DATA     BYTE      PSW
      0000009BH   SFRSYM    DATA     BYTE      PWM1_H_L
      0000009AH   SFRSYM    DATA     BYTE      PWM1_L_H
      0000009FH   SFRSYM    DATA     BYTE      PWM2_H_L
      0000009EH   SFRSYM    DATA     BYTE      PWM2_L_H
      000000E8H.6 SFRSYM    DATA     BIT       IIC_STOP

      0100279CH   BLOCK     CODE     ---       LVL=0
      00000027H   SYMBOL    DATA     WORD      Timer0Us
      0100279CH   LINE      CODE     ---       #45
      010027A0H   LINE      CODE     ---       #46
      010027A0H   LINE      CODE     ---       #47
      010027A2H   LINE      CODE     ---       #49
      010027A5H   LINE      CODE     ---       #50
      010027A8H   LINE      CODE     ---       #52
      010027AEH   LINE      CODE     ---       #54
      010027D0H   LINE      CODE     ---       #55
      010027E0H   LINE      CODE     ---       #58
      010027E3H   LINE      CODE     ---       #59
      010027E6H   LINE      CODE     ---       #63
      01002803H   LINE      CODE     ---       #82
      0100281CH   LINE      CODE     ---       #87
      0100281FH   LINE      CODE     ---       #88
      01002822H   LINE      CODE     ---       #89
      01002824H   LINE      CODE     ---       #90
      ---         BLOCKEND  ---      ---       LVL=0

      01001F7EH   BLOCK     CODE     ---       LVL=0
      01001F7EH   LINE      CODE     ---       #98
      01001F9BH   LINE      CODE     ---       #100
      01001FA1H   LINE      CODE     ---       #101
      01001FA7H   LINE      CODE     ---       #102
LX51 LINKER/LOCATER V4.66.97.0                                                        05/09/2023  16:57:25  PAGE 33


      01001FAAH   LINE      CODE     ---       #106
      01001FADH   LINE      CODE     ---       #107
      01001FC6H   LINE      CODE     ---       #108
      01001FC6H   LINE      CODE     ---       #109
      01001FD4H   LINE      CODE     ---       #110
      01001FD6H   LINE      CODE     ---       #112
      01001FD6H   LINE      CODE     ---       #113
      01001FDDH   LINE      CODE     ---       #114
      01001FDDH   LINE      CODE     ---       #169
      01001FE0H   LINE      CODE     ---       #178
      01001FE3H   LINE      CODE     ---       #179
      01001FE3H   LINE      CODE     ---       #180
      01001FF2H   LINE      CODE     ---       #181
      01001FF2H   LINE      CODE     ---       #182
      01001FFEH   LINE      CODE     ---       #183
      0100200DH   LINE      CODE     ---       #184
      0100200DH   LINE      CODE     ---       #185
      0100200FH   LINE      CODE     ---       #186
      01002013H   LINE      CODE     ---       #187
      01002015H   LINE      CODE     ---       #188
      01002015H   LINE      CODE     ---       #189
      01002015H   LINE      CODE     ---       #190
      01002015H   LINE      CODE     ---       #191
      01002018H   LINE      CODE     ---       #192
      01002018H   LINE      CODE     ---       #193
      01002026H   LINE      CODE     ---       #194
      01002035H   LINE      CODE     ---       #195
      01002035H   LINE      CODE     ---       #196
      01002039H   LINE      CODE     ---       #197
      0100203BH   LINE      CODE     ---       #198
      0100203DH   LINE      CODE     ---       #199
      0100203DH   LINE      CODE     ---       #200
      0100203DH   LINE      CODE     ---       #227
      ---         BLOCKEND  ---      ---       LVL=0

      010031ECH   BLOCK     CODE     ---       LVL=0
      00000006H   SYMBOL    DATA     WORD      Timer1Us
      010031ECH   LINE      CODE     ---       #239
      010031ECH   LINE      CODE     ---       #240
      010031ECH   LINE      CODE     ---       #241
      010031EEH   LINE      CODE     ---       #242
      010031F1H   LINE      CODE     ---       #243
      010031F4H   LINE      CODE     ---       #245
      010031FAH   LINE      CODE     ---       #247
      010031FFH   LINE      CODE     ---       #248
      01003201H   LINE      CODE     ---       #251
      01003204H   LINE      CODE     ---       #252
      01003207H   LINE      CODE     ---       #253
      01003209H   LINE      CODE     ---       #254
      ---         BLOCKEND  ---      ---       LVL=0

      01002C8CH   BLOCK     CODE     ---       LVL=0
      01002C8CH   LINE      CODE     ---       #262
      01002CA9H   LINE      CODE     ---       #264
      01002CACH   LINE      CODE     ---       #265
      01002CB9H   LINE      CODE     ---       #266
      01002CB9H   LINE      CODE     ---       #267
      01002CBCH   LINE      CODE     ---       #268
      01002CBEH   LINE      CODE     ---       #269
      01002CBEH   LINE      CODE     ---       #272
      01002CC1H   LINE      CODE     ---       #276
      01002CC4H   LINE      CODE     ---       #279
      01002CC7H   LINE      CODE     ---       #280
      01002CC7H   LINE      CODE     ---       #281
      01002CCAH   LINE      CODE     ---       #282
LX51 LINKER/LOCATER V4.66.97.0                                                        05/09/2023  16:57:25  PAGE 34


      01002CCAH   LINE      CODE     ---       #290
      ---         BLOCKEND  ---      ---       LVL=0

      01003261H   BLOCK     CODE     ---       LVL=0
      01003261H   LINE      CODE     ---       #357
      01003263H   LINE      CODE     ---       #359
      01003268H   LINE      CODE     ---       #360
      01003268H   LINE      CODE     ---       #361
      0100326EH   LINE      CODE     ---       #363
      0100326EH   LINE      CODE     ---       #364
      01003273H   LINE      CODE     ---       #365
      01003273H   LINE      CODE     ---       #367
      01003279H   LINE      CODE     ---       #369
      01003279H   LINE      CODE     ---       #371
      ---         BLOCKEND  ---      ---       LVL=0

      010030A1H   BLOCK     CODE     ---       LVL=0
      010030A1H   LINE      CODE     ---       #384
      010030A1H   LINE      CODE     ---       #385
      010030A1H   LINE      CODE     ---       #386
      010030AFH   LINE      CODE     ---       #388
      010030C4H   LINE      CODE     ---       #389
      010030C4H   LINE      CODE     ---       #390
      010030C8H   LINE      CODE     ---       #391
      010030CBH   LINE      CODE     ---       #392
      010030CBH   LINE      CODE     ---       #393
      ---         BLOCKEND  ---      ---       LVL=0

      ---         MODULE    ---      ---       XS16TK06X_TK
      0000004CH   PUBLIC    DATA     BYTE      sns_next
      020000B6H   PUBLIC    XDATA    ---       n_base_line
      020000B2H   PUBLIC    XDATA    ---       under_nn_noise_count
      020000AEH   PUBLIC    XDATA    DWORD     open_sns
      020000ADH   PUBLIC    XDATA    BYTE      i
      00000025H.0 PUBLIC    BIT      BIT       parallel_init_flag
      020000ACH   PUBLIC    XDATA    BYTE      multi_key_count
      020000A8H   PUBLIC    XDATA    DWORD     muli_key_flag
      00000024H.7 PUBLIC    BIT      BIT       parallel_mode
      020000A6H   PUBLIC    XDATA    WORD      long_key_clear_count
      00000024H.6 PUBLIC    BIT      BIT       ctk_para_done
      00000024H.5 PUBLIC    BIT      BIT       base_line_int_flag
      02000072H   PUBLIC    XDATA    ---       raw_data
      0200006EH   PUBLIC    XDATA    ---       touch_left_count
      0200006CH   PUBLIC    XDATA    WORD      pull_i_value_parallel
      02000068H   PUBLIC    XDATA    DWORD     keys_flag
      02000064H   PUBLIC    XDATA    ---       sensor_open
      02000030H   PUBLIC    XDATA    ---       base_line
      0200002CH   PUBLIC    XDATA    ---       pull_i_step
      02000028H   PUBLIC    XDATA    DWORD     mode_flag
      00000024H.4 PUBLIC    BIT      BIT       ctk_circle_done
      0000004BH   PUBLIC    DATA     BYTE      Sns_Count
      02000024H   PUBLIC    XDATA    ---       over_p_noise_count
      02000020H   PUBLIC    XDATA    ---       over_n_noise_count
      0200001BH   PUBLIC    XDATA    ---       n_base_line_reno_count
      00000024H.3 PUBLIC    BIT      BIT       adjust_done_flag
      02000017H   PUBLIC    XDATA    DWORD     open_sns_tem
      0200000FH   PUBLIC    XDATA    ---       pull_i_value
      0200000EH   PUBLIC    XDATA    BYTE      multi_key_reset_cnt
      0200000DH   PUBLIC    XDATA    BYTE      Mode
      02000009H   PUBLIC    XDATA    ---       touch_confirm_count
      02000008H   PUBLIC    XDATA    BYTE      sns_next_count
      02000004H   PUBLIC    XDATA    ---       under_p_noise_count
      02000000H   PUBLIC    XDATA    ---       under_n_noise_count
      010034EBH   PUBLIC    CONST    ---       PUIV
      010034B7H   PUBLIC    CONST    ---       FTH
LX51 LINKER/LOCATER V4.66.97.0                                                        05/09/2023  16:57:25  PAGE 35


      0100349DH   PUBLIC    CONST    ---       SNS
      01001199H   PUBLIC    CODE     ---       CTK_XS16TK06X_Adjust_Int
      0100007EH   PUBLIC    CODE     ---       _CTK_SNS_Renovate
      01002929H   PUBLIC    CODE     ---       _CTK_TK_Left_Count
      0100318BH   PUBLIC    CODE     ---       CTK_Long_TK_Count
      01002B70H   PUBLIC    CODE     ---       Base_Line_Init
      010022A9H   PUBLIC    CODE     ---       CTK_ISR
      01002F0BH   PUBLIC    CODE     ---       Set_Next_SNS
      01002A96H   PUBLIC    CODE     ---       XS16TK06X_Set_Touch_Flag
      01001E93H   PUBLIC    CODE     ---       CTK_Init
      0100212AH   PUBLIC    CODE     ---       CTK_Set_Para
      000000C3H   SFRSYM    DATA     BYTE      UART_IO_CTRL1
      00000099H   SFRSYM    DATA     BYTE      PWM1_L_L
      000000F7H   SFRSYM    DATA     BYTE      EXT_INT_CON
      0000009DH   SFRSYM    DATA     BYTE      PWM2_L_L
      00000085H   SFRSYM    DATA     BYTE      INT_PE_STAT
      000000B5H   SFRSYM    DATA     BYTE      ADC_SCAN_CFG
      000000A0H   SFRSYM    DATA     BYTE      P2_XH
      000000D0H.6 SFRSYM    DATA     BIT       AC
      000000EAH   SFRSYM    DATA     BYTE      TRISA
      000000E8H.2 SFRSYM    DATA     BIT       IIC_ACK
      000000A8H.7 SFRSYM    DATA     BIT       EA
      000000EBH   SFRSYM    DATA     BYTE      TRISB
      000000ECH   SFRSYM    DATA     BYTE      TRISC
      000000D8H   SFRSYM    DATA     BYTE      PD_PB
      00000091H   SFRSYM    DATA     BYTE      WDT_CTRL
      000000EDH   SFRSYM    DATA     BYTE      TRISD
      000000FBH   SFRSYM    DATA     BYTE      SPROG_DATA
      000000F2H   SFRSYM    DATA     BYTE      PERIPH_IO_SEL
      000000B1H   SFRSYM    DATA     BYTE      SCAN_WIDTH
      000000CFH   SFRSYM    DATA     BYTE      CSD_RAWDATAH
      000000A8H   SFRSYM    DATA     BYTE      IEN0
      000000E6H   SFRSYM    DATA     BYTE      IEN1
      000000E7H   SFRSYM    DATA     BYTE      IEN2
      000000CEH   SFRSYM    DATA     BYTE      CSD_RAWDATAL
      000000AEH   SFRSYM    DATA     BYTE      PWM0_MOD_H
      000000E9H   SFRSYM    DATA     BYTE      IICBUFFER
      000000ADH   SFRSYM    DATA     BYTE      PWM0_MOD_L
      000000C0H.1 SFRSYM    DATA     BIT       UART0_F
      000000E8H   SFRSYM    DATA     BYTE      IICSTAT
      000000C8H.1 SFRSYM    DATA     BIT       UART1_F
      000000B8H   SFRSYM    DATA     BYTE      IPL0
      000000F6H   SFRSYM    DATA     BYTE      IPL1
      000000DDH   SFRSYM    DATA     BYTE      PU_PA
      000000AFH   SFRSYM    DATA     BYTE      SCAN_START
      000000F4H   SFRSYM    DATA     BYTE      IPL2
      000000DEH   SFRSYM    DATA     BYTE      PU_PB
      000000D7H   SFRSYM    DATA     BYTE      RST_STAT
      0000008EH   SFRSYM    DATA     BYTE      SOFT_RST
      000000DFH   SFRSYM    DATA     BYTE      PU_PC
      000000E2H   SFRSYM    DATA     BYTE      PU_PD
      000000D1H   SFRSYM    DATA     BYTE      PULL_I_SELA_L
      000000B6H   SFRSYM    DATA     BYTE      ADCCKC
      000000D0H.7 SFRSYM    DATA     BIT       CY
      00000086H   SFRSYM    DATA     BYTE      INT_POBO_STAT
      000000C0H.0 SFRSYM    DATA     BIT       UART0_P
      000000EEH   SFRSYM    DATA     BYTE      COM_IO_SEL
      000000C8H.0 SFRSYM    DATA     BIT       UART1_P
      000000E3H   SFRSYM    DATA     BYTE      IICADD
      000000BDH   SFRSYM    DATA     BYTE      UART0_BDL
      000000B4H   SFRSYM    DATA     BYTE      ADC_SPT
      000000C5H   SFRSYM    DATA     BYTE      UART1_BDL
      00000081H   SFRSYM    DATA     BYTE      SP
      000000D0H.2 SFRSYM    DATA     BIT       OV
      000000A3H   SFRSYM    DATA     BYTE      PWM0_CH_CTRL
LX51 LINKER/LOCATER V4.66.97.0                                                        05/09/2023  16:57:25  PAGE 36


      000000BBH   SFRSYM    DATA     BYTE      ADC_CFG1
      00000094H   SFRSYM    DATA     BYTE      TIMER2_SET_H
      000000C1H   SFRSYM    DATA     BYTE      UART0_BUF
      000000BCH   SFRSYM    DATA     BYTE      ADC_CFG2
      000000C9H   SFRSYM    DATA     BYTE      UART1_BUF
      000000F1H   SFRSYM    DATA     BYTE      IRCON1
      000000E1H   SFRSYM    DATA     BYTE      IRCON2
      00000095H   SFRSYM    DATA     BYTE      TIMER2_SET_L
      000000A5H   SFRSYM    DATA     BYTE      PWM0_CH0_CNT_H
      000000A7H   SFRSYM    DATA     BYTE      PWM0_CH1_CNT_H
      00000087H   SFRSYM    DATA     BYTE      PCON
      000000F9H   SFRSYM    DATA     BYTE      SPROG_ADDR_H
      000000B3H   SFRSYM    DATA     BYTE      LED_DRIVE
      000000AAH   SFRSYM    DATA     BYTE      PWM0_CH2_CNT_H
      000000EFH   SFRSYM    DATA     BYTE      ODRAIN_EN
      000000ACH   SFRSYM    DATA     BYTE      PWM0_CH3_CNT_H
      000000E4H   SFRSYM    DATA     BYTE      IICBUF
      000000A4H   SFRSYM    DATA     BYTE      PWM0_CH0_CNT_L
      000000A6H   SFRSYM    DATA     BYTE      PWM0_CH1_CNT_L
      00000089H   SFRSYM    DATA     BYTE      TMOD
      00000088H   SFRSYM    DATA     BYTE      TCON
      000000FAH   SFRSYM    DATA     BYTE      SPROG_ADDR_L
      000000A9H   SFRSYM    DATA     BYTE      PWM0_CH2_CNT_L
      000000E8H.0 SFRSYM    DATA     BIT       IIC_RECOV
      000000E5H   SFRSYM    DATA     BYTE      IICCON
      000000ABH   SFRSYM    DATA     BYTE      PWM0_CH3_CNT_L
      000000D9H   SFRSYM    DATA     BYTE      ADC_IO_SEL1
      000000DAH   SFRSYM    DATA     BYTE      ADC_IO_SEL2
      000000DBH   SFRSYM    DATA     BYTE      ADC_IO_SEL3
      000000E8H.4 SFRSYM    DATA     BIT       IIC_AD
      000000DCH   SFRSYM    DATA     BYTE      ADC_IO_SEL4
      000000E8H.3 SFRSYM    DATA     BIT       IIC_BF
      00000088H.1 SFRSYM    DATA     BIT       IE0
      00000088H.3 SFRSYM    DATA     BIT       IE1
      000000C4H   SFRSYM    DATA     BYTE      LED_IO_START
      000000F8H.0 SFRSYM    DATA     BIT       PA0
      000000F0H   SFRSYM    DATA     BYTE      B
      00000080H.0 SFRSYM    DATA     BIT       PB0
      000000F8H.1 SFRSYM    DATA     BIT       PA1
      000000FCH   SFRSYM    DATA     BYTE      SPROG_CMD
      00000090H.0 SFRSYM    DATA     BIT       PC0
      00000080H.1 SFRSYM    DATA     BIT       PB1
      00000098H.0 SFRSYM    DATA     BIT       PD0
      00000090H.1 SFRSYM    DATA     BIT       PC1
      00000080H.2 SFRSYM    DATA     BIT       PB2
      00000098H.1 SFRSYM    DATA     BIT       PD1
      00000090H.2 SFRSYM    DATA     BIT       PC2
      00000080H.3 SFRSYM    DATA     BIT       PB3
      000000FEH   SFRSYM    DATA     BYTE      PD_ANA
      000000E8H.7 SFRSYM    DATA     BIT       IIC_START
      00000098H.2 SFRSYM    DATA     BIT       PD2
      00000090H.3 SFRSYM    DATA     BIT       PC3
      00000080H.4 SFRSYM    DATA     BIT       PB4
      00000098H.3 SFRSYM    DATA     BIT       PD3
      00000090H.4 SFRSYM    DATA     BIT       PC4
      00000080H.5 SFRSYM    DATA     BIT       PB5
      000000E0H   SFRSYM    DATA     BYTE      ACC
      00000098H.4 SFRSYM    DATA     BIT       PD4
      00000090H.5 SFRSYM    DATA     BIT       PC5
      00000080H.6 SFRSYM    DATA     BIT       PB6
      000000A8H.1 SFRSYM    DATA     BIT       ET0
      00000098H.5 SFRSYM    DATA     BIT       PD5
      00000090H.6 SFRSYM    DATA     BIT       PC6
      00000080H.7 SFRSYM    DATA     BIT       PB7
      000000A8H.3 SFRSYM    DATA     BIT       ET1
LX51 LINKER/LOCATER V4.66.97.0                                                        05/09/2023  16:57:25  PAGE 37


      00000098H.6 SFRSYM    DATA     BIT       PD6
      00000090H.7 SFRSYM    DATA     BIT       PC7
      00000088H.5 SFRSYM    DATA     BIT       TF0
      000000C0H.3 SFRSYM    DATA     BIT       RI0
      00000098H.7 SFRSYM    DATA     BIT       PD7
      00000088H.7 SFRSYM    DATA     BIT       TF1
      000000CAH   SFRSYM    DATA     BYTE      CSD_START
      000000C8H.3 SFRSYM    DATA     BIT       RI1
      0000008CH   SFRSYM    DATA     BYTE      TH0
      000000C0H.4 SFRSYM    DATA     BIT       TI0
      000000A8H.0 SFRSYM    DATA     BIT       EX0
      000000C2H   SFRSYM    DATA     BYTE      UART_IO_CTRL
      0000008DH   SFRSYM    DATA     BYTE      TH1
      000000C8H.4 SFRSYM    DATA     BIT       TI1
      000000A8H.2 SFRSYM    DATA     BIT       EX1
      000000D0H.0 SFRSYM    DATA     BIT       P
      0000008AH   SFRSYM    DATA     BYTE      TL0
      000000C0H   SFRSYM    DATA     BYTE      UART0_STATE
      0000008BH   SFRSYM    DATA     BYTE      TL1
      000000C8H   SFRSYM    DATA     BYTE      UART1_STATE
      000000FFH   SFRSYM    DATA     BYTE      BOR_LVDT_VTH
      000000B8H.1 SFRSYM    DATA     BIT       PT0
      000000D0H.3 SFRSYM    DATA     BIT       RS0
      000000B8H.3 SFRSYM    DATA     BIT       PT1
      000000B0H   SFRSYM    DATA     BYTE      DP_CON
      000000D0H.4 SFRSYM    DATA     BIT       RS1
      00000088H.4 SFRSYM    DATA     BIT       TR0
      00000088H.6 SFRSYM    DATA     BIT       TR1
      000000D2H   SFRSYM    DATA     BYTE      SNS_ANA_CFG
      000000C0H.6 SFRSYM    DATA     BIT       UART0_R8
      000000B8H.0 SFRSYM    DATA     BIT       PX0
      000000FDH   SFRSYM    DATA     BYTE      SPROG_TIM
      000000C8H.6 SFRSYM    DATA     BIT       UART1_R8
      000000B8H.2 SFRSYM    DATA     BIT       PX1
      000000C0H.5 SFRSYM    DATA     BIT       UART0_T8
      00000097H   SFRSYM    DATA     BYTE      REG_DATA
      000000C8H.5 SFRSYM    DATA     BIT       UART1_T8
      00000096H   SFRSYM    DATA     BYTE      REG_ADDR
      000000F8H   SFRSYM    DATA     BYTE      DATAA
      00000083H   SFRSYM    DATA     BYTE      DPH
      00000080H   SFRSYM    DATA     BYTE      DATAB
      000000CBH   SFRSYM    DATA     BYTE      SNS_SCAN_CFG1
      00000090H   SFRSYM    DATA     BYTE      DATAC
      000000E8H.5 SFRSYM    DATA     BIT       IIC_RW
      000000CCH   SFRSYM    DATA     BYTE      SNS_SCAN_CFG2
      000000B9H   SFRSYM    DATA     BYTE      ADC_RDATAH
      00000098H   SFRSYM    DATA     BYTE      DATAD
      000000CDH   SFRSYM    DATA     BYTE      SNS_SCAN_CFG3
      000000BEH   SFRSYM    DATA     BYTE      UART0_CON1
      00000082H   SFRSYM    DATA     BYTE      DPL
      000000C6H   SFRSYM    DATA     BYTE      UART1_CON1
      000000BFH   SFRSYM    DATA     BYTE      UART0_CON2
      000000C7H   SFRSYM    DATA     BYTE      UART1_CON2
      000000BAH   SFRSYM    DATA     BYTE      ADC_RDATAL
      00000092H   SFRSYM    DATA     BYTE      WDT_EN
      000000D3H   SFRSYM    DATA     BYTE      SNS_IO_SEL1
      000000D4H   SFRSYM    DATA     BYTE      SNS_IO_SEL2
      000000D5H   SFRSYM    DATA     BYTE      SNS_IO_SEL3
      00000093H   SFRSYM    DATA     BYTE      TIMER2_CFG
      000000D6H   SFRSYM    DATA     BYTE      SNS_IO_SEL4
      000000A2H   SFRSYM    DATA     BYTE      PWM_EN
      000000B2H   SFRSYM    DATA     BYTE      LED2_WIDTH
      000000E8H.1 SFRSYM    DATA     BIT       IIC_WCOL
      00000084H   SFRSYM    DATA     BYTE      SYS_CLK_CFG
      000000C0H.2 SFRSYM    DATA     BIT       UART0_RO
LX51 LINKER/LOCATER V4.66.97.0                                                        05/09/2023  16:57:25  PAGE 38


      000000C8H.2 SFRSYM    DATA     BIT       UART1_RO
      000000D0H.5 SFRSYM    DATA     BIT       F0
      000000D0H.1 SFRSYM    DATA     BIT       F1
      0000009CH   SFRSYM    DATA     BYTE      PWM1_H_H
      000000A1H   SFRSYM    DATA     BYTE      PWM2_H_H
      000000D0H   SFRSYM    DATA     BYTE      PSW
      0000009BH   SFRSYM    DATA     BYTE      PWM1_H_L
      0000009AH   SFRSYM    DATA     BYTE      PWM1_L_H
      0000009FH   SFRSYM    DATA     BYTE      PWM2_H_L
      0000009EH   SFRSYM    DATA     BYTE      PWM2_L_H
      000000E8H.6 SFRSYM    DATA     BIT       IIC_STOP
      0200001FH   SYMBOL    XDATA    BYTE      adjust_count

      0100212AH   BLOCK     CODE     ---       LVL=0
      0100212AH   BLOCK     CODE     NEAR LAB  LVL=1
      00000027H   SYMBOL    DATA     BYTE      i
      ---         BLOCKEND  ---      ---       LVL=1
      0100212AH   LINE      CODE     ---       #27
      0100212AH   LINE      CODE     ---       #28
      0100212AH   LINE      CODE     ---       #30
      0100212DH   LINE      CODE     ---       #31
      0100213DH   LINE      CODE     ---       #32
      0100213DH   LINE      CODE     ---       #33
      01002176H   LINE      CODE     ---       #34
      0100218AH   LINE      CODE     ---       #35
      010021B0H   LINE      CODE     ---       #37
      010021C4H   LINE      CODE     ---       #38
      010021EEH   LINE      CODE     ---       #40
      010021F3H   LINE      CODE     ---       #42
      ---         BLOCKEND  ---      ---       LVL=0

      01001E93H   BLOCK     CODE     ---       LVL=0
      01001E93H   LINE      CODE     ---       #108
      01001E93H   LINE      CODE     ---       #109
      01001E93H   LINE      CODE     ---       #110
      01001E95H   LINE      CODE     ---       #112
      01001E98H   LINE      CODE     ---       #114
      01001E9BH   LINE      CODE     ---       #115
      01001E9EH   LINE      CODE     ---       #117
      01001EA9H   LINE      CODE     ---       #118
      01001EC1H   LINE      CODE     ---       #119
      01001ED9H   LINE      CODE     ---       #120
      01001EF5H   LINE      CODE     ---       #122
      01001F04H   LINE      CODE     ---       #123
      01001F07H   LINE      CODE     ---       #124
      01001F0AH   LINE      CODE     ---       #125
      01001F0DH   LINE      CODE     ---       #127
      01001F10H   LINE      CODE     ---       #128
      01001F16H   LINE      CODE     ---       #129
      01001F1CH   LINE      CODE     ---       #130
      01001F22H   LINE      CODE     ---       #131
      01001F30H   LINE      CODE     ---       #132
      01001F36H   LINE      CODE     ---       #133
      01001F3CH   LINE      CODE     ---       #134
      01001F58H   LINE      CODE     ---       #135
      01001F5EH   LINE      CODE     ---       #136
      01001F64H   LINE      CODE     ---       #138
      01001F67H   LINE      CODE     ---       #139
      01001F6AH   LINE      CODE     ---       #141
      01001F75H   LINE      CODE     ---       #143
      01001F7BH   LINE      CODE     ---       #144
      01001F7DH   LINE      CODE     ---       #146
      ---         BLOCKEND  ---      ---       LVL=0

      01002A96H   BLOCK     CODE     ---       LVL=0
LX51 LINKER/LOCATER V4.66.97.0                                                        05/09/2023  16:57:25  PAGE 39


      01002A96H   LINE      CODE     ---       #155
      01002A96H   LINE      CODE     ---       #156
      01002A96H   LINE      CODE     ---       #201
      01002A99H   LINE      CODE     ---       #202
      01002A99H   LINE      CODE     ---       #203
      01002A9BH   LINE      CODE     ---       #204
      01002A9EH   LINE      CODE     ---       #206
      01002AACH   LINE      CODE     ---       #207
      01002AACH   LINE      CODE     ---       #208
      01002AB5H   LINE      CODE     ---       #209
      01002AB5H   LINE      CODE     ---       #211
      01002B01H   LINE      CODE     ---       #227
      01002B01H   LINE      CODE     ---       #229
      01002B05H   LINE      CODE     ---       #230
      01002B08H   LINE      CODE     ---       #231
      01002B08H   LINE      CODE     ---       #275
      ---         BLOCKEND  ---      ---       LVL=0

      01002F0BH   BLOCK     CODE     ---       LVL=0
      01002F0BH   LINE      CODE     ---       #472
      01002F0BH   LINE      CODE     ---       #473
      01002F0BH   LINE      CODE     ---       #475
      01002F31H   LINE      CODE     ---       #476
      01002F44H   LINE      CODE     ---       #488
      01002F4AH   LINE      CODE     ---       #489
      ---         BLOCKEND  ---      ---       LVL=0

      010022A9H   BLOCK     CODE     ---       LVL=0
      010022A9H   LINE      CODE     ---       #498
      010022C6H   LINE      CODE     ---       #501
      010022C9H   LINE      CODE     ---       #503
      010022CCH   LINE      CODE     ---       #507
      010022D3H   LINE      CODE     ---       #511
      010022D6H   LINE      CODE     ---       #512
      010022D6H   LINE      CODE     ---       #516
      010022D6H   LINE      CODE     ---       #517
      010022D8H   LINE      CODE     ---       #518
      010022F2H   LINE      CODE     ---       #519
      010022F4H   LINE      CODE     ---       #520
      010022F4H   LINE      CODE     ---       #522
      010022F7H   LINE      CODE     ---       #523
      010022F7H   LINE      CODE     ---       #529
      010022FAH   LINE      CODE     ---       #531
      010022FCH   LINE      CODE     ---       #533
      010022FCH   LINE      CODE     ---       #534
      010022FFH   LINE      CODE     ---       #535
      010022FFH   LINE      CODE     ---       #543
      01002301H   LINE      CODE     ---       #544
      01002310H   LINE      CODE     ---       #545
      01002310H   LINE      CODE     ---       #546
      01002313H   LINE      CODE     ---       #547
      01002315H   LINE      CODE     ---       #548
      01002320H   LINE      CODE     ---       #549
      01002320H   LINE      CODE     ---       #550
      01002323H   LINE      CODE     ---       #551
      01002325H   LINE      CODE     ---       #552
      01002325H   LINE      CODE     ---       #553
      01002325H   LINE      CODE     ---       #554
      01002325H   LINE      CODE     ---       #555
      01002330H   LINE      CODE     ---       #556
      01002330H   LINE      CODE     ---       #557
      01002333H   LINE      CODE     ---       #559
      01002335H   LINE      CODE     ---       #560
      01002335H   LINE      CODE     ---       #562
      01002338H   LINE      CODE     ---       #564
LX51 LINKER/LOCATER V4.66.97.0                                                        05/09/2023  16:57:25  PAGE 40


      01002338H   LINE      CODE     ---       #577
      01002338H   LINE      CODE     ---       #578
      01002338H   LINE      CODE     ---       #593
      ---         BLOCKEND  ---      ---       LVL=0

      01002B70H   BLOCK     CODE     ---       LVL=0
      01002B70H   BLOCK     CODE     NEAR LAB  LVL=1
      02000127H   SYMBOL    XDATA    BYTE      i
      ---         BLOCKEND  ---      ---       LVL=1
      01002B70H   LINE      CODE     ---       #602
      01002B70H   LINE      CODE     ---       #603
      01002B70H   LINE      CODE     ---       #605
      01002B83H   LINE      CODE     ---       #606
      01002B83H   LINE      CODE     ---       #608
      01002B9FH   LINE      CODE     ---       #609
      01002B9FH   LINE      CODE     ---       #610
      01002BA1H   LINE      CODE     ---       #611
      01002BC7H   LINE      CODE     ---       #612
      01002BC9H   LINE      CODE     ---       #613
      01002BC9H   LINE      CODE     ---       #615
      01002BD1H   LINE      CODE     ---       #616
      ---         BLOCKEND  ---      ---       LVL=0

      0100318BH   BLOCK     CODE     ---       LVL=0
      0100318BH   LINE      CODE     ---       #627
      0100318BH   LINE      CODE     ---       #628
      0100318BH   LINE      CODE     ---       #630
      0100319AH   LINE      CODE     ---       #631
      0100319AH   LINE      CODE     ---       #632
      0100319EH   LINE      CODE     ---       #633
      010031A8H   LINE      CODE     ---       #634
      010031ABH   LINE      CODE     ---       #635
      010031ABH   LINE      CODE     ---       #637
      ---         BLOCKEND  ---      ---       LVL=0

      01002929H   BLOCK     CODE     ---       LVL=0
      00000032H   SYMBOL    DATA     BYTE      addr
      01002929H   LINE      CODE     ---       #647
      0100292BH   LINE      CODE     ---       #648
      0100292BH   LINE      CODE     ---       #649
      01002938H   LINE      CODE     ---       #650
      01002944H   LINE      CODE     ---       #651
      01002958H   LINE      CODE     ---       #652
      01002958H   LINE      CODE     ---       #653
      01002964H   LINE      CODE     ---       #654
      010029A6H   LINE      CODE     ---       #655
      010029A6H   LINE      CODE     ---       #656
      ---         BLOCKEND  ---      ---       LVL=0

      0100007EH   BLOCK     CODE     ---       LVL=0
      00000027H   SYMBOL    DATA     BYTE      addr
      00000028H   SYMBOL    DATA     WORD      fth
      01000084H   BLOCK     CODE     NEAR LAB  LVL=1
      0000002AH   SYMBOL    DATA     LONG      differ
      0000002EH   SYMBOL    DATA     LONG      fth_tem
      ---         BLOCKEND  ---      ---       LVL=1
      0100007EH   LINE      CODE     ---       #665
      01000084H   LINE      CODE     ---       #666
      01000084H   LINE      CODE     ---       #667
      0100008DH   LINE      CODE     ---       #675
      01000095H   LINE      CODE     ---       #676
      0100009FH   LINE      CODE     ---       #678
      010000D7H   LINE      CODE     ---       #695
      0100010BH   LINE      CODE     ---       #696
      0100010BH   LINE      CODE     ---       #697
LX51 LINKER/LOCATER V4.66.97.0                                                        05/09/2023  16:57:25  PAGE 41


      0100012DH   LINE      CODE     ---       #698
      0100012DH   LINE      CODE     ---       #700
      01000130H   LINE      CODE     ---       #701
      01000130H   LINE      CODE     ---       #702
      01000133H   LINE      CODE     ---       #703
      01000133H   LINE      CODE     ---       #704
      01000135H   LINE      CODE     ---       #706
      01000138H   LINE      CODE     ---       #708
      01000138H   LINE      CODE     ---       #709
      01000138H   LINE      CODE     ---       #711
      0100013BH   LINE      CODE     ---       #853
      01000151H   LINE      CODE     ---       #854
      01000151H   LINE      CODE     ---       #867
      0100017CH   LINE      CODE     ---       #868
      0100017CH   LINE      CODE     ---       #870
      0100018AH   LINE      CODE     ---       #871
      01000197H   LINE      CODE     ---       #872
      010001AFH   LINE      CODE     ---       #873
      010001AFH   LINE      CODE     ---       #874
      010001EEH   LINE      CODE     ---       #875
      010001FBH   LINE      CODE     ---       #876
      010001FCH   LINE      CODE     ---       #878
      010001FCH   LINE      CODE     ---       #880
      010001FCH   LINE      CODE     ---       #882
      010001FCH   LINE      CODE     ---       #883
      01000228H   LINE      CODE     ---       #884
      01000228H   LINE      CODE     ---       #887
      0100022DH   LINE      CODE     ---       #889
      0100023BH   LINE      CODE     ---       #891
      01000248H   LINE      CODE     ---       #892
      01000255H   LINE      CODE     ---       #893
      01000262H   LINE      CODE     ---       #894
      0100026FH   LINE      CODE     ---       #896
      01000287H   LINE      CODE     ---       #897
      01000287H   LINE      CODE     ---       #898
      01000294H   LINE      CODE     ---       #900
      010002B3H   LINE      CODE     ---       #901
      010002B3H   LINE      CODE     ---       #906
      010002B3H   LINE      CODE     ---       #909
      010002B3H   LINE      CODE     ---       #911
      010002B3H   LINE      CODE     ---       #915
      010002B6H   LINE      CODE     ---       #917
      010002B6H   LINE      CODE     ---       #919
      010002BBH   LINE      CODE     ---       #921
      010002C8H   LINE      CODE     ---       #922
      010002D6H   LINE      CODE     ---       #923
      010002E3H   LINE      CODE     ---       #924
      010002F0H   LINE      CODE     ---       #925
      010002FDH   LINE      CODE     ---       #926
      01000315H   LINE      CODE     ---       #927
      01000315H   LINE      CODE     ---       #928
      01000322H   LINE      CODE     ---       #930
      01000341H   LINE      CODE     ---       #931
      01000341H   LINE      CODE     ---       #935
      01000341H   LINE      CODE     ---       #937
      01000341H   LINE      CODE     ---       #939
      01000341H   LINE      CODE     ---       #960
      01000341H   LINE      CODE     ---       #961
      01000344H   LINE      CODE     ---       #963
      01000344H   LINE      CODE     ---       #964
      01000349H   LINE      CODE     ---       #965
      0100037BH   LINE      CODE     ---       #966
      0100037BH   LINE      CODE     ---       #968
      01000388H   LINE      CODE     ---       #969
      01000395H   LINE      CODE     ---       #970
LX51 LINKER/LOCATER V4.66.97.0                                                        05/09/2023  16:57:25  PAGE 42


      010003A3H   LINE      CODE     ---       #971
      010003B0H   LINE      CODE     ---       #972
      010003BDH   LINE      CODE     ---       #973
      010003D5H   LINE      CODE     ---       #974
      010003D5H   LINE      CODE     ---       #975
      010003E2H   LINE      CODE     ---       #977
      01000401H   LINE      CODE     ---       #978
      01000401H   LINE      CODE     ---       #983
      01000421H   LINE      CODE     ---       #986
      01000421H   LINE      CODE     ---       #988
      01000421H   LINE      CODE     ---       #1014
      01000424H   LINE      CODE     ---       #1015
      01000451H   LINE      CODE     ---       #1016
      01000451H   LINE      CODE     ---       #1018
      0100045EH   LINE      CODE     ---       #1019
      0100046BH   LINE      CODE     ---       #1020
      01000478H   LINE      CODE     ---       #1021
      01000486H   LINE      CODE     ---       #1022
      01000493H   LINE      CODE     ---       #1024
      010004ABH   LINE      CODE     ---       #1025
      010004ABH   LINE      CODE     ---       #1026
      010004B8H   LINE      CODE     ---       #1028
      010004D7H   LINE      CODE     ---       #1029
      010004D7H   LINE      CODE     ---       #1033
      0100050EH   LINE      CODE     ---       #1035
      0100050EH   LINE      CODE     ---       #1038
      0100050EH   LINE      CODE     ---       #1060
      01000511H   LINE      CODE     ---       #1062
      01000511H   LINE      CODE     ---       #1064
      0100051EH   LINE      CODE     ---       #1065
      0100052BH   LINE      CODE     ---       #1066
      01000538H   LINE      CODE     ---       #1067
      01000545H   LINE      CODE     ---       #1068
      01000553H   LINE      CODE     ---       #1069
      01000568H   LINE      CODE     ---       #1070
      01000568H   LINE      CODE     ---       #1071
      01000575H   LINE      CODE     ---       #1074
      01000591H   LINE      CODE     ---       #1075
      01000591H   LINE      CODE     ---       #1079
      010005CCH   LINE      CODE     ---       #1081
      010005CCH   LINE      CODE     ---       #1083
      010005CCH   LINE      CODE     ---       #1104
      010005CCH   LINE      CODE     ---       #1105
      010005CCH   LINE      CODE     ---       #1106
      ---         BLOCKEND  ---      ---       LVL=0

      01001199H   BLOCK     CODE     ---       LVL=0
      01001199H   LINE      CODE     ---       #1116
      01001199H   LINE      CODE     ---       #1117
      01001199H   LINE      CODE     ---       #1118
      010011A9H   LINE      CODE     ---       #1119
      010011A9H   LINE      CODE     ---       #1120
      010011A9H   LINE      CODE     ---       #1121
      010011A9H   LINE      CODE     ---       #1122
      010011ACH   LINE      CODE     ---       #1124
      010011CDH   LINE      CODE     ---       #1125
      010011CDH   LINE      CODE     ---       #1126
      010011E6H   LINE      CODE     ---       #1127
      010011E6H   LINE      CODE     ---       #1128
      010011E6H   LINE      CODE     ---       #1129
      010011E9H   LINE      CODE     ---       #1131
      010011E9H   LINE      CODE     ---       #1133
      010011E9H   LINE      CODE     ---       #1135
      010011EBH   LINE      CODE     ---       #1136
      010011F6H   LINE      CODE     ---       #1137
LX51 LINKER/LOCATER V4.66.97.0                                                        05/09/2023  16:57:25  PAGE 43


      010011F6H   LINE      CODE     ---       #1138
      010011F9H   LINE      CODE     ---       #1139
      010011FDH   LINE      CODE     ---       #1140
      010011FFH   LINE      CODE     ---       #1142
      010011FFH   LINE      CODE     ---       #1144
      01001202H   LINE      CODE     ---       #1146
      01001202H   LINE      CODE     ---       #1147
      01001202H   LINE      CODE     ---       #1149
      01001202H   LINE      CODE     ---       #1150
      0100123AH   LINE      CODE     ---       #1151
      0100123CH   LINE      CODE     ---       #1152
      01001247H   LINE      CODE     ---       #1153
      01001247H   LINE      CODE     ---       #1154
      01001253H   LINE      CODE     ---       #1155
      01001253H   LINE      CODE     ---       #1156
      01001256H   LINE      CODE     ---       #1157
      01001256H   LINE      CODE     ---       #1159
      01001259H   LINE      CODE     ---       #1160
      01001272H   LINE      CODE     ---       #1161
      01001272H   LINE      CODE     ---       #1162
      01001272H   LINE      CODE     ---       #1163
      01001274H   LINE      CODE     ---       #1165
      01001274H   LINE      CODE     ---       #1167
      01001277H   LINE      CODE     ---       #1168
      01001279H   LINE      CODE     ---       #1169
      01001279H   LINE      CODE     ---       #1171
      01001292H   LINE      CODE     ---       #1172
      01001292H   LINE      CODE     ---       #1173
      01001292H   LINE      CODE     ---       #1174
      01001294H   LINE      CODE     ---       #1176
      01001294H   LINE      CODE     ---       #1178
      01001294H   LINE      CODE     ---       #1179
      01001297H   LINE      CODE     ---       #1181
      01001297H   LINE      CODE     ---       #1182
      01001297H   LINE      CODE     ---       #1183
      01001297H   LINE      CODE     ---       #1184
      01001297H   LINE      CODE     ---       #1186
      010012A7H   LINE      CODE     ---       #1187
      010012A7H   LINE      CODE     ---       #1188
      010012A7H   LINE      CODE     ---       #1189
      010012A7H   LINE      CODE     ---       #1190
      010012AAH   LINE      CODE     ---       #1192
      010012CBH   LINE      CODE     ---       #1193
      010012CBH   LINE      CODE     ---       #1194
      010012E4H   LINE      CODE     ---       #1195
      010012E4H   LINE      CODE     ---       #1196
      010012F5H   LINE      CODE     ---       #1197
      010012F8H   LINE      CODE     ---       #1199
      010012F8H   LINE      CODE     ---       #1201
      010012F8H   LINE      CODE     ---       #1202
      010012FAH   LINE      CODE     ---       #1203
      01001305H   LINE      CODE     ---       #1204
      01001305H   LINE      CODE     ---       #1205
      01001308H   LINE      CODE     ---       #1206
      0100130CH   LINE      CODE     ---       #1207
      0100130EH   LINE      CODE     ---       #1209
      0100130EH   LINE      CODE     ---       #1211
      01001311H   LINE      CODE     ---       #1214
      01001311H   LINE      CODE     ---       #1216
      01001311H   LINE      CODE     ---       #1218
      01001311H   LINE      CODE     ---       #1219
      01001349H   LINE      CODE     ---       #1220
      0100134BH   LINE      CODE     ---       #1221
      01001356H   LINE      CODE     ---       #1222
      01001356H   LINE      CODE     ---       #1223
LX51 LINKER/LOCATER V4.66.97.0                                                        05/09/2023  16:57:25  PAGE 44


      01001359H   LINE      CODE     ---       #1225
      01001365H   LINE      CODE     ---       #1226
      01001365H   LINE      CODE     ---       #1227
      01001368H   LINE      CODE     ---       #1228
      01001368H   LINE      CODE     ---       #1229
      01001375H   LINE      CODE     ---       #1230
      01001375H   LINE      CODE     ---       #1231
      01001377H   LINE      CODE     ---       #1232
      01001379H   LINE      CODE     ---       #1233
      01001379H   LINE      CODE     ---       #1234
      01001379H   LINE      CODE     ---       #1235
      0100137BH   LINE      CODE     ---       #1236
      0100137BH   LINE      CODE     ---       #1238
      01001394H   LINE      CODE     ---       #1239
      01001394H   LINE      CODE     ---       #1240
      010013A8H   LINE      CODE     ---       #1241
      010013AAH   LINE      CODE     ---       #1243
      010013AAH   LINE      CODE     ---       #1245
      010013AAH   LINE      CODE     ---       #1246
      010013ADH   LINE      CODE     ---       #1248
      010013ADH   LINE      CODE     ---       #1249
      010013ADH   LINE      CODE     ---       #1250
      010013ADH   LINE      CODE     ---       #1251
      010013ADH   LINE      CODE     ---       #1252
      ---         BLOCKEND  ---      ---       LVL=0

      ---         MODULE    ---      ---       XS16TK06X_TRACEMODE
      000000C3H   SFRSYM    DATA     BYTE      UART_IO_CTRL1
      00000099H   SFRSYM    DATA     BYTE      PWM1_L_L
      000000F7H   SFRSYM    DATA     BYTE      EXT_INT_CON
      0000009DH   SFRSYM    DATA     BYTE      PWM2_L_L
      00000085H   SFRSYM    DATA     BYTE      INT_PE_STAT
      000000B5H   SFRSYM    DATA     BYTE      ADC_SCAN_CFG
      000000A0H   SFRSYM    DATA     BYTE      P2_XH
      000000D0H.6 SFRSYM    DATA     BIT       AC
      000000EAH   SFRSYM    DATA     BYTE      TRISA
      000000E8H.2 SFRSYM    DATA     BIT       IIC_ACK
      000000A8H.7 SFRSYM    DATA     BIT       EA
      000000EBH   SFRSYM    DATA     BYTE      TRISB
      000000ECH   SFRSYM    DATA     BYTE      TRISC
      000000D8H   SFRSYM    DATA     BYTE      PD_PB
      00000091H   SFRSYM    DATA     BYTE      WDT_CTRL
      000000EDH   SFRSYM    DATA     BYTE      TRISD
      000000FBH   SFRSYM    DATA     BYTE      SPROG_DATA
      000000F2H   SFRSYM    DATA     BYTE      PERIPH_IO_SEL
      000000B1H   SFRSYM    DATA     BYTE      SCAN_WIDTH
      000000CFH   SFRSYM    DATA     BYTE      CSD_RAWDATAH
      000000A8H   SFRSYM    DATA     BYTE      IEN0
      000000E6H   SFRSYM    DATA     BYTE      IEN1
      000000E7H   SFRSYM    DATA     BYTE      IEN2
      000000CEH   SFRSYM    DATA     BYTE      CSD_RAWDATAL
      000000AEH   SFRSYM    DATA     BYTE      PWM0_MOD_H
      000000E9H   SFRSYM    DATA     BYTE      IICBUFFER
      000000ADH   SFRSYM    DATA     BYTE      PWM0_MOD_L
      000000C0H.1 SFRSYM    DATA     BIT       UART0_F
      000000E8H   SFRSYM    DATA     BYTE      IICSTAT
      000000C8H.1 SFRSYM    DATA     BIT       UART1_F
      000000B8H   SFRSYM    DATA     BYTE      IPL0
      000000F6H   SFRSYM    DATA     BYTE      IPL1
      000000DDH   SFRSYM    DATA     BYTE      PU_PA
      000000AFH   SFRSYM    DATA     BYTE      SCAN_START
      000000F4H   SFRSYM    DATA     BYTE      IPL2
      000000DEH   SFRSYM    DATA     BYTE      PU_PB
      000000D7H   SFRSYM    DATA     BYTE      RST_STAT
      0000008EH   SFRSYM    DATA     BYTE      SOFT_RST
LX51 LINKER/LOCATER V4.66.97.0                                                        05/09/2023  16:57:25  PAGE 45


      000000DFH   SFRSYM    DATA     BYTE      PU_PC
      000000E2H   SFRSYM    DATA     BYTE      PU_PD
      000000D1H   SFRSYM    DATA     BYTE      PULL_I_SELA_L
      000000B6H   SFRSYM    DATA     BYTE      ADCCKC
      000000D0H.7 SFRSYM    DATA     BIT       CY
      00000086H   SFRSYM    DATA     BYTE      INT_POBO_STAT
      000000C0H.0 SFRSYM    DATA     BIT       UART0_P
      000000EEH   SFRSYM    DATA     BYTE      COM_IO_SEL
      000000C8H.0 SFRSYM    DATA     BIT       UART1_P
      000000E3H   SFRSYM    DATA     BYTE      IICADD
      000000BDH   SFRSYM    DATA     BYTE      UART0_BDL
      000000B4H   SFRSYM    DATA     BYTE      ADC_SPT
      000000C5H   SFRSYM    DATA     BYTE      UART1_BDL
      00000081H   SFRSYM    DATA     BYTE      SP
      000000D0H.2 SFRSYM    DATA     BIT       OV
      000000A3H   SFRSYM    DATA     BYTE      PWM0_CH_CTRL
      000000BBH   SFRSYM    DATA     BYTE      ADC_CFG1
      00000094H   SFRSYM    DATA     BYTE      TIMER2_SET_H
      000000C1H   SFRSYM    DATA     BYTE      UART0_BUF
      000000BCH   SFRSYM    DATA     BYTE      ADC_CFG2
      000000C9H   SFRSYM    DATA     BYTE      UART1_BUF
      000000F1H   SFRSYM    DATA     BYTE      IRCON1
      000000E1H   SFRSYM    DATA     BYTE      IRCON2
      00000095H   SFRSYM    DATA     BYTE      TIMER2_SET_L
      000000A5H   SFRSYM    DATA     BYTE      PWM0_CH0_CNT_H
      000000A7H   SFRSYM    DATA     BYTE      PWM0_CH1_CNT_H
      00000087H   SFRSYM    DATA     BYTE      PCON
      000000F9H   SFRSYM    DATA     BYTE      SPROG_ADDR_H
      000000B3H   SFRSYM    DATA     BYTE      LED_DRIVE
      000000AAH   SFRSYM    DATA     BYTE      PWM0_CH2_CNT_H
      000000EFH   SFRSYM    DATA     BYTE      ODRAIN_EN
      000000ACH   SFRSYM    DATA     BYTE      PWM0_CH3_CNT_H
      000000E4H   SFRSYM    DATA     BYTE      IICBUF
      000000A4H   SFRSYM    DATA     BYTE      PWM0_CH0_CNT_L
      000000A6H   SFRSYM    DATA     BYTE      PWM0_CH1_CNT_L
      00000089H   SFRSYM    DATA     BYTE      TMOD
      00000088H   SFRSYM    DATA     BYTE      TCON
      000000FAH   SFRSYM    DATA     BYTE      SPROG_ADDR_L
      000000A9H   SFRSYM    DATA     BYTE      PWM0_CH2_CNT_L
      000000E8H.0 SFRSYM    DATA     BIT       IIC_RECOV
      000000E5H   SFRSYM    DATA     BYTE      IICCON
      000000ABH   SFRSYM    DATA     BYTE      PWM0_CH3_CNT_L
      000000D9H   SFRSYM    DATA     BYTE      ADC_IO_SEL1
      000000DAH   SFRSYM    DATA     BYTE      ADC_IO_SEL2
      000000DBH   SFRSYM    DATA     BYTE      ADC_IO_SEL3
      000000E8H.4 SFRSYM    DATA     BIT       IIC_AD
      000000DCH   SFRSYM    DATA     BYTE      ADC_IO_SEL4
      000000E8H.3 SFRSYM    DATA     BIT       IIC_BF
      00000088H.1 SFRSYM    DATA     BIT       IE0
      00000088H.3 SFRSYM    DATA     BIT       IE1
      000000C4H   SFRSYM    DATA     BYTE      LED_IO_START
      000000F8H.0 SFRSYM    DATA     BIT       PA0
      000000F0H   SFRSYM    DATA     BYTE      B
      00000080H.0 SFRSYM    DATA     BIT       PB0
      000000F8H.1 SFRSYM    DATA     BIT       PA1
      000000FCH   SFRSYM    DATA     BYTE      SPROG_CMD
      00000090H.0 SFRSYM    DATA     BIT       PC0
      00000080H.1 SFRSYM    DATA     BIT       PB1
      00000098H.0 SFRSYM    DATA     BIT       PD0
      00000090H.1 SFRSYM    DATA     BIT       PC1
      00000080H.2 SFRSYM    DATA     BIT       PB2
      00000098H.1 SFRSYM    DATA     BIT       PD1
      00000090H.2 SFRSYM    DATA     BIT       PC2
      00000080H.3 SFRSYM    DATA     BIT       PB3
      000000FEH   SFRSYM    DATA     BYTE      PD_ANA
LX51 LINKER/LOCATER V4.66.97.0                                                        05/09/2023  16:57:25  PAGE 46


      000000E8H.7 SFRSYM    DATA     BIT       IIC_START
      00000098H.2 SFRSYM    DATA     BIT       PD2
      00000090H.3 SFRSYM    DATA     BIT       PC3
      00000080H.4 SFRSYM    DATA     BIT       PB4
      00000098H.3 SFRSYM    DATA     BIT       PD3
      00000090H.4 SFRSYM    DATA     BIT       PC4
      00000080H.5 SFRSYM    DATA     BIT       PB5
      000000E0H   SFRSYM    DATA     BYTE      ACC
      00000098H.4 SFRSYM    DATA     BIT       PD4
      00000090H.5 SFRSYM    DATA     BIT       PC5
      00000080H.6 SFRSYM    DATA     BIT       PB6
      000000A8H.1 SFRSYM    DATA     BIT       ET0
      00000098H.5 SFRSYM    DATA     BIT       PD5
      00000090H.6 SFRSYM    DATA     BIT       PC6
      00000080H.7 SFRSYM    DATA     BIT       PB7
      000000A8H.3 SFRSYM    DATA     BIT       ET1
      00000098H.6 SFRSYM    DATA     BIT       PD6
      00000090H.7 SFRSYM    DATA     BIT       PC7
      00000088H.5 SFRSYM    DATA     BIT       TF0
      000000C0H.3 SFRSYM    DATA     BIT       RI0
      00000098H.7 SFRSYM    DATA     BIT       PD7
      00000088H.7 SFRSYM    DATA     BIT       TF1
      000000CAH   SFRSYM    DATA     BYTE      CSD_START
      000000C8H.3 SFRSYM    DATA     BIT       RI1
      0000008CH   SFRSYM    DATA     BYTE      TH0
      000000C0H.4 SFRSYM    DATA     BIT       TI0
      000000A8H.0 SFRSYM    DATA     BIT       EX0
      000000C2H   SFRSYM    DATA     BYTE      UART_IO_CTRL
      0000008DH   SFRSYM    DATA     BYTE      TH1
      000000C8H.4 SFRSYM    DATA     BIT       TI1
      000000A8H.2 SFRSYM    DATA     BIT       EX1
      000000D0H.0 SFRSYM    DATA     BIT       P
      0000008AH   SFRSYM    DATA     BYTE      TL0
      000000C0H   SFRSYM    DATA     BYTE      UART0_STATE
      0000008BH   SFRSYM    DATA     BYTE      TL1
      000000C8H   SFRSYM    DATA     BYTE      UART1_STATE
      000000FFH   SFRSYM    DATA     BYTE      BOR_LVDT_VTH
      000000B8H.1 SFRSYM    DATA     BIT       PT0
      000000D0H.3 SFRSYM    DATA     BIT       RS0
      000000B8H.3 SFRSYM    DATA     BIT       PT1
      000000B0H   SFRSYM    DATA     BYTE      DP_CON
      000000D0H.4 SFRSYM    DATA     BIT       RS1
      00000088H.4 SFRSYM    DATA     BIT       TR0
      00000088H.6 SFRSYM    DATA     BIT       TR1
      000000D2H   SFRSYM    DATA     BYTE      SNS_ANA_CFG
      000000C0H.6 SFRSYM    DATA     BIT       UART0_R8
      000000B8H.0 SFRSYM    DATA     BIT       PX0
      000000FDH   SFRSYM    DATA     BYTE      SPROG_TIM
      000000C8H.6 SFRSYM    DATA     BIT       UART1_R8
      000000B8H.2 SFRSYM    DATA     BIT       PX1
      000000C0H.5 SFRSYM    DATA     BIT       UART0_T8
      00000097H   SFRSYM    DATA     BYTE      REG_DATA
      000000C8H.5 SFRSYM    DATA     BIT       UART1_T8
      00000096H   SFRSYM    DATA     BYTE      REG_ADDR
      000000F8H   SFRSYM    DATA     BYTE      DATAA
      00000083H   SFRSYM    DATA     BYTE      DPH
      00000080H   SFRSYM    DATA     BYTE      DATAB
      000000CBH   SFRSYM    DATA     BYTE      SNS_SCAN_CFG1
      00000090H   SFRSYM    DATA     BYTE      DATAC
      000000E8H.5 SFRSYM    DATA     BIT       IIC_RW
      000000CCH   SFRSYM    DATA     BYTE      SNS_SCAN_CFG2
      000000B9H   SFRSYM    DATA     BYTE      ADC_RDATAH
      00000098H   SFRSYM    DATA     BYTE      DATAD
      000000CDH   SFRSYM    DATA     BYTE      SNS_SCAN_CFG3
      000000BEH   SFRSYM    DATA     BYTE      UART0_CON1
LX51 LINKER/LOCATER V4.66.97.0                                                        05/09/2023  16:57:25  PAGE 47


      00000082H   SFRSYM    DATA     BYTE      DPL
      000000C6H   SFRSYM    DATA     BYTE      UART1_CON1
      000000BFH   SFRSYM    DATA     BYTE      UART0_CON2
      000000C7H   SFRSYM    DATA     BYTE      UART1_CON2
      000000BAH   SFRSYM    DATA     BYTE      ADC_RDATAL
      00000092H   SFRSYM    DATA     BYTE      WDT_EN
      000000D3H   SFRSYM    DATA     BYTE      SNS_IO_SEL1
      000000D4H   SFRSYM    DATA     BYTE      SNS_IO_SEL2
      000000D5H   SFRSYM    DATA     BYTE      SNS_IO_SEL3
      00000093H   SFRSYM    DATA     BYTE      TIMER2_CFG
      000000D6H   SFRSYM    DATA     BYTE      SNS_IO_SEL4
      000000A2H   SFRSYM    DATA     BYTE      PWM_EN
      000000B2H   SFRSYM    DATA     BYTE      LED2_WIDTH
      000000E8H.1 SFRSYM    DATA     BIT       IIC_WCOL
      00000084H   SFRSYM    DATA     BYTE      SYS_CLK_CFG
      000000C0H.2 SFRSYM    DATA     BIT       UART0_RO
      000000C8H.2 SFRSYM    DATA     BIT       UART1_RO
      000000D0H.5 SFRSYM    DATA     BIT       F0
      000000D0H.1 SFRSYM    DATA     BIT       F1
      0000009CH   SFRSYM    DATA     BYTE      PWM1_H_H
      000000A1H   SFRSYM    DATA     BYTE      PWM2_H_H
      000000D0H   SFRSYM    DATA     BYTE      PSW
      0000009BH   SFRSYM    DATA     BYTE      PWM1_H_L
      0000009AH   SFRSYM    DATA     BYTE      PWM1_L_H
      0000009FH   SFRSYM    DATA     BYTE      PWM2_H_L
      0000009EH   SFRSYM    DATA     BYTE      PWM2_L_H
      000000E8H.6 SFRSYM    DATA     BIT       IIC_STOP

      ---         MODULE    ---      ---       XS16TK06X_ADC
      0000001DH   PUBLIC    DATA     WORD      ADC_Rest_Max_Count
      0000001BH   PUBLIC    DATA     WORD      ADC_Start_Count
      00000026H.2 PUBLIC    BIT      BIT       ADC_Start_Flag
      01000017H   PUBLIC    CODE     ---       _ADC_Obtain
      01002CE5H   PUBLIC    CODE     ---       ADC_Init
      010023F8H   PUBLIC    CODE     ---       _Get_ADC
      010031CDH   PUBLIC    CODE     ---       ADC_Reset_Count
      01003333H   PUBLIC    CODE     ---       _ADC_Delay_us
      000000C3H   SFRSYM    DATA     BYTE      UART_IO_CTRL1
      00000099H   SFRSYM    DATA     BYTE      PWM1_L_L
      000000F7H   SFRSYM    DATA     BYTE      EXT_INT_CON
      0000009DH   SFRSYM    DATA     BYTE      PWM2_L_L
      00000085H   SFRSYM    DATA     BYTE      INT_PE_STAT
      000000B5H   SFRSYM    DATA     BYTE      ADC_SCAN_CFG
      000000A0H   SFRSYM    DATA     BYTE      P2_XH
      000000D0H.6 SFRSYM    DATA     BIT       AC
      000000EAH   SFRSYM    DATA     BYTE      TRISA
      000000E8H.2 SFRSYM    DATA     BIT       IIC_ACK
      000000A8H.7 SFRSYM    DATA     BIT       EA
      000000EBH   SFRSYM    DATA     BYTE      TRISB
      000000ECH   SFRSYM    DATA     BYTE      TRISC
      000000D8H   SFRSYM    DATA     BYTE      PD_PB
      00000091H   SFRSYM    DATA     BYTE      WDT_CTRL
      000000EDH   SFRSYM    DATA     BYTE      TRISD
      000000FBH   SFRSYM    DATA     BYTE      SPROG_DATA
      000000F2H   SFRSYM    DATA     BYTE      PERIPH_IO_SEL
      000000B1H   SFRSYM    DATA     BYTE      SCAN_WIDTH
      000000CFH   SFRSYM    DATA     BYTE      CSD_RAWDATAH
      000000A8H   SFRSYM    DATA     BYTE      IEN0
      000000E6H   SFRSYM    DATA     BYTE      IEN1
      000000E7H   SFRSYM    DATA     BYTE      IEN2
      000000CEH   SFRSYM    DATA     BYTE      CSD_RAWDATAL
      000000AEH   SFRSYM    DATA     BYTE      PWM0_MOD_H
      000000E9H   SFRSYM    DATA     BYTE      IICBUFFER
      000000ADH   SFRSYM    DATA     BYTE      PWM0_MOD_L
      000000C0H.1 SFRSYM    DATA     BIT       UART0_F
LX51 LINKER/LOCATER V4.66.97.0                                                        05/09/2023  16:57:25  PAGE 48


      000000E8H   SFRSYM    DATA     BYTE      IICSTAT
      000000C8H.1 SFRSYM    DATA     BIT       UART1_F
      000000B8H   SFRSYM    DATA     BYTE      IPL0
      000000F6H   SFRSYM    DATA     BYTE      IPL1
      000000DDH   SFRSYM    DATA     BYTE      PU_PA
      000000AFH   SFRSYM    DATA     BYTE      SCAN_START
      000000F4H   SFRSYM    DATA     BYTE      IPL2
      000000DEH   SFRSYM    DATA     BYTE      PU_PB
      000000D7H   SFRSYM    DATA     BYTE      RST_STAT
      0000008EH   SFRSYM    DATA     BYTE      SOFT_RST
      000000DFH   SFRSYM    DATA     BYTE      PU_PC
      000000E2H   SFRSYM    DATA     BYTE      PU_PD
      000000D1H   SFRSYM    DATA     BYTE      PULL_I_SELA_L
      000000B6H   SFRSYM    DATA     BYTE      ADCCKC
      000000D0H.7 SFRSYM    DATA     BIT       CY
      00000086H   SFRSYM    DATA     BYTE      INT_POBO_STAT
      000000C0H.0 SFRSYM    DATA     BIT       UART0_P
      000000EEH   SFRSYM    DATA     BYTE      COM_IO_SEL
      000000C8H.0 SFRSYM    DATA     BIT       UART1_P
      000000E3H   SFRSYM    DATA     BYTE      IICADD
      000000BDH   SFRSYM    DATA     BYTE      UART0_BDL
      000000B4H   SFRSYM    DATA     BYTE      ADC_SPT
      000000C5H   SFRSYM    DATA     BYTE      UART1_BDL
      00000081H   SFRSYM    DATA     BYTE      SP
      000000D0H.2 SFRSYM    DATA     BIT       OV
      000000A3H   SFRSYM    DATA     BYTE      PWM0_CH_CTRL
      000000BBH   SFRSYM    DATA     BYTE      ADC_CFG1
      00000094H   SFRSYM    DATA     BYTE      TIMER2_SET_H
      000000C1H   SFRSYM    DATA     BYTE      UART0_BUF
      000000BCH   SFRSYM    DATA     BYTE      ADC_CFG2
      000000C9H   SFRSYM    DATA     BYTE      UART1_BUF
      000000F1H   SFRSYM    DATA     BYTE      IRCON1
      000000E1H   SFRSYM    DATA     BYTE      IRCON2
      00000095H   SFRSYM    DATA     BYTE      TIMER2_SET_L
      000000A5H   SFRSYM    DATA     BYTE      PWM0_CH0_CNT_H
      000000A7H   SFRSYM    DATA     BYTE      PWM0_CH1_CNT_H
      00000087H   SFRSYM    DATA     BYTE      PCON
      000000F9H   SFRSYM    DATA     BYTE      SPROG_ADDR_H
      000000B3H   SFRSYM    DATA     BYTE      LED_DRIVE
      000000AAH   SFRSYM    DATA     BYTE      PWM0_CH2_CNT_H
      000000EFH   SFRSYM    DATA     BYTE      ODRAIN_EN
      000000ACH   SFRSYM    DATA     BYTE      PWM0_CH3_CNT_H
      000000E4H   SFRSYM    DATA     BYTE      IICBUF
      000000A4H   SFRSYM    DATA     BYTE      PWM0_CH0_CNT_L
      000000A6H   SFRSYM    DATA     BYTE      PWM0_CH1_CNT_L
      00000089H   SFRSYM    DATA     BYTE      TMOD
      00000088H   SFRSYM    DATA     BYTE      TCON
      000000FAH   SFRSYM    DATA     BYTE      SPROG_ADDR_L
      000000A9H   SFRSYM    DATA     BYTE      PWM0_CH2_CNT_L
      000000E8H.0 SFRSYM    DATA     BIT       IIC_RECOV
      000000E5H   SFRSYM    DATA     BYTE      IICCON
      000000ABH   SFRSYM    DATA     BYTE      PWM0_CH3_CNT_L
      000000D9H   SFRSYM    DATA     BYTE      ADC_IO_SEL1
      000000DAH   SFRSYM    DATA     BYTE      ADC_IO_SEL2
      000000DBH   SFRSYM    DATA     BYTE      ADC_IO_SEL3
      000000E8H.4 SFRSYM    DATA     BIT       IIC_AD
      000000DCH   SFRSYM    DATA     BYTE      ADC_IO_SEL4
      000000E8H.3 SFRSYM    DATA     BIT       IIC_BF
      00000088H.1 SFRSYM    DATA     BIT       IE0
      00000088H.3 SFRSYM    DATA     BIT       IE1
      000000C4H   SFRSYM    DATA     BYTE      LED_IO_START
      000000F8H.0 SFRSYM    DATA     BIT       PA0
      000000F0H   SFRSYM    DATA     BYTE      B
      00000080H.0 SFRSYM    DATA     BIT       PB0
      000000F8H.1 SFRSYM    DATA     BIT       PA1
LX51 LINKER/LOCATER V4.66.97.0                                                        05/09/2023  16:57:25  PAGE 49


      000000FCH   SFRSYM    DATA     BYTE      SPROG_CMD
      00000090H.0 SFRSYM    DATA     BIT       PC0
      00000080H.1 SFRSYM    DATA     BIT       PB1
      00000098H.0 SFRSYM    DATA     BIT       PD0
      00000090H.1 SFRSYM    DATA     BIT       PC1
      00000080H.2 SFRSYM    DATA     BIT       PB2
      00000098H.1 SFRSYM    DATA     BIT       PD1
      00000090H.2 SFRSYM    DATA     BIT       PC2
      00000080H.3 SFRSYM    DATA     BIT       PB3
      000000FEH   SFRSYM    DATA     BYTE      PD_ANA
      000000E8H.7 SFRSYM    DATA     BIT       IIC_START
      00000098H.2 SFRSYM    DATA     BIT       PD2
      00000090H.3 SFRSYM    DATA     BIT       PC3
      00000080H.4 SFRSYM    DATA     BIT       PB4
      00000098H.3 SFRSYM    DATA     BIT       PD3
      00000090H.4 SFRSYM    DATA     BIT       PC4
      00000080H.5 SFRSYM    DATA     BIT       PB5
      000000E0H   SFRSYM    DATA     BYTE      ACC
      00000098H.4 SFRSYM    DATA     BIT       PD4
      00000090H.5 SFRSYM    DATA     BIT       PC5
      00000080H.6 SFRSYM    DATA     BIT       PB6
      000000A8H.1 SFRSYM    DATA     BIT       ET0
      00000098H.5 SFRSYM    DATA     BIT       PD5
      00000090H.6 SFRSYM    DATA     BIT       PC6
      00000080H.7 SFRSYM    DATA     BIT       PB7
      000000A8H.3 SFRSYM    DATA     BIT       ET1
      00000098H.6 SFRSYM    DATA     BIT       PD6
      00000090H.7 SFRSYM    DATA     BIT       PC7
      00000088H.5 SFRSYM    DATA     BIT       TF0
      000000C0H.3 SFRSYM    DATA     BIT       RI0
      00000098H.7 SFRSYM    DATA     BIT       PD7
      00000088H.7 SFRSYM    DATA     BIT       TF1
      000000CAH   SFRSYM    DATA     BYTE      CSD_START
      000000C8H.3 SFRSYM    DATA     BIT       RI1
      0000008CH   SFRSYM    DATA     BYTE      TH0
      000000C0H.4 SFRSYM    DATA     BIT       TI0
      000000A8H.0 SFRSYM    DATA     BIT       EX0
      000000C2H   SFRSYM    DATA     BYTE      UART_IO_CTRL
      0000008DH   SFRSYM    DATA     BYTE      TH1
      000000C8H.4 SFRSYM    DATA     BIT       TI1
      000000A8H.2 SFRSYM    DATA     BIT       EX1
      000000D0H.0 SFRSYM    DATA     BIT       P
      0000008AH   SFRSYM    DATA     BYTE      TL0
      000000C0H   SFRSYM    DATA     BYTE      UART0_STATE
      0000008BH   SFRSYM    DATA     BYTE      TL1
      000000C8H   SFRSYM    DATA     BYTE      UART1_STATE
      000000FFH   SFRSYM    DATA     BYTE      BOR_LVDT_VTH
      000000B8H.1 SFRSYM    DATA     BIT       PT0
      000000D0H.3 SFRSYM    DATA     BIT       RS0
      000000B8H.3 SFRSYM    DATA     BIT       PT1
      000000B0H   SFRSYM    DATA     BYTE      DP_CON
      000000D0H.4 SFRSYM    DATA     BIT       RS1
      00000088H.4 SFRSYM    DATA     BIT       TR0
      00000088H.6 SFRSYM    DATA     BIT       TR1
      000000D2H   SFRSYM    DATA     BYTE      SNS_ANA_CFG
      000000C0H.6 SFRSYM    DATA     BIT       UART0_R8
      000000B8H.0 SFRSYM    DATA     BIT       PX0
      000000FDH   SFRSYM    DATA     BYTE      SPROG_TIM
      000000C8H.6 SFRSYM    DATA     BIT       UART1_R8
      000000B8H.2 SFRSYM    DATA     BIT       PX1
      000000C0H.5 SFRSYM    DATA     BIT       UART0_T8
      00000097H   SFRSYM    DATA     BYTE      REG_DATA
      000000C8H.5 SFRSYM    DATA     BIT       UART1_T8
      00000096H   SFRSYM    DATA     BYTE      REG_ADDR
      000000F8H   SFRSYM    DATA     BYTE      DATAA
LX51 LINKER/LOCATER V4.66.97.0                                                        05/09/2023  16:57:25  PAGE 50


      00000083H   SFRSYM    DATA     BYTE      DPH
      00000080H   SFRSYM    DATA     BYTE      DATAB
      000000CBH   SFRSYM    DATA     BYTE      SNS_SCAN_CFG1
      00000090H   SFRSYM    DATA     BYTE      DATAC
      000000E8H.5 SFRSYM    DATA     BIT       IIC_RW
      000000CCH   SFRSYM    DATA     BYTE      SNS_SCAN_CFG2
      000000B9H   SFRSYM    DATA     BYTE      ADC_RDATAH
      00000098H   SFRSYM    DATA     BYTE      DATAD
      000000CDH   SFRSYM    DATA     BYTE      SNS_SCAN_CFG3
      000000BEH   SFRSYM    DATA     BYTE      UART0_CON1
      00000082H   SFRSYM    DATA     BYTE      DPL
      000000C6H   SFRSYM    DATA     BYTE      UART1_CON1
      000000BFH   SFRSYM    DATA     BYTE      UART0_CON2
      000000C7H   SFRSYM    DATA     BYTE      UART1_CON2
      000000BAH   SFRSYM    DATA     BYTE      ADC_RDATAL
      00000092H   SFRSYM    DATA     BYTE      WDT_EN
      000000D3H   SFRSYM    DATA     BYTE      SNS_IO_SEL1
      000000D4H   SFRSYM    DATA     BYTE      SNS_IO_SEL2
      000000D5H   SFRSYM    DATA     BYTE      SNS_IO_SEL3
      00000093H   SFRSYM    DATA     BYTE      TIMER2_CFG
      000000D6H   SFRSYM    DATA     BYTE      SNS_IO_SEL4
      000000A2H   SFRSYM    DATA     BYTE      PWM_EN
      000000B2H   SFRSYM    DATA     BYTE      LED2_WIDTH
      000000E8H.1 SFRSYM    DATA     BIT       IIC_WCOL
      00000084H   SFRSYM    DATA     BYTE      SYS_CLK_CFG
      000000C0H.2 SFRSYM    DATA     BIT       UART0_RO
      000000C8H.2 SFRSYM    DATA     BIT       UART1_RO
      000000D0H.5 SFRSYM    DATA     BIT       F0
      000000D0H.1 SFRSYM    DATA     BIT       F1
      0000009CH   SFRSYM    DATA     BYTE      PWM1_H_H
      000000A1H   SFRSYM    DATA     BYTE      PWM2_H_H
      000000D0H   SFRSYM    DATA     BYTE      PSW
      0000009BH   SFRSYM    DATA     BYTE      PWM1_H_L
      0000009AH   SFRSYM    DATA     BYTE      PWM1_L_H
      0000009FH   SFRSYM    DATA     BYTE      PWM2_H_L
      0000009EH   SFRSYM    DATA     BYTE      PWM2_L_H
      000000E8H.6 SFRSYM    DATA     BIT       IIC_STOP

      01003333H   BLOCK     CODE     ---       LVL=0
      00000006H   SYMBOL    DATA     WORD      us
      01003333H   LINE      CODE     ---       #29
      01003333H   LINE      CODE     ---       #30
      01003333H   LINE      CODE     ---       #31
      0100333CH   LINE      CODE     ---       #32
      0100333CH   LINE      CODE     ---       #33
      0100333FH   LINE      CODE     ---       #34
      01003346H   LINE      CODE     ---       #35
      ---         BLOCKEND  ---      ---       LVL=0

      010031CDH   BLOCK     CODE     ---       LVL=0
      010031CDH   LINE      CODE     ---       #48
      010031CDH   LINE      CODE     ---       #49
      010031CDH   LINE      CODE     ---       #50
      010031D0H   LINE      CODE     ---       #51
      010031D0H   LINE      CODE     ---       #52
      010031D8H   LINE      CODE     ---       #53
      010031E1H   LINE      CODE     ---       #54
      010031E1H   LINE      CODE     ---       #55
      010031E4H   LINE      CODE     ---       #56
      010031E9H   LINE      CODE     ---       #57
      010031EBH   LINE      CODE     ---       #58
      010031EBH   LINE      CODE     ---       #59
      010031EBH   LINE      CODE     ---       #60
      ---         BLOCKEND  ---      ---       LVL=0

LX51 LINKER/LOCATER V4.66.97.0                                                        05/09/2023  16:57:25  PAGE 51


      010023F8H   BLOCK     CODE     ---       LVL=0
      00000003H   SYMBOL    DATA     BYTE      adc_ch
      010023F8H   LINE      CODE     ---       #109
      010023FAH   LINE      CODE     ---       #110
      010023FAH   LINE      CODE     ---       #111
      010023FDH   LINE      CODE     ---       #113
      01002440H   LINE      CODE     ---       #115
      01002455H   LINE      CODE     ---       #116
      01002455H   LINE      CODE     ---       #117
      0100245FH   LINE      CODE     ---       #118
      01002461H   LINE      CODE     ---       #120
      01002461H   LINE      CODE     ---       #121
      01002464H   LINE      CODE     ---       #122
      01002464H   LINE      CODE     ---       #124
      01002467H   LINE      CODE     ---       #125
      0100246EH   LINE      CODE     ---       #126
      01002474H   LINE      CODE     ---       #128
      01002476H   LINE      CODE     ---       #129
      0100247BH   LINE      CODE     ---       #130
      01002480H   LINE      CODE     ---       #131
      01002482H   LINE      CODE     ---       #133
      01002485H   LINE      CODE     ---       #134
      0100248BH   LINE      CODE     ---       #136
      01002498H   LINE      CODE     ---       #137
      ---         BLOCKEND  ---      ---       LVL=0

      01002CE5H   BLOCK     CODE     ---       LVL=0
      01002CE5H   LINE      CODE     ---       #147
      01002CE5H   LINE      CODE     ---       #148
      01002CE5H   LINE      CODE     ---       #154
      01002CE7H   LINE      CODE     ---       #155
      01002CEAH   LINE      CODE     ---       #156
      01002CEDH   LINE      CODE     ---       #157
      01002CF7H   LINE      CODE     ---       #159
      01002CFAH   LINE      CODE     ---       #160
      01002D00H   LINE      CODE     ---       #161
      01002D06H   LINE      CODE     ---       #162
      01002D0CH   LINE      CODE     ---       #163
      01002D0FH   LINE      CODE     ---       #164
      01002D15H   LINE      CODE     ---       #165
      01002D1BH   LINE      CODE     ---       #166
      01002D1EH   LINE      CODE     ---       #168
      01002D24H   LINE      CODE     ---       #169
      01002D2AH   LINE      CODE     ---       #170
      01002D33H   LINE      CODE     ---       #174
      01002D36H   LINE      CODE     ---       #175
      01002D39H   LINE      CODE     ---       #178
      01002D3BH   LINE      CODE     ---       #180
      ---         BLOCKEND  ---      ---       LVL=0

      01000017H   BLOCK     CODE     ---       LVL=0
      00000007H   SYMBOL    DATA     BYTE      adc_ch
      01000017H   BLOCK     CODE     NEAR LAB  LVL=1
      00000007H   SYMBOL    DATA     BYTE      i
      ---         BLOCKEND  ---      ---       LVL=1
      01000017H   LINE      CODE     ---       #278
      01000017H   LINE      CODE     ---       #279
      01000017H   LINE      CODE     ---       #281
      ---         BLOCKEND  ---      ---       LVL=0

      ---         MODULE    ---      ---       XS16TK06X_EEP
      000000C3H   SFRSYM    DATA     BYTE      UART_IO_CTRL1
      00000099H   SFRSYM    DATA     BYTE      PWM1_L_L
      000000F7H   SFRSYM    DATA     BYTE      EXT_INT_CON
      0000009DH   SFRSYM    DATA     BYTE      PWM2_L_L
LX51 LINKER/LOCATER V4.66.97.0                                                        05/09/2023  16:57:25  PAGE 52


      00000085H   SFRSYM    DATA     BYTE      INT_PE_STAT
      000000B5H   SFRSYM    DATA     BYTE      ADC_SCAN_CFG
      000000A0H   SFRSYM    DATA     BYTE      P2_XH
      000000D0H.6 SFRSYM    DATA     BIT       AC
      000000EAH   SFRSYM    DATA     BYTE      TRISA
      000000E8H.2 SFRSYM    DATA     BIT       IIC_ACK
      000000A8H.7 SFRSYM    DATA     BIT       EA
      000000EBH   SFRSYM    DATA     BYTE      TRISB
      000000ECH   SFRSYM    DATA     BYTE      TRISC
      000000D8H   SFRSYM    DATA     BYTE      PD_PB
      00000091H   SFRSYM    DATA     BYTE      WDT_CTRL
      000000EDH   SFRSYM    DATA     BYTE      TRISD
      000000FBH   SFRSYM    DATA     BYTE      SPROG_DATA
      000000F2H   SFRSYM    DATA     BYTE      PERIPH_IO_SEL
      000000B1H   SFRSYM    DATA     BYTE      SCAN_WIDTH
      000000CFH   SFRSYM    DATA     BYTE      CSD_RAWDATAH
      000000A8H   SFRSYM    DATA     BYTE      IEN0
      000000E6H   SFRSYM    DATA     BYTE      IEN1
      000000E7H   SFRSYM    DATA     BYTE      IEN2
      000000CEH   SFRSYM    DATA     BYTE      CSD_RAWDATAL
      000000AEH   SFRSYM    DATA     BYTE      PWM0_MOD_H
      000000E9H   SFRSYM    DATA     BYTE      IICBUFFER
      000000ADH   SFRSYM    DATA     BYTE      PWM0_MOD_L
      000000C0H.1 SFRSYM    DATA     BIT       UART0_F
      000000E8H   SFRSYM    DATA     BYTE      IICSTAT
      000000C8H.1 SFRSYM    DATA     BIT       UART1_F
      000000B8H   SFRSYM    DATA     BYTE      IPL0
      000000F6H   SFRSYM    DATA     BYTE      IPL1
      000000DDH   SFRSYM    DATA     BYTE      PU_PA
      000000AFH   SFRSYM    DATA     BYTE      SCAN_START
      000000F4H   SFRSYM    DATA     BYTE      IPL2
      000000DEH   SFRSYM    DATA     BYTE      PU_PB
      000000D7H   SFRSYM    DATA     BYTE      RST_STAT
      0000008EH   SFRSYM    DATA     BYTE      SOFT_RST
      000000DFH   SFRSYM    DATA     BYTE      PU_PC
      000000E2H   SFRSYM    DATA     BYTE      PU_PD
      000000D1H   SFRSYM    DATA     BYTE      PULL_I_SELA_L
      000000B6H   SFRSYM    DATA     BYTE      ADCCKC
      000000D0H.7 SFRSYM    DATA     BIT       CY
      00000086H   SFRSYM    DATA     BYTE      INT_POBO_STAT
      000000C0H.0 SFRSYM    DATA     BIT       UART0_P
      000000EEH   SFRSYM    DATA     BYTE      COM_IO_SEL
      000000C8H.0 SFRSYM    DATA     BIT       UART1_P
      000000E3H   SFRSYM    DATA     BYTE      IICADD
      000000BDH   SFRSYM    DATA     BYTE      UART0_BDL
      000000B4H   SFRSYM    DATA     BYTE      ADC_SPT
      000000C5H   SFRSYM    DATA     BYTE      UART1_BDL
      00000081H   SFRSYM    DATA     BYTE      SP
      000000D0H.2 SFRSYM    DATA     BIT       OV
      000000A3H   SFRSYM    DATA     BYTE      PWM0_CH_CTRL
      000000BBH   SFRSYM    DATA     BYTE      ADC_CFG1
      00000094H   SFRSYM    DATA     BYTE      TIMER2_SET_H
      000000C1H   SFRSYM    DATA     BYTE      UART0_BUF
      000000BCH   SFRSYM    DATA     BYTE      ADC_CFG2
      000000C9H   SFRSYM    DATA     BYTE      UART1_BUF
      000000F1H   SFRSYM    DATA     BYTE      IRCON1
      000000E1H   SFRSYM    DATA     BYTE      IRCON2
      00000095H   SFRSYM    DATA     BYTE      TIMER2_SET_L
      000000A5H   SFRSYM    DATA     BYTE      PWM0_CH0_CNT_H
      000000A7H   SFRSYM    DATA     BYTE      PWM0_CH1_CNT_H
      00000087H   SFRSYM    DATA     BYTE      PCON
      000000F9H   SFRSYM    DATA     BYTE      SPROG_ADDR_H
      000000B3H   SFRSYM    DATA     BYTE      LED_DRIVE
      000000AAH   SFRSYM    DATA     BYTE      PWM0_CH2_CNT_H
      000000EFH   SFRSYM    DATA     BYTE      ODRAIN_EN
LX51 LINKER/LOCATER V4.66.97.0                                                        05/09/2023  16:57:25  PAGE 53


      000000ACH   SFRSYM    DATA     BYTE      PWM0_CH3_CNT_H
      000000E4H   SFRSYM    DATA     BYTE      IICBUF
      000000A4H   SFRSYM    DATA     BYTE      PWM0_CH0_CNT_L
      000000A6H   SFRSYM    DATA     BYTE      PWM0_CH1_CNT_L
      00000089H   SFRSYM    DATA     BYTE      TMOD
      00000088H   SFRSYM    DATA     BYTE      TCON
      000000FAH   SFRSYM    DATA     BYTE      SPROG_ADDR_L
      000000A9H   SFRSYM    DATA     BYTE      PWM0_CH2_CNT_L
      000000E8H.0 SFRSYM    DATA     BIT       IIC_RECOV
      000000E5H   SFRSYM    DATA     BYTE      IICCON
      000000ABH   SFRSYM    DATA     BYTE      PWM0_CH3_CNT_L
      000000D9H   SFRSYM    DATA     BYTE      ADC_IO_SEL1
      000000DAH   SFRSYM    DATA     BYTE      ADC_IO_SEL2
      000000DBH   SFRSYM    DATA     BYTE      ADC_IO_SEL3
      000000E8H.4 SFRSYM    DATA     BIT       IIC_AD
      000000DCH   SFRSYM    DATA     BYTE      ADC_IO_SEL4
      000000E8H.3 SFRSYM    DATA     BIT       IIC_BF
      00000088H.1 SFRSYM    DATA     BIT       IE0
      00000088H.3 SFRSYM    DATA     BIT       IE1
      000000C4H   SFRSYM    DATA     BYTE      LED_IO_START
      000000F8H.0 SFRSYM    DATA     BIT       PA0
      000000F0H   SFRSYM    DATA     BYTE      B
      00000080H.0 SFRSYM    DATA     BIT       PB0
      000000F8H.1 SFRSYM    DATA     BIT       PA1
      000000FCH   SFRSYM    DATA     BYTE      SPROG_CMD
      00000090H.0 SFRSYM    DATA     BIT       PC0
      00000080H.1 SFRSYM    DATA     BIT       PB1
      00000098H.0 SFRSYM    DATA     BIT       PD0
      00000090H.1 SFRSYM    DATA     BIT       PC1
      00000080H.2 SFRSYM    DATA     BIT       PB2
      00000098H.1 SFRSYM    DATA     BIT       PD1
      00000090H.2 SFRSYM    DATA     BIT       PC2
      00000080H.3 SFRSYM    DATA     BIT       PB3
      000000FEH   SFRSYM    DATA     BYTE      PD_ANA
      000000E8H.7 SFRSYM    DATA     BIT       IIC_START
      00000098H.2 SFRSYM    DATA     BIT       PD2
      00000090H.3 SFRSYM    DATA     BIT       PC3
      00000080H.4 SFRSYM    DATA     BIT       PB4
      00000098H.3 SFRSYM    DATA     BIT       PD3
      00000090H.4 SFRSYM    DATA     BIT       PC4
      00000080H.5 SFRSYM    DATA     BIT       PB5
      000000E0H   SFRSYM    DATA     BYTE      ACC
      00000098H.4 SFRSYM    DATA     BIT       PD4
      00000090H.5 SFRSYM    DATA     BIT       PC5
      00000080H.6 SFRSYM    DATA     BIT       PB6
      000000A8H.1 SFRSYM    DATA     BIT       ET0
      00000098H.5 SFRSYM    DATA     BIT       PD5
      00000090H.6 SFRSYM    DATA     BIT       PC6
      00000080H.7 SFRSYM    DATA     BIT       PB7
      000000A8H.3 SFRSYM    DATA     BIT       ET1
      00000098H.6 SFRSYM    DATA     BIT       PD6
      00000090H.7 SFRSYM    DATA     BIT       PC7
      00000088H.5 SFRSYM    DATA     BIT       TF0
      000000C0H.3 SFRSYM    DATA     BIT       RI0
      00000098H.7 SFRSYM    DATA     BIT       PD7
      00000088H.7 SFRSYM    DATA     BIT       TF1
      000000CAH   SFRSYM    DATA     BYTE      CSD_START
      000000C8H.3 SFRSYM    DATA     BIT       RI1
      0000008CH   SFRSYM    DATA     BYTE      TH0
      000000C0H.4 SFRSYM    DATA     BIT       TI0
      000000A8H.0 SFRSYM    DATA     BIT       EX0
      000000C2H   SFRSYM    DATA     BYTE      UART_IO_CTRL
      0000008DH   SFRSYM    DATA     BYTE      TH1
      000000C8H.4 SFRSYM    DATA     BIT       TI1
      000000A8H.2 SFRSYM    DATA     BIT       EX1
LX51 LINKER/LOCATER V4.66.97.0                                                        05/09/2023  16:57:25  PAGE 54


      000000D0H.0 SFRSYM    DATA     BIT       P
      0000008AH   SFRSYM    DATA     BYTE      TL0
      000000C0H   SFRSYM    DATA     BYTE      UART0_STATE
      0000008BH   SFRSYM    DATA     BYTE      TL1
      000000C8H   SFRSYM    DATA     BYTE      UART1_STATE
      000000FFH   SFRSYM    DATA     BYTE      BOR_LVDT_VTH
      000000B8H.1 SFRSYM    DATA     BIT       PT0
      000000D0H.3 SFRSYM    DATA     BIT       RS0
      000000B8H.3 SFRSYM    DATA     BIT       PT1
      000000B0H   SFRSYM    DATA     BYTE      DP_CON
      000000D0H.4 SFRSYM    DATA     BIT       RS1
      00000088H.4 SFRSYM    DATA     BIT       TR0
      00000088H.6 SFRSYM    DATA     BIT       TR1
      000000D2H   SFRSYM    DATA     BYTE      SNS_ANA_CFG
      000000C0H.6 SFRSYM    DATA     BIT       UART0_R8
      000000B8H.0 SFRSYM    DATA     BIT       PX0
      000000FDH   SFRSYM    DATA     BYTE      SPROG_TIM
      000000C8H.6 SFRSYM    DATA     BIT       UART1_R8
      000000B8H.2 SFRSYM    DATA     BIT       PX1
      000000C0H.5 SFRSYM    DATA     BIT       UART0_T8
      00000097H   SFRSYM    DATA     BYTE      REG_DATA
      000000C8H.5 SFRSYM    DATA     BIT       UART1_T8
      00000096H   SFRSYM    DATA     BYTE      REG_ADDR
      000000F8H   SFRSYM    DATA     BYTE      DATAA
      00000083H   SFRSYM    DATA     BYTE      DPH
      00000080H   SFRSYM    DATA     BYTE      DATAB
      000000CBH   SFRSYM    DATA     BYTE      SNS_SCAN_CFG1
      00000090H   SFRSYM    DATA     BYTE      DATAC
      000000E8H.5 SFRSYM    DATA     BIT       IIC_RW
      000000CCH   SFRSYM    DATA     BYTE      SNS_SCAN_CFG2
      000000B9H   SFRSYM    DATA     BYTE      ADC_RDATAH
      00000098H   SFRSYM    DATA     BYTE      DATAD
      000000CDH   SFRSYM    DATA     BYTE      SNS_SCAN_CFG3
      000000BEH   SFRSYM    DATA     BYTE      UART0_CON1
      00000082H   SFRSYM    DATA     BYTE      DPL
      000000C6H   SFRSYM    DATA     BYTE      UART1_CON1
      000000BFH   SFRSYM    DATA     BYTE      UART0_CON2
      000000C7H   SFRSYM    DATA     BYTE      UART1_CON2
      000000BAH   SFRSYM    DATA     BYTE      ADC_RDATAL
      00000092H   SFRSYM    DATA     BYTE      WDT_EN
      000000D3H   SFRSYM    DATA     BYTE      SNS_IO_SEL1
      000000D4H   SFRSYM    DATA     BYTE      SNS_IO_SEL2
      000000D5H   SFRSYM    DATA     BYTE      SNS_IO_SEL3
      00000093H   SFRSYM    DATA     BYTE      TIMER2_CFG
      000000D6H   SFRSYM    DATA     BYTE      SNS_IO_SEL4
      000000A2H   SFRSYM    DATA     BYTE      PWM_EN
      000000B2H   SFRSYM    DATA     BYTE      LED2_WIDTH
      000000E8H.1 SFRSYM    DATA     BIT       IIC_WCOL
      00000084H   SFRSYM    DATA     BYTE      SYS_CLK_CFG
      000000C0H.2 SFRSYM    DATA     BIT       UART0_RO
      000000C8H.2 SFRSYM    DATA     BIT       UART1_RO
      000000D0H.5 SFRSYM    DATA     BIT       F0
      000000D0H.1 SFRSYM    DATA     BIT       F1
      0000009CH   SFRSYM    DATA     BYTE      PWM1_H_H
      000000A1H   SFRSYM    DATA     BYTE      PWM2_H_H
      000000D0H   SFRSYM    DATA     BYTE      PSW
      0000009BH   SFRSYM    DATA     BYTE      PWM1_H_L
      0000009AH   SFRSYM    DATA     BYTE      PWM1_L_H
      0000009FH   SFRSYM    DATA     BYTE      PWM2_H_L
      0000009EH   SFRSYM    DATA     BYTE      PWM2_L_H
      000000E8H.6 SFRSYM    DATA     BIT       IIC_STOP

      ---         MODULE    ---      ---       XS16TK06X_IDLE
      000000C3H   SFRSYM    DATA     BYTE      UART_IO_CTRL1
      00000099H   SFRSYM    DATA     BYTE      PWM1_L_L
LX51 LINKER/LOCATER V4.66.97.0                                                        05/09/2023  16:57:25  PAGE 55


      000000F7H   SFRSYM    DATA     BYTE      EXT_INT_CON
      0000009DH   SFRSYM    DATA     BYTE      PWM2_L_L
      00000085H   SFRSYM    DATA     BYTE      INT_PE_STAT
      000000B5H   SFRSYM    DATA     BYTE      ADC_SCAN_CFG
      000000A0H   SFRSYM    DATA     BYTE      P2_XH
      000000D0H.6 SFRSYM    DATA     BIT       AC
      000000EAH   SFRSYM    DATA     BYTE      TRISA
      000000E8H.2 SFRSYM    DATA     BIT       IIC_ACK
      000000A8H.7 SFRSYM    DATA     BIT       EA
      000000EBH   SFRSYM    DATA     BYTE      TRISB
      000000ECH   SFRSYM    DATA     BYTE      TRISC
      000000D8H   SFRSYM    DATA     BYTE      PD_PB
      00000091H   SFRSYM    DATA     BYTE      WDT_CTRL
      000000EDH   SFRSYM    DATA     BYTE      TRISD
      000000FBH   SFRSYM    DATA     BYTE      SPROG_DATA
      000000F2H   SFRSYM    DATA     BYTE      PERIPH_IO_SEL
      000000B1H   SFRSYM    DATA     BYTE      SCAN_WIDTH
      000000CFH   SFRSYM    DATA     BYTE      CSD_RAWDATAH
      000000A8H   SFRSYM    DATA     BYTE      IEN0
      000000E6H   SFRSYM    DATA     BYTE      IEN1
      000000E7H   SFRSYM    DATA     BYTE      IEN2
      000000CEH   SFRSYM    DATA     BYTE      CSD_RAWDATAL
      000000AEH   SFRSYM    DATA     BYTE      PWM0_MOD_H
      000000E9H   SFRSYM    DATA     BYTE      IICBUFFER
      000000ADH   SFRSYM    DATA     BYTE      PWM0_MOD_L
      000000C0H.1 SFRSYM    DATA     BIT       UART0_F
      000000E8H   SFRSYM    DATA     BYTE      IICSTAT
      000000C8H.1 SFRSYM    DATA     BIT       UART1_F
      000000B8H   SFRSYM    DATA     BYTE      IPL0
      000000F6H   SFRSYM    DATA     BYTE      IPL1
      000000DDH   SFRSYM    DATA     BYTE      PU_PA
      000000AFH   SFRSYM    DATA     BYTE      SCAN_START
      000000F4H   SFRSYM    DATA     BYTE      IPL2
      000000DEH   SFRSYM    DATA     BYTE      PU_PB
      000000D7H   SFRSYM    DATA     BYTE      RST_STAT
      0000008EH   SFRSYM    DATA     BYTE      SOFT_RST
      000000DFH   SFRSYM    DATA     BYTE      PU_PC
      000000E2H   SFRSYM    DATA     BYTE      PU_PD
      000000D1H   SFRSYM    DATA     BYTE      PULL_I_SELA_L
      000000B6H   SFRSYM    DATA     BYTE      ADCCKC
      000000D0H.7 SFRSYM    DATA     BIT       CY
      00000086H   SFRSYM    DATA     BYTE      INT_POBO_STAT
      000000C0H.0 SFRSYM    DATA     BIT       UART0_P
      000000EEH   SFRSYM    DATA     BYTE      COM_IO_SEL
      000000C8H.0 SFRSYM    DATA     BIT       UART1_P
      000000E3H   SFRSYM    DATA     BYTE      IICADD
      000000BDH   SFRSYM    DATA     BYTE      UART0_BDL
      000000B4H   SFRSYM    DATA     BYTE      ADC_SPT
      000000C5H   SFRSYM    DATA     BYTE      UART1_BDL
      00000081H   SFRSYM    DATA     BYTE      SP
      000000D0H.2 SFRSYM    DATA     BIT       OV
      000000A3H   SFRSYM    DATA     BYTE      PWM0_CH_CTRL
      000000BBH   SFRSYM    DATA     BYTE      ADC_CFG1
      00000094H   SFRSYM    DATA     BYTE      TIMER2_SET_H
      000000C1H   SFRSYM    DATA     BYTE      UART0_BUF
      000000BCH   SFRSYM    DATA     BYTE      ADC_CFG2
      000000C9H   SFRSYM    DATA     BYTE      UART1_BUF
      000000F1H   SFRSYM    DATA     BYTE      IRCON1
      000000E1H   SFRSYM    DATA     BYTE      IRCON2
      00000095H   SFRSYM    DATA     BYTE      TIMER2_SET_L
      000000A5H   SFRSYM    DATA     BYTE      PWM0_CH0_CNT_H
      000000A7H   SFRSYM    DATA     BYTE      PWM0_CH1_CNT_H
      00000087H   SFRSYM    DATA     BYTE      PCON
      000000F9H   SFRSYM    DATA     BYTE      SPROG_ADDR_H
      000000B3H   SFRSYM    DATA     BYTE      LED_DRIVE
LX51 LINKER/LOCATER V4.66.97.0                                                        05/09/2023  16:57:25  PAGE 56


      000000AAH   SFRSYM    DATA     BYTE      PWM0_CH2_CNT_H
      000000EFH   SFRSYM    DATA     BYTE      ODRAIN_EN
      000000ACH   SFRSYM    DATA     BYTE      PWM0_CH3_CNT_H
      000000E4H   SFRSYM    DATA     BYTE      IICBUF
      000000A4H   SFRSYM    DATA     BYTE      PWM0_CH0_CNT_L
      000000A6H   SFRSYM    DATA     BYTE      PWM0_CH1_CNT_L
      00000089H   SFRSYM    DATA     BYTE      TMOD
      00000088H   SFRSYM    DATA     BYTE      TCON
      000000FAH   SFRSYM    DATA     BYTE      SPROG_ADDR_L
      000000A9H   SFRSYM    DATA     BYTE      PWM0_CH2_CNT_L
      000000E8H.0 SFRSYM    DATA     BIT       IIC_RECOV
      000000E5H   SFRSYM    DATA     BYTE      IICCON
      000000ABH   SFRSYM    DATA     BYTE      PWM0_CH3_CNT_L
      000000D9H   SFRSYM    DATA     BYTE      ADC_IO_SEL1
      000000DAH   SFRSYM    DATA     BYTE      ADC_IO_SEL2
      000000DBH   SFRSYM    DATA     BYTE      ADC_IO_SEL3
      000000E8H.4 SFRSYM    DATA     BIT       IIC_AD
      000000DCH   SFRSYM    DATA     BYTE      ADC_IO_SEL4
      000000E8H.3 SFRSYM    DATA     BIT       IIC_BF
      00000088H.1 SFRSYM    DATA     BIT       IE0
      00000088H.3 SFRSYM    DATA     BIT       IE1
      000000C4H   SFRSYM    DATA     BYTE      LED_IO_START
      000000F8H.0 SFRSYM    DATA     BIT       PA0
      000000F0H   SFRSYM    DATA     BYTE      B
      00000080H.0 SFRSYM    DATA     BIT       PB0
      000000F8H.1 SFRSYM    DATA     BIT       PA1
      000000FCH   SFRSYM    DATA     BYTE      SPROG_CMD
      00000090H.0 SFRSYM    DATA     BIT       PC0
      00000080H.1 SFRSYM    DATA     BIT       PB1
      00000098H.0 SFRSYM    DATA     BIT       PD0
      00000090H.1 SFRSYM    DATA     BIT       PC1
      00000080H.2 SFRSYM    DATA     BIT       PB2
      00000098H.1 SFRSYM    DATA     BIT       PD1
      00000090H.2 SFRSYM    DATA     BIT       PC2
      00000080H.3 SFRSYM    DATA     BIT       PB3
      000000FEH   SFRSYM    DATA     BYTE      PD_ANA
      000000E8H.7 SFRSYM    DATA     BIT       IIC_START
      00000098H.2 SFRSYM    DATA     BIT       PD2
      00000090H.3 SFRSYM    DATA     BIT       PC3
      00000080H.4 SFRSYM    DATA     BIT       PB4
      00000098H.3 SFRSYM    DATA     BIT       PD3
      00000090H.4 SFRSYM    DATA     BIT       PC4
      00000080H.5 SFRSYM    DATA     BIT       PB5
      000000E0H   SFRSYM    DATA     BYTE      ACC
      00000098H.4 SFRSYM    DATA     BIT       PD4
      00000090H.5 SFRSYM    DATA     BIT       PC5
      00000080H.6 SFRSYM    DATA     BIT       PB6
      000000A8H.1 SFRSYM    DATA     BIT       ET0
      00000098H.5 SFRSYM    DATA     BIT       PD5
      00000090H.6 SFRSYM    DATA     BIT       PC6
      00000080H.7 SFRSYM    DATA     BIT       PB7
      000000A8H.3 SFRSYM    DATA     BIT       ET1
      00000098H.6 SFRSYM    DATA     BIT       PD6
      00000090H.7 SFRSYM    DATA     BIT       PC7
      00000088H.5 SFRSYM    DATA     BIT       TF0
      000000C0H.3 SFRSYM    DATA     BIT       RI0
      00000098H.7 SFRSYM    DATA     BIT       PD7
      00000088H.7 SFRSYM    DATA     BIT       TF1
      000000CAH   SFRSYM    DATA     BYTE      CSD_START
      000000C8H.3 SFRSYM    DATA     BIT       RI1
      0000008CH   SFRSYM    DATA     BYTE      TH0
      000000C0H.4 SFRSYM    DATA     BIT       TI0
      000000A8H.0 SFRSYM    DATA     BIT       EX0
      000000C2H   SFRSYM    DATA     BYTE      UART_IO_CTRL
      0000008DH   SFRSYM    DATA     BYTE      TH1
LX51 LINKER/LOCATER V4.66.97.0                                                        05/09/2023  16:57:25  PAGE 57


      000000C8H.4 SFRSYM    DATA     BIT       TI1
      000000A8H.2 SFRSYM    DATA     BIT       EX1
      000000D0H.0 SFRSYM    DATA     BIT       P
      0000008AH   SFRSYM    DATA     BYTE      TL0
      000000C0H   SFRSYM    DATA     BYTE      UART0_STATE
      0000008BH   SFRSYM    DATA     BYTE      TL1
      000000C8H   SFRSYM    DATA     BYTE      UART1_STATE
      000000FFH   SFRSYM    DATA     BYTE      BOR_LVDT_VTH
      000000B8H.1 SFRSYM    DATA     BIT       PT0
      000000D0H.3 SFRSYM    DATA     BIT       RS0
      000000B8H.3 SFRSYM    DATA     BIT       PT1
      000000B0H   SFRSYM    DATA     BYTE      DP_CON
      000000D0H.4 SFRSYM    DATA     BIT       RS1
      00000088H.4 SFRSYM    DATA     BIT       TR0
      00000088H.6 SFRSYM    DATA     BIT       TR1
      000000D2H   SFRSYM    DATA     BYTE      SNS_ANA_CFG
      000000C0H.6 SFRSYM    DATA     BIT       UART0_R8
      000000B8H.0 SFRSYM    DATA     BIT       PX0
      000000FDH   SFRSYM    DATA     BYTE      SPROG_TIM
      000000C8H.6 SFRSYM    DATA     BIT       UART1_R8
      000000B8H.2 SFRSYM    DATA     BIT       PX1
      000000C0H.5 SFRSYM    DATA     BIT       UART0_T8
      00000097H   SFRSYM    DATA     BYTE      REG_DATA
      000000C8H.5 SFRSYM    DATA     BIT       UART1_T8
      00000096H   SFRSYM    DATA     BYTE      REG_ADDR
      000000F8H   SFRSYM    DATA     BYTE      DATAA
      00000083H   SFRSYM    DATA     BYTE      DPH
      00000080H   SFRSYM    DATA     BYTE      DATAB
      000000CBH   SFRSYM    DATA     BYTE      SNS_SCAN_CFG1
      00000090H   SFRSYM    DATA     BYTE      DATAC
      000000E8H.5 SFRSYM    DATA     BIT       IIC_RW
      000000CCH   SFRSYM    DATA     BYTE      SNS_SCAN_CFG2
      000000B9H   SFRSYM    DATA     BYTE      ADC_RDATAH
      00000098H   SFRSYM    DATA     BYTE      DATAD
      000000CDH   SFRSYM    DATA     BYTE      SNS_SCAN_CFG3
      000000BEH   SFRSYM    DATA     BYTE      UART0_CON1
      00000082H   SFRSYM    DATA     BYTE      DPL
      000000C6H   SFRSYM    DATA     BYTE      UART1_CON1
      000000BFH   SFRSYM    DATA     BYTE      UART0_CON2
      000000C7H   SFRSYM    DATA     BYTE      UART1_CON2
      000000BAH   SFRSYM    DATA     BYTE      ADC_RDATAL
      00000092H   SFRSYM    DATA     BYTE      WDT_EN
      000000D3H   SFRSYM    DATA     BYTE      SNS_IO_SEL1
      000000D4H   SFRSYM    DATA     BYTE      SNS_IO_SEL2
      000000D5H   SFRSYM    DATA     BYTE      SNS_IO_SEL3
      00000093H   SFRSYM    DATA     BYTE      TIMER2_CFG
      000000D6H   SFRSYM    DATA     BYTE      SNS_IO_SEL4
      000000A2H   SFRSYM    DATA     BYTE      PWM_EN
      000000B2H   SFRSYM    DATA     BYTE      LED2_WIDTH
      000000E8H.1 SFRSYM    DATA     BIT       IIC_WCOL
      00000084H   SFRSYM    DATA     BYTE      SYS_CLK_CFG
      000000C0H.2 SFRSYM    DATA     BIT       UART0_RO
      000000C8H.2 SFRSYM    DATA     BIT       UART1_RO
      000000D0H.5 SFRSYM    DATA     BIT       F0
      000000D0H.1 SFRSYM    DATA     BIT       F1
      0000009CH   SFRSYM    DATA     BYTE      PWM1_H_H
      000000A1H   SFRSYM    DATA     BYTE      PWM2_H_H
      000000D0H   SFRSYM    DATA     BYTE      PSW
      0000009BH   SFRSYM    DATA     BYTE      PWM1_H_L
      0000009AH   SFRSYM    DATA     BYTE      PWM1_L_H
      0000009FH   SFRSYM    DATA     BYTE      PWM2_H_L
      0000009EH   SFRSYM    DATA     BYTE      PWM2_L_H
      000000E8H.6 SFRSYM    DATA     BIT       IIC_STOP

      ---         MODULE    ---      ---       XS16TK06X_IIC
LX51 LINKER/LOCATER V4.66.97.0                                                        05/09/2023  16:57:25  PAGE 58


      000000C3H   SFRSYM    DATA     BYTE      UART_IO_CTRL1
      00000099H   SFRSYM    DATA     BYTE      PWM1_L_L
      000000F7H   SFRSYM    DATA     BYTE      EXT_INT_CON
      0000009DH   SFRSYM    DATA     BYTE      PWM2_L_L
      00000085H   SFRSYM    DATA     BYTE      INT_PE_STAT
      000000B5H   SFRSYM    DATA     BYTE      ADC_SCAN_CFG
      000000A0H   SFRSYM    DATA     BYTE      P2_XH
      000000D0H.6 SFRSYM    DATA     BIT       AC
      000000EAH   SFRSYM    DATA     BYTE      TRISA
      000000E8H.2 SFRSYM    DATA     BIT       IIC_ACK
      000000A8H.7 SFRSYM    DATA     BIT       EA
      000000EBH   SFRSYM    DATA     BYTE      TRISB
      000000ECH   SFRSYM    DATA     BYTE      TRISC
      000000D8H   SFRSYM    DATA     BYTE      PD_PB
      00000091H   SFRSYM    DATA     BYTE      WDT_CTRL
      000000EDH   SFRSYM    DATA     BYTE      TRISD
      000000FBH   SFRSYM    DATA     BYTE      SPROG_DATA
      000000F2H   SFRSYM    DATA     BYTE      PERIPH_IO_SEL
      000000B1H   SFRSYM    DATA     BYTE      SCAN_WIDTH
      000000CFH   SFRSYM    DATA     BYTE      CSD_RAWDATAH
      000000A8H   SFRSYM    DATA     BYTE      IEN0
      000000E6H   SFRSYM    DATA     BYTE      IEN1
      000000E7H   SFRSYM    DATA     BYTE      IEN2
      000000CEH   SFRSYM    DATA     BYTE      CSD_RAWDATAL
      000000AEH   SFRSYM    DATA     BYTE      PWM0_MOD_H
      000000E9H   SFRSYM    DATA     BYTE      IICBUFFER
      000000ADH   SFRSYM    DATA     BYTE      PWM0_MOD_L
      000000C0H.1 SFRSYM    DATA     BIT       UART0_F
      000000E8H   SFRSYM    DATA     BYTE      IICSTAT
      000000C8H.1 SFRSYM    DATA     BIT       UART1_F
      000000B8H   SFRSYM    DATA     BYTE      IPL0
      000000F6H   SFRSYM    DATA     BYTE      IPL1
      000000DDH   SFRSYM    DATA     BYTE      PU_PA
      000000AFH   SFRSYM    DATA     BYTE      SCAN_START
      000000F4H   SFRSYM    DATA     BYTE      IPL2
      000000DEH   SFRSYM    DATA     BYTE      PU_PB
      000000D7H   SFRSYM    DATA     BYTE      RST_STAT
      0000008EH   SFRSYM    DATA     BYTE      SOFT_RST
      000000DFH   SFRSYM    DATA     BYTE      PU_PC
      000000E2H   SFRSYM    DATA     BYTE      PU_PD
      000000D1H   SFRSYM    DATA     BYTE      PULL_I_SELA_L
      000000B6H   SFRSYM    DATA     BYTE      ADCCKC
      000000D0H.7 SFRSYM    DATA     BIT       CY
      00000086H   SFRSYM    DATA     BYTE      INT_POBO_STAT
      000000C0H.0 SFRSYM    DATA     BIT       UART0_P
      000000EEH   SFRSYM    DATA     BYTE      COM_IO_SEL
      000000C8H.0 SFRSYM    DATA     BIT       UART1_P
      000000E3H   SFRSYM    DATA     BYTE      IICADD
      000000BDH   SFRSYM    DATA     BYTE      UART0_BDL
      000000B4H   SFRSYM    DATA     BYTE      ADC_SPT
      000000C5H   SFRSYM    DATA     BYTE      UART1_BDL
      00000081H   SFRSYM    DATA     BYTE      SP
      000000D0H.2 SFRSYM    DATA     BIT       OV
      000000A3H   SFRSYM    DATA     BYTE      PWM0_CH_CTRL
      000000BBH   SFRSYM    DATA     BYTE      ADC_CFG1
      00000094H   SFRSYM    DATA     BYTE      TIMER2_SET_H
      000000C1H   SFRSYM    DATA     BYTE      UART0_BUF
      000000BCH   SFRSYM    DATA     BYTE      ADC_CFG2
      000000C9H   SFRSYM    DATA     BYTE      UART1_BUF
      000000F1H   SFRSYM    DATA     BYTE      IRCON1
      000000E1H   SFRSYM    DATA     BYTE      IRCON2
      00000095H   SFRSYM    DATA     BYTE      TIMER2_SET_L
      000000A5H   SFRSYM    DATA     BYTE      PWM0_CH0_CNT_H
      000000A7H   SFRSYM    DATA     BYTE      PWM0_CH1_CNT_H
      00000087H   SFRSYM    DATA     BYTE      PCON
LX51 LINKER/LOCATER V4.66.97.0                                                        05/09/2023  16:57:25  PAGE 59


      000000F9H   SFRSYM    DATA     BYTE      SPROG_ADDR_H
      000000B3H   SFRSYM    DATA     BYTE      LED_DRIVE
      000000AAH   SFRSYM    DATA     BYTE      PWM0_CH2_CNT_H
      000000EFH   SFRSYM    DATA     BYTE      ODRAIN_EN
      000000ACH   SFRSYM    DATA     BYTE      PWM0_CH3_CNT_H
      000000E4H   SFRSYM    DATA     BYTE      IICBUF
      000000A4H   SFRSYM    DATA     BYTE      PWM0_CH0_CNT_L
      000000A6H   SFRSYM    DATA     BYTE      PWM0_CH1_CNT_L
      00000089H   SFRSYM    DATA     BYTE      TMOD
      00000088H   SFRSYM    DATA     BYTE      TCON
      000000FAH   SFRSYM    DATA     BYTE      SPROG_ADDR_L
      000000A9H   SFRSYM    DATA     BYTE      PWM0_CH2_CNT_L
      000000E8H.0 SFRSYM    DATA     BIT       IIC_RECOV
      000000E5H   SFRSYM    DATA     BYTE      IICCON
      000000ABH   SFRSYM    DATA     BYTE      PWM0_CH3_CNT_L
      000000D9H   SFRSYM    DATA     BYTE      ADC_IO_SEL1
      000000DAH   SFRSYM    DATA     BYTE      ADC_IO_SEL2
      000000DBH   SFRSYM    DATA     BYTE      ADC_IO_SEL3
      000000E8H.4 SFRSYM    DATA     BIT       IIC_AD
      000000DCH   SFRSYM    DATA     BYTE      ADC_IO_SEL4
      000000E8H.3 SFRSYM    DATA     BIT       IIC_BF
      00000088H.1 SFRSYM    DATA     BIT       IE0
      00000088H.3 SFRSYM    DATA     BIT       IE1
      000000C4H   SFRSYM    DATA     BYTE      LED_IO_START
      000000F8H.0 SFRSYM    DATA     BIT       PA0
      000000F0H   SFRSYM    DATA     BYTE      B
      00000080H.0 SFRSYM    DATA     BIT       PB0
      000000F8H.1 SFRSYM    DATA     BIT       PA1
      000000FCH   SFRSYM    DATA     BYTE      SPROG_CMD
      00000090H.0 SFRSYM    DATA     BIT       PC0
      00000080H.1 SFRSYM    DATA     BIT       PB1
      00000098H.0 SFRSYM    DATA     BIT       PD0
      00000090H.1 SFRSYM    DATA     BIT       PC1
      00000080H.2 SFRSYM    DATA     BIT       PB2
      00000098H.1 SFRSYM    DATA     BIT       PD1
      00000090H.2 SFRSYM    DATA     BIT       PC2
      00000080H.3 SFRSYM    DATA     BIT       PB3
      000000FEH   SFRSYM    DATA     BYTE      PD_ANA
      000000E8H.7 SFRSYM    DATA     BIT       IIC_START
      00000098H.2 SFRSYM    DATA     BIT       PD2
      00000090H.3 SFRSYM    DATA     BIT       PC3
      00000080H.4 SFRSYM    DATA     BIT       PB4
      00000098H.3 SFRSYM    DATA     BIT       PD3
      00000090H.4 SFRSYM    DATA     BIT       PC4
      00000080H.5 SFRSYM    DATA     BIT       PB5
      000000E0H   SFRSYM    DATA     BYTE      ACC
      00000098H.4 SFRSYM    DATA     BIT       PD4
      00000090H.5 SFRSYM    DATA     BIT       PC5
      00000080H.6 SFRSYM    DATA     BIT       PB6
      000000A8H.1 SFRSYM    DATA     BIT       ET0
      00000098H.5 SFRSYM    DATA     BIT       PD5
      00000090H.6 SFRSYM    DATA     BIT       PC6
      00000080H.7 SFRSYM    DATA     BIT       PB7
      000000A8H.3 SFRSYM    DATA     BIT       ET1
      00000098H.6 SFRSYM    DATA     BIT       PD6
      00000090H.7 SFRSYM    DATA     BIT       PC7
      00000088H.5 SFRSYM    DATA     BIT       TF0
      000000C0H.3 SFRSYM    DATA     BIT       RI0
      00000098H.7 SFRSYM    DATA     BIT       PD7
      00000088H.7 SFRSYM    DATA     BIT       TF1
      000000CAH   SFRSYM    DATA     BYTE      CSD_START
      000000C8H.3 SFRSYM    DATA     BIT       RI1
      0000008CH   SFRSYM    DATA     BYTE      TH0
      000000C0H.4 SFRSYM    DATA     BIT       TI0
      000000A8H.0 SFRSYM    DATA     BIT       EX0
LX51 LINKER/LOCATER V4.66.97.0                                                        05/09/2023  16:57:25  PAGE 60


      000000C2H   SFRSYM    DATA     BYTE      UART_IO_CTRL
      0000008DH   SFRSYM    DATA     BYTE      TH1
      000000C8H.4 SFRSYM    DATA     BIT       TI1
      000000A8H.2 SFRSYM    DATA     BIT       EX1
      000000D0H.0 SFRSYM    DATA     BIT       P
      0000008AH   SFRSYM    DATA     BYTE      TL0
      000000C0H   SFRSYM    DATA     BYTE      UART0_STATE
      0000008BH   SFRSYM    DATA     BYTE      TL1
      000000C8H   SFRSYM    DATA     BYTE      UART1_STATE
      000000FFH   SFRSYM    DATA     BYTE      BOR_LVDT_VTH
      000000B8H.1 SFRSYM    DATA     BIT       PT0
      000000D0H.3 SFRSYM    DATA     BIT       RS0
      000000B8H.3 SFRSYM    DATA     BIT       PT1
      000000B0H   SFRSYM    DATA     BYTE      DP_CON
      000000D0H.4 SFRSYM    DATA     BIT       RS1
      00000088H.4 SFRSYM    DATA     BIT       TR0
      00000088H.6 SFRSYM    DATA     BIT       TR1
      000000D2H   SFRSYM    DATA     BYTE      SNS_ANA_CFG
      000000C0H.6 SFRSYM    DATA     BIT       UART0_R8
      000000B8H.0 SFRSYM    DATA     BIT       PX0
      000000FDH   SFRSYM    DATA     BYTE      SPROG_TIM
      000000C8H.6 SFRSYM    DATA     BIT       UART1_R8
      000000B8H.2 SFRSYM    DATA     BIT       PX1
      000000C0H.5 SFRSYM    DATA     BIT       UART0_T8
      00000097H   SFRSYM    DATA     BYTE      REG_DATA
      000000C8H.5 SFRSYM    DATA     BIT       UART1_T8
      00000096H   SFRSYM    DATA     BYTE      REG_ADDR
      000000F8H   SFRSYM    DATA     BYTE      DATAA
      00000083H   SFRSYM    DATA     BYTE      DPH
      00000080H   SFRSYM    DATA     BYTE      DATAB
      000000CBH   SFRSYM    DATA     BYTE      SNS_SCAN_CFG1
      00000090H   SFRSYM    DATA     BYTE      DATAC
      000000E8H.5 SFRSYM    DATA     BIT       IIC_RW
      000000CCH   SFRSYM    DATA     BYTE      SNS_SCAN_CFG2
      000000B9H   SFRSYM    DATA     BYTE      ADC_RDATAH
      00000098H   SFRSYM    DATA     BYTE      DATAD
      000000CDH   SFRSYM    DATA     BYTE      SNS_SCAN_CFG3
      000000BEH   SFRSYM    DATA     BYTE      UART0_CON1
      00000082H   SFRSYM    DATA     BYTE      DPL
      000000C6H   SFRSYM    DATA     BYTE      UART1_CON1
      000000BFH   SFRSYM    DATA     BYTE      UART0_CON2
      000000C7H   SFRSYM    DATA     BYTE      UART1_CON2
      000000BAH   SFRSYM    DATA     BYTE      ADC_RDATAL
      00000092H   SFRSYM    DATA     BYTE      WDT_EN
      000000D3H   SFRSYM    DATA     BYTE      SNS_IO_SEL1
      000000D4H   SFRSYM    DATA     BYTE      SNS_IO_SEL2
      000000D5H   SFRSYM    DATA     BYTE      SNS_IO_SEL3
      00000093H   SFRSYM    DATA     BYTE      TIMER2_CFG
      000000D6H   SFRSYM    DATA     BYTE      SNS_IO_SEL4
      000000A2H   SFRSYM    DATA     BYTE      PWM_EN
      000000B2H   SFRSYM    DATA     BYTE      LED2_WIDTH
      000000E8H.1 SFRSYM    DATA     BIT       IIC_WCOL
      00000084H   SFRSYM    DATA     BYTE      SYS_CLK_CFG
      000000C0H.2 SFRSYM    DATA     BIT       UART0_RO
      000000C8H.2 SFRSYM    DATA     BIT       UART1_RO
      000000D0H.5 SFRSYM    DATA     BIT       F0
      000000D0H.1 SFRSYM    DATA     BIT       F1
      0000009CH   SFRSYM    DATA     BYTE      PWM1_H_H
      000000A1H   SFRSYM    DATA     BYTE      PWM2_H_H
      000000D0H   SFRSYM    DATA     BYTE      PSW
      0000009BH   SFRSYM    DATA     BYTE      PWM1_H_L
      0000009AH   SFRSYM    DATA     BYTE      PWM1_L_H
      0000009FH   SFRSYM    DATA     BYTE      PWM2_H_L
      0000009EH   SFRSYM    DATA     BYTE      PWM2_L_H
      000000E8H.6 SFRSYM    DATA     BIT       IIC_STOP
LX51 LINKER/LOCATER V4.66.97.0                                                        05/09/2023  16:57:25  PAGE 61



      ---         MODULE    ---      ---       XS16TK06X_INT
      000000C3H   SFRSYM    DATA     BYTE      UART_IO_CTRL1
      00000099H   SFRSYM    DATA     BYTE      PWM1_L_L
      000000F7H   SFRSYM    DATA     BYTE      EXT_INT_CON
      0000009DH   SFRSYM    DATA     BYTE      PWM2_L_L
      00000085H   SFRSYM    DATA     BYTE      INT_PE_STAT
      000000B5H   SFRSYM    DATA     BYTE      ADC_SCAN_CFG
      000000A0H   SFRSYM    DATA     BYTE      P2_XH
      000000D0H.6 SFRSYM    DATA     BIT       AC
      000000EAH   SFRSYM    DATA     BYTE      TRISA
      000000E8H.2 SFRSYM    DATA     BIT       IIC_ACK
      000000A8H.7 SFRSYM    DATA     BIT       EA
      000000EBH   SFRSYM    DATA     BYTE      TRISB
      000000ECH   SFRSYM    DATA     BYTE      TRISC
      000000D8H   SFRSYM    DATA     BYTE      PD_PB
      00000091H   SFRSYM    DATA     BYTE      WDT_CTRL
      000000EDH   SFRSYM    DATA     BYTE      TRISD
      000000FBH   SFRSYM    DATA     BYTE      SPROG_DATA
      000000F2H   SFRSYM    DATA     BYTE      PERIPH_IO_SEL
      000000B1H   SFRSYM    DATA     BYTE      SCAN_WIDTH
      000000CFH   SFRSYM    DATA     BYTE      CSD_RAWDATAH
      000000A8H   SFRSYM    DATA     BYTE      IEN0
      000000E6H   SFRSYM    DATA     BYTE      IEN1
      000000E7H   SFRSYM    DATA     BYTE      IEN2
      000000CEH   SFRSYM    DATA     BYTE      CSD_RAWDATAL
      000000AEH   SFRSYM    DATA     BYTE      PWM0_MOD_H
      000000E9H   SFRSYM    DATA     BYTE      IICBUFFER
      000000ADH   SFRSYM    DATA     BYTE      PWM0_MOD_L
      000000C0H.1 SFRSYM    DATA     BIT       UART0_F
      000000E8H   SFRSYM    DATA     BYTE      IICSTAT
      000000C8H.1 SFRSYM    DATA     BIT       UART1_F
      000000B8H   SFRSYM    DATA     BYTE      IPL0
      000000F6H   SFRSYM    DATA     BYTE      IPL1
      000000DDH   SFRSYM    DATA     BYTE      PU_PA
      000000AFH   SFRSYM    DATA     BYTE      SCAN_START
      000000F4H   SFRSYM    DATA     BYTE      IPL2
      000000DEH   SFRSYM    DATA     BYTE      PU_PB
      000000D7H   SFRSYM    DATA     BYTE      RST_STAT
      0000008EH   SFRSYM    DATA     BYTE      SOFT_RST
      000000DFH   SFRSYM    DATA     BYTE      PU_PC
      000000E2H   SFRSYM    DATA     BYTE      PU_PD
      000000D1H   SFRSYM    DATA     BYTE      PULL_I_SELA_L
      000000B6H   SFRSYM    DATA     BYTE      ADCCKC
      000000D0H.7 SFRSYM    DATA     BIT       CY
      00000086H   SFRSYM    DATA     BYTE      INT_POBO_STAT
      000000C0H.0 SFRSYM    DATA     BIT       UART0_P
      000000EEH   SFRSYM    DATA     BYTE      COM_IO_SEL
      000000C8H.0 SFRSYM    DATA     BIT       UART1_P
      000000E3H   SFRSYM    DATA     BYTE      IICADD
      000000BDH   SFRSYM    DATA     BYTE      UART0_BDL
      000000B4H   SFRSYM    DATA     BYTE      ADC_SPT
      000000C5H   SFRSYM    DATA     BYTE      UART1_BDL
      00000081H   SFRSYM    DATA     BYTE      SP
      000000D0H.2 SFRSYM    DATA     BIT       OV
      000000A3H   SFRSYM    DATA     BYTE      PWM0_CH_CTRL
      000000BBH   SFRSYM    DATA     BYTE      ADC_CFG1
      00000094H   SFRSYM    DATA     BYTE      TIMER2_SET_H
      000000C1H   SFRSYM    DATA     BYTE      UART0_BUF
      000000BCH   SFRSYM    DATA     BYTE      ADC_CFG2
      000000C9H   SFRSYM    DATA     BYTE      UART1_BUF
      000000F1H   SFRSYM    DATA     BYTE      IRCON1
      000000E1H   SFRSYM    DATA     BYTE      IRCON2
      00000095H   SFRSYM    DATA     BYTE      TIMER2_SET_L
      000000A5H   SFRSYM    DATA     BYTE      PWM0_CH0_CNT_H
LX51 LINKER/LOCATER V4.66.97.0                                                        05/09/2023  16:57:25  PAGE 62


      000000A7H   SFRSYM    DATA     BYTE      PWM0_CH1_CNT_H
      00000087H   SFRSYM    DATA     BYTE      PCON
      000000F9H   SFRSYM    DATA     BYTE      SPROG_ADDR_H
      000000B3H   SFRSYM    DATA     BYTE      LED_DRIVE
      000000AAH   SFRSYM    DATA     BYTE      PWM0_CH2_CNT_H
      000000EFH   SFRSYM    DATA     BYTE      ODRAIN_EN
      000000ACH   SFRSYM    DATA     BYTE      PWM0_CH3_CNT_H
      000000E4H   SFRSYM    DATA     BYTE      IICBUF
      000000A4H   SFRSYM    DATA     BYTE      PWM0_CH0_CNT_L
      000000A6H   SFRSYM    DATA     BYTE      PWM0_CH1_CNT_L
      00000089H   SFRSYM    DATA     BYTE      TMOD
      00000088H   SFRSYM    DATA     BYTE      TCON
      000000FAH   SFRSYM    DATA     BYTE      SPROG_ADDR_L
      000000A9H   SFRSYM    DATA     BYTE      PWM0_CH2_CNT_L
      000000E8H.0 SFRSYM    DATA     BIT       IIC_RECOV
      000000E5H   SFRSYM    DATA     BYTE      IICCON
      000000ABH   SFRSYM    DATA     BYTE      PWM0_CH3_CNT_L
      000000D9H   SFRSYM    DATA     BYTE      ADC_IO_SEL1
      000000DAH   SFRSYM    DATA     BYTE      ADC_IO_SEL2
      000000DBH   SFRSYM    DATA     BYTE      ADC_IO_SEL3
      000000E8H.4 SFRSYM    DATA     BIT       IIC_AD
      000000DCH   SFRSYM    DATA     BYTE      ADC_IO_SEL4
      000000E8H.3 SFRSYM    DATA     BIT       IIC_BF
      00000088H.1 SFRSYM    DATA     BIT       IE0
      00000088H.3 SFRSYM    DATA     BIT       IE1
      000000C4H   SFRSYM    DATA     BYTE      LED_IO_START
      000000F8H.0 SFRSYM    DATA     BIT       PA0
      000000F0H   SFRSYM    DATA     BYTE      B
      00000080H.0 SFRSYM    DATA     BIT       PB0
      000000F8H.1 SFRSYM    DATA     BIT       PA1
      000000FCH   SFRSYM    DATA     BYTE      SPROG_CMD
      00000090H.0 SFRSYM    DATA     BIT       PC0
      00000080H.1 SFRSYM    DATA     BIT       PB1
      00000098H.0 SFRSYM    DATA     BIT       PD0
      00000090H.1 SFRSYM    DATA     BIT       PC1
      00000080H.2 SFRSYM    DATA     BIT       PB2
      00000098H.1 SFRSYM    DATA     BIT       PD1
      00000090H.2 SFRSYM    DATA     BIT       PC2
      00000080H.3 SFRSYM    DATA     BIT       PB3
      000000FEH   SFRSYM    DATA     BYTE      PD_ANA
      000000E8H.7 SFRSYM    DATA     BIT       IIC_START
      00000098H.2 SFRSYM    DATA     BIT       PD2
      00000090H.3 SFRSYM    DATA     BIT       PC3
      00000080H.4 SFRSYM    DATA     BIT       PB4
      00000098H.3 SFRSYM    DATA     BIT       PD3
      00000090H.4 SFRSYM    DATA     BIT       PC4
      00000080H.5 SFRSYM    DATA     BIT       PB5
      000000E0H   SFRSYM    DATA     BYTE      ACC
      00000098H.4 SFRSYM    DATA     BIT       PD4
      00000090H.5 SFRSYM    DATA     BIT       PC5
      00000080H.6 SFRSYM    DATA     BIT       PB6
      000000A8H.1 SFRSYM    DATA     BIT       ET0
      00000098H.5 SFRSYM    DATA     BIT       PD5
      00000090H.6 SFRSYM    DATA     BIT       PC6
      00000080H.7 SFRSYM    DATA     BIT       PB7
      000000A8H.3 SFRSYM    DATA     BIT       ET1
      00000098H.6 SFRSYM    DATA     BIT       PD6
      00000090H.7 SFRSYM    DATA     BIT       PC7
      00000088H.5 SFRSYM    DATA     BIT       TF0
      000000C0H.3 SFRSYM    DATA     BIT       RI0
      00000098H.7 SFRSYM    DATA     BIT       PD7
      00000088H.7 SFRSYM    DATA     BIT       TF1
      000000CAH   SFRSYM    DATA     BYTE      CSD_START
      000000C8H.3 SFRSYM    DATA     BIT       RI1
      0000008CH   SFRSYM    DATA     BYTE      TH0
LX51 LINKER/LOCATER V4.66.97.0                                                        05/09/2023  16:57:25  PAGE 63


      000000C0H.4 SFRSYM    DATA     BIT       TI0
      000000A8H.0 SFRSYM    DATA     BIT       EX0
      000000C2H   SFRSYM    DATA     BYTE      UART_IO_CTRL
      0000008DH   SFRSYM    DATA     BYTE      TH1
      000000C8H.4 SFRSYM    DATA     BIT       TI1
      000000A8H.2 SFRSYM    DATA     BIT       EX1
      000000D0H.0 SFRSYM    DATA     BIT       P
      0000008AH   SFRSYM    DATA     BYTE      TL0
      000000C0H   SFRSYM    DATA     BYTE      UART0_STATE
      0000008BH   SFRSYM    DATA     BYTE      TL1
      000000C8H   SFRSYM    DATA     BYTE      UART1_STATE
      000000FFH   SFRSYM    DATA     BYTE      BOR_LVDT_VTH
      000000B8H.1 SFRSYM    DATA     BIT       PT0
      000000D0H.3 SFRSYM    DATA     BIT       RS0
      000000B8H.3 SFRSYM    DATA     BIT       PT1
      000000B0H   SFRSYM    DATA     BYTE      DP_CON
      000000D0H.4 SFRSYM    DATA     BIT       RS1
      00000088H.4 SFRSYM    DATA     BIT       TR0
      00000088H.6 SFRSYM    DATA     BIT       TR1
      000000D2H   SFRSYM    DATA     BYTE      SNS_ANA_CFG
      000000C0H.6 SFRSYM    DATA     BIT       UART0_R8
      000000B8H.0 SFRSYM    DATA     BIT       PX0
      000000FDH   SFRSYM    DATA     BYTE      SPROG_TIM
      000000C8H.6 SFRSYM    DATA     BIT       UART1_R8
      000000B8H.2 SFRSYM    DATA     BIT       PX1
      000000C0H.5 SFRSYM    DATA     BIT       UART0_T8
      00000097H   SFRSYM    DATA     BYTE      REG_DATA
      000000C8H.5 SFRSYM    DATA     BIT       UART1_T8
      00000096H   SFRSYM    DATA     BYTE      REG_ADDR
      000000F8H   SFRSYM    DATA     BYTE      DATAA
      00000083H   SFRSYM    DATA     BYTE      DPH
      00000080H   SFRSYM    DATA     BYTE      DATAB
      000000CBH   SFRSYM    DATA     BYTE      SNS_SCAN_CFG1
      00000090H   SFRSYM    DATA     BYTE      DATAC
      000000E8H.5 SFRSYM    DATA     BIT       IIC_RW
      000000CCH   SFRSYM    DATA     BYTE      SNS_SCAN_CFG2
      000000B9H   SFRSYM    DATA     BYTE      ADC_RDATAH
      00000098H   SFRSYM    DATA     BYTE      DATAD
      000000CDH   SFRSYM    DATA     BYTE      SNS_SCAN_CFG3
      000000BEH   SFRSYM    DATA     BYTE      UART0_CON1
      00000082H   SFRSYM    DATA     BYTE      DPL
      000000C6H   SFRSYM    DATA     BYTE      UART1_CON1
      000000BFH   SFRSYM    DATA     BYTE      UART0_CON2
      000000C7H   SFRSYM    DATA     BYTE      UART1_CON2
      000000BAH   SFRSYM    DATA     BYTE      ADC_RDATAL
      00000092H   SFRSYM    DATA     BYTE      WDT_EN
      000000D3H   SFRSYM    DATA     BYTE      SNS_IO_SEL1
      000000D4H   SFRSYM    DATA     BYTE      SNS_IO_SEL2
      000000D5H   SFRSYM    DATA     BYTE      SNS_IO_SEL3
      00000093H   SFRSYM    DATA     BYTE      TIMER2_CFG
      000000D6H   SFRSYM    DATA     BYTE      SNS_IO_SEL4
      000000A2H   SFRSYM    DATA     BYTE      PWM_EN
      000000B2H   SFRSYM    DATA     BYTE      LED2_WIDTH
      000000E8H.1 SFRSYM    DATA     BIT       IIC_WCOL
      00000084H   SFRSYM    DATA     BYTE      SYS_CLK_CFG
      000000C0H.2 SFRSYM    DATA     BIT       UART0_RO
      000000C8H.2 SFRSYM    DATA     BIT       UART1_RO
      000000D0H.5 SFRSYM    DATA     BIT       F0
      000000D0H.1 SFRSYM    DATA     BIT       F1
      0000009CH   SFRSYM    DATA     BYTE      PWM1_H_H
      000000A1H   SFRSYM    DATA     BYTE      PWM2_H_H
      000000D0H   SFRSYM    DATA     BYTE      PSW
      0000009BH   SFRSYM    DATA     BYTE      PWM1_H_L
      0000009AH   SFRSYM    DATA     BYTE      PWM1_L_H
      0000009FH   SFRSYM    DATA     BYTE      PWM2_H_L
LX51 LINKER/LOCATER V4.66.97.0                                                        05/09/2023  16:57:25  PAGE 64


      0000009EH   SFRSYM    DATA     BYTE      PWM2_L_H
      000000E8H.6 SFRSYM    DATA     BIT       IIC_STOP

      ---         MODULE    ---      ---       XS16TK06X_PWM
      000000C3H   SFRSYM    DATA     BYTE      UART_IO_CTRL1
      00000099H   SFRSYM    DATA     BYTE      PWM1_L_L
      000000F7H   SFRSYM    DATA     BYTE      EXT_INT_CON
      0000009DH   SFRSYM    DATA     BYTE      PWM2_L_L
      00000085H   SFRSYM    DATA     BYTE      INT_PE_STAT
      000000B5H   SFRSYM    DATA     BYTE      ADC_SCAN_CFG
      000000A0H   SFRSYM    DATA     BYTE      P2_XH
      000000D0H.6 SFRSYM    DATA     BIT       AC
      000000EAH   SFRSYM    DATA     BYTE      TRISA
      000000E8H.2 SFRSYM    DATA     BIT       IIC_ACK
      000000A8H.7 SFRSYM    DATA     BIT       EA
      000000EBH   SFRSYM    DATA     BYTE      TRISB
      000000ECH   SFRSYM    DATA     BYTE      TRISC
      000000D8H   SFRSYM    DATA     BYTE      PD_PB
      00000091H   SFRSYM    DATA     BYTE      WDT_CTRL
      000000EDH   SFRSYM    DATA     BYTE      TRISD
      000000FBH   SFRSYM    DATA     BYTE      SPROG_DATA
      000000F2H   SFRSYM    DATA     BYTE      PERIPH_IO_SEL
      000000B1H   SFRSYM    DATA     BYTE      SCAN_WIDTH
      000000CFH   SFRSYM    DATA     BYTE      CSD_RAWDATAH
      000000A8H   SFRSYM    DATA     BYTE      IEN0
      000000E6H   SFRSYM    DATA     BYTE      IEN1
      000000E7H   SFRSYM    DATA     BYTE      IEN2
      000000CEH   SFRSYM    DATA     BYTE      CSD_RAWDATAL
      000000AEH   SFRSYM    DATA     BYTE      PWM0_MOD_H
      000000E9H   SFRSYM    DATA     BYTE      IICBUFFER
      000000ADH   SFRSYM    DATA     BYTE      PWM0_MOD_L
      000000C0H.1 SFRSYM    DATA     BIT       UART0_F
      000000E8H   SFRSYM    DATA     BYTE      IICSTAT
      000000C8H.1 SFRSYM    DATA     BIT       UART1_F
      000000B8H   SFRSYM    DATA     BYTE      IPL0
      000000F6H   SFRSYM    DATA     BYTE      IPL1
      000000DDH   SFRSYM    DATA     BYTE      PU_PA
      000000AFH   SFRSYM    DATA     BYTE      SCAN_START
      000000F4H   SFRSYM    DATA     BYTE      IPL2
      000000DEH   SFRSYM    DATA     BYTE      PU_PB
      000000D7H   SFRSYM    DATA     BYTE      RST_STAT
      0000008EH   SFRSYM    DATA     BYTE      SOFT_RST
      000000DFH   SFRSYM    DATA     BYTE      PU_PC
      000000E2H   SFRSYM    DATA     BYTE      PU_PD
      000000D1H   SFRSYM    DATA     BYTE      PULL_I_SELA_L
      000000B6H   SFRSYM    DATA     BYTE      ADCCKC
      000000D0H.7 SFRSYM    DATA     BIT       CY
      00000086H   SFRSYM    DATA     BYTE      INT_POBO_STAT
      000000C0H.0 SFRSYM    DATA     BIT       UART0_P
      000000EEH   SFRSYM    DATA     BYTE      COM_IO_SEL
      000000C8H.0 SFRSYM    DATA     BIT       UART1_P
      000000E3H   SFRSYM    DATA     BYTE      IICADD
      000000BDH   SFRSYM    DATA     BYTE      UART0_BDL
      000000B4H   SFRSYM    DATA     BYTE      ADC_SPT
      000000C5H   SFRSYM    DATA     BYTE      UART1_BDL
      00000081H   SFRSYM    DATA     BYTE      SP
      000000D0H.2 SFRSYM    DATA     BIT       OV
      000000A3H   SFRSYM    DATA     BYTE      PWM0_CH_CTRL
      000000BBH   SFRSYM    DATA     BYTE      ADC_CFG1
      00000094H   SFRSYM    DATA     BYTE      TIMER2_SET_H
      000000C1H   SFRSYM    DATA     BYTE      UART0_BUF
      000000BCH   SFRSYM    DATA     BYTE      ADC_CFG2
      000000C9H   SFRSYM    DATA     BYTE      UART1_BUF
      000000F1H   SFRSYM    DATA     BYTE      IRCON1
      000000E1H   SFRSYM    DATA     BYTE      IRCON2
LX51 LINKER/LOCATER V4.66.97.0                                                        05/09/2023  16:57:25  PAGE 65


      00000095H   SFRSYM    DATA     BYTE      TIMER2_SET_L
      000000A5H   SFRSYM    DATA     BYTE      PWM0_CH0_CNT_H
      000000A7H   SFRSYM    DATA     BYTE      PWM0_CH1_CNT_H
      00000087H   SFRSYM    DATA     BYTE      PCON
      000000F9H   SFRSYM    DATA     BYTE      SPROG_ADDR_H
      000000B3H   SFRSYM    DATA     BYTE      LED_DRIVE
      000000AAH   SFRSYM    DATA     BYTE      PWM0_CH2_CNT_H
      000000EFH   SFRSYM    DATA     BYTE      ODRAIN_EN
      000000ACH   SFRSYM    DATA     BYTE      PWM0_CH3_CNT_H
      000000E4H   SFRSYM    DATA     BYTE      IICBUF
      000000A4H   SFRSYM    DATA     BYTE      PWM0_CH0_CNT_L
      000000A6H   SFRSYM    DATA     BYTE      PWM0_CH1_CNT_L
      00000089H   SFRSYM    DATA     BYTE      TMOD
      00000088H   SFRSYM    DATA     BYTE      TCON
      000000FAH   SFRSYM    DATA     BYTE      SPROG_ADDR_L
      000000A9H   SFRSYM    DATA     BYTE      PWM0_CH2_CNT_L
      000000E8H.0 SFRSYM    DATA     BIT       IIC_RECOV
      000000E5H   SFRSYM    DATA     BYTE      IICCON
      000000ABH   SFRSYM    DATA     BYTE      PWM0_CH3_CNT_L
      000000D9H   SFRSYM    DATA     BYTE      ADC_IO_SEL1
      000000DAH   SFRSYM    DATA     BYTE      ADC_IO_SEL2
      000000DBH   SFRSYM    DATA     BYTE      ADC_IO_SEL3
      000000E8H.4 SFRSYM    DATA     BIT       IIC_AD
      000000DCH   SFRSYM    DATA     BYTE      ADC_IO_SEL4
      000000E8H.3 SFRSYM    DATA     BIT       IIC_BF
      00000088H.1 SFRSYM    DATA     BIT       IE0
      00000088H.3 SFRSYM    DATA     BIT       IE1
      000000C4H   SFRSYM    DATA     BYTE      LED_IO_START
      000000F8H.0 SFRSYM    DATA     BIT       PA0
      000000F0H   SFRSYM    DATA     BYTE      B
      00000080H.0 SFRSYM    DATA     BIT       PB0
      000000F8H.1 SFRSYM    DATA     BIT       PA1
      000000FCH   SFRSYM    DATA     BYTE      SPROG_CMD
      00000090H.0 SFRSYM    DATA     BIT       PC0
      00000080H.1 SFRSYM    DATA     BIT       PB1
      00000098H.0 SFRSYM    DATA     BIT       PD0
      00000090H.1 SFRSYM    DATA     BIT       PC1
      00000080H.2 SFRSYM    DATA     BIT       PB2
      00000098H.1 SFRSYM    DATA     BIT       PD1
      00000090H.2 SFRSYM    DATA     BIT       PC2
      00000080H.3 SFRSYM    DATA     BIT       PB3
      000000FEH   SFRSYM    DATA     BYTE      PD_ANA
      000000E8H.7 SFRSYM    DATA     BIT       IIC_START
      00000098H.2 SFRSYM    DATA     BIT       PD2
      00000090H.3 SFRSYM    DATA     BIT       PC3
      00000080H.4 SFRSYM    DATA     BIT       PB4
      00000098H.3 SFRSYM    DATA     BIT       PD3
      00000090H.4 SFRSYM    DATA     BIT       PC4
      00000080H.5 SFRSYM    DATA     BIT       PB5
      000000E0H   SFRSYM    DATA     BYTE      ACC
      00000098H.4 SFRSYM    DATA     BIT       PD4
      00000090H.5 SFRSYM    DATA     BIT       PC5
      00000080H.6 SFRSYM    DATA     BIT       PB6
      000000A8H.1 SFRSYM    DATA     BIT       ET0
      00000098H.5 SFRSYM    DATA     BIT       PD5
      00000090H.6 SFRSYM    DATA     BIT       PC6
      00000080H.7 SFRSYM    DATA     BIT       PB7
      000000A8H.3 SFRSYM    DATA     BIT       ET1
      00000098H.6 SFRSYM    DATA     BIT       PD6
      00000090H.7 SFRSYM    DATA     BIT       PC7
      00000088H.5 SFRSYM    DATA     BIT       TF0
      000000C0H.3 SFRSYM    DATA     BIT       RI0
      00000098H.7 SFRSYM    DATA     BIT       PD7
      00000088H.7 SFRSYM    DATA     BIT       TF1
      000000CAH   SFRSYM    DATA     BYTE      CSD_START
LX51 LINKER/LOCATER V4.66.97.0                                                        05/09/2023  16:57:25  PAGE 66


      000000C8H.3 SFRSYM    DATA     BIT       RI1
      0000008CH   SFRSYM    DATA     BYTE      TH0
      000000C0H.4 SFRSYM    DATA     BIT       TI0
      000000A8H.0 SFRSYM    DATA     BIT       EX0
      000000C2H   SFRSYM    DATA     BYTE      UART_IO_CTRL
      0000008DH   SFRSYM    DATA     BYTE      TH1
      000000C8H.4 SFRSYM    DATA     BIT       TI1
      000000A8H.2 SFRSYM    DATA     BIT       EX1
      000000D0H.0 SFRSYM    DATA     BIT       P
      0000008AH   SFRSYM    DATA     BYTE      TL0
      000000C0H   SFRSYM    DATA     BYTE      UART0_STATE
      0000008BH   SFRSYM    DATA     BYTE      TL1
      000000C8H   SFRSYM    DATA     BYTE      UART1_STATE
      000000FFH   SFRSYM    DATA     BYTE      BOR_LVDT_VTH
      000000B8H.1 SFRSYM    DATA     BIT       PT0
      000000D0H.3 SFRSYM    DATA     BIT       RS0
      000000B8H.3 SFRSYM    DATA     BIT       PT1
      000000B0H   SFRSYM    DATA     BYTE      DP_CON
      000000D0H.4 SFRSYM    DATA     BIT       RS1
      00000088H.4 SFRSYM    DATA     BIT       TR0
      00000088H.6 SFRSYM    DATA     BIT       TR1
      000000D2H   SFRSYM    DATA     BYTE      SNS_ANA_CFG
      000000C0H.6 SFRSYM    DATA     BIT       UART0_R8
      000000B8H.0 SFRSYM    DATA     BIT       PX0
      000000FDH   SFRSYM    DATA     BYTE      SPROG_TIM
      000000C8H.6 SFRSYM    DATA     BIT       UART1_R8
      000000B8H.2 SFRSYM    DATA     BIT       PX1
      000000C0H.5 SFRSYM    DATA     BIT       UART0_T8
      00000097H   SFRSYM    DATA     BYTE      REG_DATA
      000000C8H.5 SFRSYM    DATA     BIT       UART1_T8
      00000096H   SFRSYM    DATA     BYTE      REG_ADDR
      000000F8H   SFRSYM    DATA     BYTE      DATAA
      00000083H   SFRSYM    DATA     BYTE      DPH
      00000080H   SFRSYM    DATA     BYTE      DATAB
      000000CBH   SFRSYM    DATA     BYTE      SNS_SCAN_CFG1
      00000090H   SFRSYM    DATA     BYTE      DATAC
      000000E8H.5 SFRSYM    DATA     BIT       IIC_RW
      000000CCH   SFRSYM    DATA     BYTE      SNS_SCAN_CFG2
      000000B9H   SFRSYM    DATA     BYTE      ADC_RDATAH
      00000098H   SFRSYM    DATA     BYTE      DATAD
      000000CDH   SFRSYM    DATA     BYTE      SNS_SCAN_CFG3
      000000BEH   SFRSYM    DATA     BYTE      UART0_CON1
      00000082H   SFRSYM    DATA     BYTE      DPL
      000000C6H   SFRSYM    DATA     BYTE      UART1_CON1
      000000BFH   SFRSYM    DATA     BYTE      UART0_CON2
      000000C7H   SFRSYM    DATA     BYTE      UART1_CON2
      000000BAH   SFRSYM    DATA     BYTE      ADC_RDATAL
      00000092H   SFRSYM    DATA     BYTE      WDT_EN
      000000D3H   SFRSYM    DATA     BYTE      SNS_IO_SEL1
      000000D4H   SFRSYM    DATA     BYTE      SNS_IO_SEL2
      000000D5H   SFRSYM    DATA     BYTE      SNS_IO_SEL3
      00000093H   SFRSYM    DATA     BYTE      TIMER2_CFG
      000000D6H   SFRSYM    DATA     BYTE      SNS_IO_SEL4
      000000A2H   SFRSYM    DATA     BYTE      PWM_EN
      000000B2H   SFRSYM    DATA     BYTE      LED2_WIDTH
      000000E8H.1 SFRSYM    DATA     BIT       IIC_WCOL
      00000084H   SFRSYM    DATA     BYTE      SYS_CLK_CFG
      000000C0H.2 SFRSYM    DATA     BIT       UART0_RO
      000000C8H.2 SFRSYM    DATA     BIT       UART1_RO
      000000D0H.5 SFRSYM    DATA     BIT       F0
      000000D0H.1 SFRSYM    DATA     BIT       F1
      0000009CH   SFRSYM    DATA     BYTE      PWM1_H_H
      000000A1H   SFRSYM    DATA     BYTE      PWM2_H_H
      000000D0H   SFRSYM    DATA     BYTE      PSW
      0000009BH   SFRSYM    DATA     BYTE      PWM1_H_L
LX51 LINKER/LOCATER V4.66.97.0                                                        05/09/2023  16:57:25  PAGE 67


      0000009AH   SFRSYM    DATA     BYTE      PWM1_L_H
      0000009FH   SFRSYM    DATA     BYTE      PWM2_H_L
      0000009EH   SFRSYM    DATA     BYTE      PWM2_L_H
      000000E8H.6 SFRSYM    DATA     BIT       IIC_STOP

      ---         MODULE    ---      ---       XS16TK06X_READ_UID
      000000C3H   SFRSYM    DATA     BYTE      UART_IO_CTRL1
      00000099H   SFRSYM    DATA     BYTE      PWM1_L_L
      000000F7H   SFRSYM    DATA     BYTE      EXT_INT_CON
      0000009DH   SFRSYM    DATA     BYTE      PWM2_L_L
      00000085H   SFRSYM    DATA     BYTE      INT_PE_STAT
      000000B5H   SFRSYM    DATA     BYTE      ADC_SCAN_CFG
      000000A0H   SFRSYM    DATA     BYTE      P2_XH
      000000D0H.6 SFRSYM    DATA     BIT       AC
      000000EAH   SFRSYM    DATA     BYTE      TRISA
      000000E8H.2 SFRSYM    DATA     BIT       IIC_ACK
      000000A8H.7 SFRSYM    DATA     BIT       EA
      000000EBH   SFRSYM    DATA     BYTE      TRISB
      000000ECH   SFRSYM    DATA     BYTE      TRISC
      000000D8H   SFRSYM    DATA     BYTE      PD_PB
      00000091H   SFRSYM    DATA     BYTE      WDT_CTRL
      000000EDH   SFRSYM    DATA     BYTE      TRISD
      000000FBH   SFRSYM    DATA     BYTE      SPROG_DATA
      000000F2H   SFRSYM    DATA     BYTE      PERIPH_IO_SEL
      000000B1H   SFRSYM    DATA     BYTE      SCAN_WIDTH
      000000CFH   SFRSYM    DATA     BYTE      CSD_RAWDATAH
      000000A8H   SFRSYM    DATA     BYTE      IEN0
      000000E6H   SFRSYM    DATA     BYTE      IEN1
      000000E7H   SFRSYM    DATA     BYTE      IEN2
      000000CEH   SFRSYM    DATA     BYTE      CSD_RAWDATAL
      000000AEH   SFRSYM    DATA     BYTE      PWM0_MOD_H
      000000E9H   SFRSYM    DATA     BYTE      IICBUFFER
      000000ADH   SFRSYM    DATA     BYTE      PWM0_MOD_L
      000000C0H.1 SFRSYM    DATA     BIT       UART0_F
      000000E8H   SFRSYM    DATA     BYTE      IICSTAT
      000000C8H.1 SFRSYM    DATA     BIT       UART1_F
      000000B8H   SFRSYM    DATA     BYTE      IPL0
      000000F6H   SFRSYM    DATA     BYTE      IPL1
      000000DDH   SFRSYM    DATA     BYTE      PU_PA
      000000AFH   SFRSYM    DATA     BYTE      SCAN_START
      000000F4H   SFRSYM    DATA     BYTE      IPL2
      000000DEH   SFRSYM    DATA     BYTE      PU_PB
      000000D7H   SFRSYM    DATA     BYTE      RST_STAT
      0000008EH   SFRSYM    DATA     BYTE      SOFT_RST
      000000DFH   SFRSYM    DATA     BYTE      PU_PC
      000000E2H   SFRSYM    DATA     BYTE      PU_PD
      000000D1H   SFRSYM    DATA     BYTE      PULL_I_SELA_L
      000000B6H   SFRSYM    DATA     BYTE      ADCCKC
      000000D0H.7 SFRSYM    DATA     BIT       CY
      00000086H   SFRSYM    DATA     BYTE      INT_POBO_STAT
      000000C0H.0 SFRSYM    DATA     BIT       UART0_P
      000000EEH   SFRSYM    DATA     BYTE      COM_IO_SEL
      000000C8H.0 SFRSYM    DATA     BIT       UART1_P
      000000E3H   SFRSYM    DATA     BYTE      IICADD
      000000BDH   SFRSYM    DATA     BYTE      UART0_BDL
      000000B4H   SFRSYM    DATA     BYTE      ADC_SPT
      000000C5H   SFRSYM    DATA     BYTE      UART1_BDL
      00000081H   SFRSYM    DATA     BYTE      SP
      000000D0H.2 SFRSYM    DATA     BIT       OV
      000000A3H   SFRSYM    DATA     BYTE      PWM0_CH_CTRL
      000000BBH   SFRSYM    DATA     BYTE      ADC_CFG1
      00000094H   SFRSYM    DATA     BYTE      TIMER2_SET_H
      000000C1H   SFRSYM    DATA     BYTE      UART0_BUF
      000000BCH   SFRSYM    DATA     BYTE      ADC_CFG2
      000000C9H   SFRSYM    DATA     BYTE      UART1_BUF
LX51 LINKER/LOCATER V4.66.97.0                                                        05/09/2023  16:57:25  PAGE 68


      000000F1H   SFRSYM    DATA     BYTE      IRCON1
      000000E1H   SFRSYM    DATA     BYTE      IRCON2
      00000095H   SFRSYM    DATA     BYTE      TIMER2_SET_L
      000000A5H   SFRSYM    DATA     BYTE      PWM0_CH0_CNT_H
      000000A7H   SFRSYM    DATA     BYTE      PWM0_CH1_CNT_H
      00000087H   SFRSYM    DATA     BYTE      PCON
      000000F9H   SFRSYM    DATA     BYTE      SPROG_ADDR_H
      000000B3H   SFRSYM    DATA     BYTE      LED_DRIVE
      000000AAH   SFRSYM    DATA     BYTE      PWM0_CH2_CNT_H
      000000EFH   SFRSYM    DATA     BYTE      ODRAIN_EN
      000000ACH   SFRSYM    DATA     BYTE      PWM0_CH3_CNT_H
      000000E4H   SFRSYM    DATA     BYTE      IICBUF
      000000A4H   SFRSYM    DATA     BYTE      PWM0_CH0_CNT_L
      000000A6H   SFRSYM    DATA     BYTE      PWM0_CH1_CNT_L
      00000089H   SFRSYM    DATA     BYTE      TMOD
      00000088H   SFRSYM    DATA     BYTE      TCON
      000000FAH   SFRSYM    DATA     BYTE      SPROG_ADDR_L
      000000A9H   SFRSYM    DATA     BYTE      PWM0_CH2_CNT_L
      000000E8H.0 SFRSYM    DATA     BIT       IIC_RECOV
      000000E5H   SFRSYM    DATA     BYTE      IICCON
      000000ABH   SFRSYM    DATA     BYTE      PWM0_CH3_CNT_L
      000000D9H   SFRSYM    DATA     BYTE      ADC_IO_SEL1
      000000DAH   SFRSYM    DATA     BYTE      ADC_IO_SEL2
      000000DBH   SFRSYM    DATA     BYTE      ADC_IO_SEL3
      000000E8H.4 SFRSYM    DATA     BIT       IIC_AD
      000000DCH   SFRSYM    DATA     BYTE      ADC_IO_SEL4
      000000E8H.3 SFRSYM    DATA     BIT       IIC_BF
      00000088H.1 SFRSYM    DATA     BIT       IE0
      00000088H.3 SFRSYM    DATA     BIT       IE1
      000000C4H   SFRSYM    DATA     BYTE      LED_IO_START
      000000F8H.0 SFRSYM    DATA     BIT       PA0
      000000F0H   SFRSYM    DATA     BYTE      B
      00000080H.0 SFRSYM    DATA     BIT       PB0
      000000F8H.1 SFRSYM    DATA     BIT       PA1
      000000FCH   SFRSYM    DATA     BYTE      SPROG_CMD
      00000090H.0 SFRSYM    DATA     BIT       PC0
      00000080H.1 SFRSYM    DATA     BIT       PB1
      00000098H.0 SFRSYM    DATA     BIT       PD0
      00000090H.1 SFRSYM    DATA     BIT       PC1
      00000080H.2 SFRSYM    DATA     BIT       PB2
      00000098H.1 SFRSYM    DATA     BIT       PD1
      00000090H.2 SFRSYM    DATA     BIT       PC2
      00000080H.3 SFRSYM    DATA     BIT       PB3
      000000FEH   SFRSYM    DATA     BYTE      PD_ANA
      000000E8H.7 SFRSYM    DATA     BIT       IIC_START
      00000098H.2 SFRSYM    DATA     BIT       PD2
      00000090H.3 SFRSYM    DATA     BIT       PC3
      00000080H.4 SFRSYM    DATA     BIT       PB4
      00000098H.3 SFRSYM    DATA     BIT       PD3
      00000090H.4 SFRSYM    DATA     BIT       PC4
      00000080H.5 SFRSYM    DATA     BIT       PB5
      000000E0H   SFRSYM    DATA     BYTE      ACC
      00000098H.4 SFRSYM    DATA     BIT       PD4
      00000090H.5 SFRSYM    DATA     BIT       PC5
      00000080H.6 SFRSYM    DATA     BIT       PB6
      000000A8H.1 SFRSYM    DATA     BIT       ET0
      00000098H.5 SFRSYM    DATA     BIT       PD5
      00000090H.6 SFRSYM    DATA     BIT       PC6
      00000080H.7 SFRSYM    DATA     BIT       PB7
      000000A8H.3 SFRSYM    DATA     BIT       ET1
      00000098H.6 SFRSYM    DATA     BIT       PD6
      00000090H.7 SFRSYM    DATA     BIT       PC7
      00000088H.5 SFRSYM    DATA     BIT       TF0
      000000C0H.3 SFRSYM    DATA     BIT       RI0
      00000098H.7 SFRSYM    DATA     BIT       PD7
LX51 LINKER/LOCATER V4.66.97.0                                                        05/09/2023  16:57:25  PAGE 69


      00000088H.7 SFRSYM    DATA     BIT       TF1
      000000CAH   SFRSYM    DATA     BYTE      CSD_START
      000000C8H.3 SFRSYM    DATA     BIT       RI1
      0000008CH   SFRSYM    DATA     BYTE      TH0
      000000C0H.4 SFRSYM    DATA     BIT       TI0
      000000A8H.0 SFRSYM    DATA     BIT       EX0
      000000C2H   SFRSYM    DATA     BYTE      UART_IO_CTRL
      0000008DH   SFRSYM    DATA     BYTE      TH1
      000000C8H.4 SFRSYM    DATA     BIT       TI1
      000000A8H.2 SFRSYM    DATA     BIT       EX1
      000000D0H.0 SFRSYM    DATA     BIT       P
      0000008AH   SFRSYM    DATA     BYTE      TL0
      000000C0H   SFRSYM    DATA     BYTE      UART0_STATE
      0000008BH   SFRSYM    DATA     BYTE      TL1
      000000C8H   SFRSYM    DATA     BYTE      UART1_STATE
      000000FFH   SFRSYM    DATA     BYTE      BOR_LVDT_VTH
      000000B8H.1 SFRSYM    DATA     BIT       PT0
      000000D0H.3 SFRSYM    DATA     BIT       RS0
      000000B8H.3 SFRSYM    DATA     BIT       PT1
      000000B0H   SFRSYM    DATA     BYTE      DP_CON
      000000D0H.4 SFRSYM    DATA     BIT       RS1
      00000088H.4 SFRSYM    DATA     BIT       TR0
      00000088H.6 SFRSYM    DATA     BIT       TR1
      000000D2H   SFRSYM    DATA     BYTE      SNS_ANA_CFG
      000000C0H.6 SFRSYM    DATA     BIT       UART0_R8
      000000B8H.0 SFRSYM    DATA     BIT       PX0
      000000FDH   SFRSYM    DATA     BYTE      SPROG_TIM
      000000C8H.6 SFRSYM    DATA     BIT       UART1_R8
      000000B8H.2 SFRSYM    DATA     BIT       PX1
      000000C0H.5 SFRSYM    DATA     BIT       UART0_T8
      00000097H   SFRSYM    DATA     BYTE      REG_DATA
      000000C8H.5 SFRSYM    DATA     BIT       UART1_T8
      00000096H   SFRSYM    DATA     BYTE      REG_ADDR
      000000F8H   SFRSYM    DATA     BYTE      DATAA
      00000083H   SFRSYM    DATA     BYTE      DPH
      00000080H   SFRSYM    DATA     BYTE      DATAB
      000000CBH   SFRSYM    DATA     BYTE      SNS_SCAN_CFG1
      00000090H   SFRSYM    DATA     BYTE      DATAC
      000000E8H.5 SFRSYM    DATA     BIT       IIC_RW
      000000CCH   SFRSYM    DATA     BYTE      SNS_SCAN_CFG2
      000000B9H   SFRSYM    DATA     BYTE      ADC_RDATAH
      00000098H   SFRSYM    DATA     BYTE      DATAD
      000000CDH   SFRSYM    DATA     BYTE      SNS_SCAN_CFG3
      000000BEH   SFRSYM    DATA     BYTE      UART0_CON1
      00000082H   SFRSYM    DATA     BYTE      DPL
      000000C6H   SFRSYM    DATA     BYTE      UART1_CON1
      000000BFH   SFRSYM    DATA     BYTE      UART0_CON2
      000000C7H   SFRSYM    DATA     BYTE      UART1_CON2
      000000BAH   SFRSYM    DATA     BYTE      ADC_RDATAL
      00000092H   SFRSYM    DATA     BYTE      WDT_EN
      000000D3H   SFRSYM    DATA     BYTE      SNS_IO_SEL1
      000000D4H   SFRSYM    DATA     BYTE      SNS_IO_SEL2
      000000D5H   SFRSYM    DATA     BYTE      SNS_IO_SEL3
      00000093H   SFRSYM    DATA     BYTE      TIMER2_CFG
      000000D6H   SFRSYM    DATA     BYTE      SNS_IO_SEL4
      000000A2H   SFRSYM    DATA     BYTE      PWM_EN
      000000B2H   SFRSYM    DATA     BYTE      LED2_WIDTH
      000000E8H.1 SFRSYM    DATA     BIT       IIC_WCOL
      00000084H   SFRSYM    DATA     BYTE      SYS_CLK_CFG
      000000C0H.2 SFRSYM    DATA     BIT       UART0_RO
      000000C8H.2 SFRSYM    DATA     BIT       UART1_RO
      000000D0H.5 SFRSYM    DATA     BIT       F0
      000000D0H.1 SFRSYM    DATA     BIT       F1
      0000009CH   SFRSYM    DATA     BYTE      PWM1_H_H
      000000A1H   SFRSYM    DATA     BYTE      PWM2_H_H
LX51 LINKER/LOCATER V4.66.97.0                                                        05/09/2023  16:57:25  PAGE 70


      000000D0H   SFRSYM    DATA     BYTE      PSW
      0000009BH   SFRSYM    DATA     BYTE      PWM1_H_L
      0000009AH   SFRSYM    DATA     BYTE      PWM1_L_H
      0000009FH   SFRSYM    DATA     BYTE      PWM2_H_L
      0000009EH   SFRSYM    DATA     BYTE      PWM2_L_H
      000000E8H.6 SFRSYM    DATA     BIT       IIC_STOP

      ---         MODULE    ---      ---       XS16TK06X_SLEEP
      000000C3H   SFRSYM    DATA     BYTE      UART_IO_CTRL1
      00000099H   SFRSYM    DATA     BYTE      PWM1_L_L
      000000F7H   SFRSYM    DATA     BYTE      EXT_INT_CON
      0000009DH   SFRSYM    DATA     BYTE      PWM2_L_L
      00000085H   SFRSYM    DATA     BYTE      INT_PE_STAT
      000000B5H   SFRSYM    DATA     BYTE      ADC_SCAN_CFG
      000000A0H   SFRSYM    DATA     BYTE      P2_XH
      000000D0H.6 SFRSYM    DATA     BIT       AC
      000000EAH   SFRSYM    DATA     BYTE      TRISA
      000000E8H.2 SFRSYM    DATA     BIT       IIC_ACK
      000000A8H.7 SFRSYM    DATA     BIT       EA
      000000EBH   SFRSYM    DATA     BYTE      TRISB
      000000ECH   SFRSYM    DATA     BYTE      TRISC
      000000D8H   SFRSYM    DATA     BYTE      PD_PB
      00000091H   SFRSYM    DATA     BYTE      WDT_CTRL
      000000EDH   SFRSYM    DATA     BYTE      TRISD
      000000FBH   SFRSYM    DATA     BYTE      SPROG_DATA
      000000F2H   SFRSYM    DATA     BYTE      PERIPH_IO_SEL
      000000B1H   SFRSYM    DATA     BYTE      SCAN_WIDTH
      000000CFH   SFRSYM    DATA     BYTE      CSD_RAWDATAH
      000000A8H   SFRSYM    DATA     BYTE      IEN0
      000000E6H   SFRSYM    DATA     BYTE      IEN1
      000000E7H   SFRSYM    DATA     BYTE      IEN2
      000000CEH   SFRSYM    DATA     BYTE      CSD_RAWDATAL
      000000AEH   SFRSYM    DATA     BYTE      PWM0_MOD_H
      000000E9H   SFRSYM    DATA     BYTE      IICBUFFER
      000000ADH   SFRSYM    DATA     BYTE      PWM0_MOD_L
      000000C0H.1 SFRSYM    DATA     BIT       UART0_F
      000000E8H   SFRSYM    DATA     BYTE      IICSTAT
      000000C8H.1 SFRSYM    DATA     BIT       UART1_F
      000000B8H   SFRSYM    DATA     BYTE      IPL0
      000000F6H   SFRSYM    DATA     BYTE      IPL1
      000000DDH   SFRSYM    DATA     BYTE      PU_PA
      000000AFH   SFRSYM    DATA     BYTE      SCAN_START
      000000F4H   SFRSYM    DATA     BYTE      IPL2
      000000DEH   SFRSYM    DATA     BYTE      PU_PB
      000000D7H   SFRSYM    DATA     BYTE      RST_STAT
      0000008EH   SFRSYM    DATA     BYTE      SOFT_RST
      000000DFH   SFRSYM    DATA     BYTE      PU_PC
      000000E2H   SFRSYM    DATA     BYTE      PU_PD
      000000D1H   SFRSYM    DATA     BYTE      PULL_I_SELA_L
      000000B6H   SFRSYM    DATA     BYTE      ADCCKC
      000000D0H.7 SFRSYM    DATA     BIT       CY
      00000086H   SFRSYM    DATA     BYTE      INT_POBO_STAT
      000000C0H.0 SFRSYM    DATA     BIT       UART0_P
      000000EEH   SFRSYM    DATA     BYTE      COM_IO_SEL
      000000C8H.0 SFRSYM    DATA     BIT       UART1_P
      000000E3H   SFRSYM    DATA     BYTE      IICADD
      000000BDH   SFRSYM    DATA     BYTE      UART0_BDL
      000000B4H   SFRSYM    DATA     BYTE      ADC_SPT
      000000C5H   SFRSYM    DATA     BYTE      UART1_BDL
      00000081H   SFRSYM    DATA     BYTE      SP
      000000D0H.2 SFRSYM    DATA     BIT       OV
      000000A3H   SFRSYM    DATA     BYTE      PWM0_CH_CTRL
      000000BBH   SFRSYM    DATA     BYTE      ADC_CFG1
      00000094H   SFRSYM    DATA     BYTE      TIMER2_SET_H
      000000C1H   SFRSYM    DATA     BYTE      UART0_BUF
LX51 LINKER/LOCATER V4.66.97.0                                                        05/09/2023  16:57:25  PAGE 71


      000000BCH   SFRSYM    DATA     BYTE      ADC_CFG2
      000000C9H   SFRSYM    DATA     BYTE      UART1_BUF
      000000F1H   SFRSYM    DATA     BYTE      IRCON1
      000000E1H   SFRSYM    DATA     BYTE      IRCON2
      00000095H   SFRSYM    DATA     BYTE      TIMER2_SET_L
      000000A5H   SFRSYM    DATA     BYTE      PWM0_CH0_CNT_H
      000000A7H   SFRSYM    DATA     BYTE      PWM0_CH1_CNT_H
      00000087H   SFRSYM    DATA     BYTE      PCON
      000000F9H   SFRSYM    DATA     BYTE      SPROG_ADDR_H
      000000B3H   SFRSYM    DATA     BYTE      LED_DRIVE
      000000AAH   SFRSYM    DATA     BYTE      PWM0_CH2_CNT_H
      000000EFH   SFRSYM    DATA     BYTE      ODRAIN_EN
      000000ACH   SFRSYM    DATA     BYTE      PWM0_CH3_CNT_H
      000000E4H   SFRSYM    DATA     BYTE      IICBUF
      000000A4H   SFRSYM    DATA     BYTE      PWM0_CH0_CNT_L
      000000A6H   SFRSYM    DATA     BYTE      PWM0_CH1_CNT_L
      00000089H   SFRSYM    DATA     BYTE      TMOD
      00000088H   SFRSYM    DATA     BYTE      TCON
      000000FAH   SFRSYM    DATA     BYTE      SPROG_ADDR_L
      000000A9H   SFRSYM    DATA     BYTE      PWM0_CH2_CNT_L
      000000E8H.0 SFRSYM    DATA     BIT       IIC_RECOV
      000000E5H   SFRSYM    DATA     BYTE      IICCON
      000000ABH   SFRSYM    DATA     BYTE      PWM0_CH3_CNT_L
      000000D9H   SFRSYM    DATA     BYTE      ADC_IO_SEL1
      000000DAH   SFRSYM    DATA     BYTE      ADC_IO_SEL2
      000000DBH   SFRSYM    DATA     BYTE      ADC_IO_SEL3
      000000E8H.4 SFRSYM    DATA     BIT       IIC_AD
      000000DCH   SFRSYM    DATA     BYTE      ADC_IO_SEL4
      000000E8H.3 SFRSYM    DATA     BIT       IIC_BF
      00000088H.1 SFRSYM    DATA     BIT       IE0
      00000088H.3 SFRSYM    DATA     BIT       IE1
      000000C4H   SFRSYM    DATA     BYTE      LED_IO_START
      000000F8H.0 SFRSYM    DATA     BIT       PA0
      000000F0H   SFRSYM    DATA     BYTE      B
      00000080H.0 SFRSYM    DATA     BIT       PB0
      000000F8H.1 SFRSYM    DATA     BIT       PA1
      000000FCH   SFRSYM    DATA     BYTE      SPROG_CMD
      00000090H.0 SFRSYM    DATA     BIT       PC0
      00000080H.1 SFRSYM    DATA     BIT       PB1
      00000098H.0 SFRSYM    DATA     BIT       PD0
      00000090H.1 SFRSYM    DATA     BIT       PC1
      00000080H.2 SFRSYM    DATA     BIT       PB2
      00000098H.1 SFRSYM    DATA     BIT       PD1
      00000090H.2 SFRSYM    DATA     BIT       PC2
      00000080H.3 SFRSYM    DATA     BIT       PB3
      000000FEH   SFRSYM    DATA     BYTE      PD_ANA
      000000E8H.7 SFRSYM    DATA     BIT       IIC_START
      00000098H.2 SFRSYM    DATA     BIT       PD2
      00000090H.3 SFRSYM    DATA     BIT       PC3
      00000080H.4 SFRSYM    DATA     BIT       PB4
      00000098H.3 SFRSYM    DATA     BIT       PD3
      00000090H.4 SFRSYM    DATA     BIT       PC4
      00000080H.5 SFRSYM    DATA     BIT       PB5
      000000E0H   SFRSYM    DATA     BYTE      ACC
      00000098H.4 SFRSYM    DATA     BIT       PD4
      00000090H.5 SFRSYM    DATA     BIT       PC5
      00000080H.6 SFRSYM    DATA     BIT       PB6
      000000A8H.1 SFRSYM    DATA     BIT       ET0
      00000098H.5 SFRSYM    DATA     BIT       PD5
      00000090H.6 SFRSYM    DATA     BIT       PC6
      00000080H.7 SFRSYM    DATA     BIT       PB7
      000000A8H.3 SFRSYM    DATA     BIT       ET1
      00000098H.6 SFRSYM    DATA     BIT       PD6
      00000090H.7 SFRSYM    DATA     BIT       PC7
      00000088H.5 SFRSYM    DATA     BIT       TF0
LX51 LINKER/LOCATER V4.66.97.0                                                        05/09/2023  16:57:25  PAGE 72


      000000C0H.3 SFRSYM    DATA     BIT       RI0
      00000098H.7 SFRSYM    DATA     BIT       PD7
      00000088H.7 SFRSYM    DATA     BIT       TF1
      000000CAH   SFRSYM    DATA     BYTE      CSD_START
      000000C8H.3 SFRSYM    DATA     BIT       RI1
      0000008CH   SFRSYM    DATA     BYTE      TH0
      000000C0H.4 SFRSYM    DATA     BIT       TI0
      000000A8H.0 SFRSYM    DATA     BIT       EX0
      000000C2H   SFRSYM    DATA     BYTE      UART_IO_CTRL
      0000008DH   SFRSYM    DATA     BYTE      TH1
      000000C8H.4 SFRSYM    DATA     BIT       TI1
      000000A8H.2 SFRSYM    DATA     BIT       EX1
      000000D0H.0 SFRSYM    DATA     BIT       P
      0000008AH   SFRSYM    DATA     BYTE      TL0
      000000C0H   SFRSYM    DATA     BYTE      UART0_STATE
      0000008BH   SFRSYM    DATA     BYTE      TL1
      000000C8H   SFRSYM    DATA     BYTE      UART1_STATE
      000000FFH   SFRSYM    DATA     BYTE      BOR_LVDT_VTH
      000000B8H.1 SFRSYM    DATA     BIT       PT0
      000000D0H.3 SFRSYM    DATA     BIT       RS0
      000000B8H.3 SFRSYM    DATA     BIT       PT1
      000000B0H   SFRSYM    DATA     BYTE      DP_CON
      000000D0H.4 SFRSYM    DATA     BIT       RS1
      00000088H.4 SFRSYM    DATA     BIT       TR0
      00000088H.6 SFRSYM    DATA     BIT       TR1
      000000D2H   SFRSYM    DATA     BYTE      SNS_ANA_CFG
      000000C0H.6 SFRSYM    DATA     BIT       UART0_R8
      000000B8H.0 SFRSYM    DATA     BIT       PX0
      000000FDH   SFRSYM    DATA     BYTE      SPROG_TIM
      000000C8H.6 SFRSYM    DATA     BIT       UART1_R8
      000000B8H.2 SFRSYM    DATA     BIT       PX1
      000000C0H.5 SFRSYM    DATA     BIT       UART0_T8
      00000097H   SFRSYM    DATA     BYTE      REG_DATA
      000000C8H.5 SFRSYM    DATA     BIT       UART1_T8
      00000096H   SFRSYM    DATA     BYTE      REG_ADDR
      000000F8H   SFRSYM    DATA     BYTE      DATAA
      00000083H   SFRSYM    DATA     BYTE      DPH
      00000080H   SFRSYM    DATA     BYTE      DATAB
      000000CBH   SFRSYM    DATA     BYTE      SNS_SCAN_CFG1
      00000090H   SFRSYM    DATA     BYTE      DATAC
      000000E8H.5 SFRSYM    DATA     BIT       IIC_RW
      000000CCH   SFRSYM    DATA     BYTE      SNS_SCAN_CFG2
      000000B9H   SFRSYM    DATA     BYTE      ADC_RDATAH
      00000098H   SFRSYM    DATA     BYTE      DATAD
      000000CDH   SFRSYM    DATA     BYTE      SNS_SCAN_CFG3
      000000BEH   SFRSYM    DATA     BYTE      UART0_CON1
      00000082H   SFRSYM    DATA     BYTE      DPL
      000000C6H   SFRSYM    DATA     BYTE      UART1_CON1
      000000BFH   SFRSYM    DATA     BYTE      UART0_CON2
      000000C7H   SFRSYM    DATA     BYTE      UART1_CON2
      000000BAH   SFRSYM    DATA     BYTE      ADC_RDATAL
      00000092H   SFRSYM    DATA     BYTE      WDT_EN
      000000D3H   SFRSYM    DATA     BYTE      SNS_IO_SEL1
      000000D4H   SFRSYM    DATA     BYTE      SNS_IO_SEL2
      000000D5H   SFRSYM    DATA     BYTE      SNS_IO_SEL3
      00000093H   SFRSYM    DATA     BYTE      TIMER2_CFG
      000000D6H   SFRSYM    DATA     BYTE      SNS_IO_SEL4
      000000A2H   SFRSYM    DATA     BYTE      PWM_EN
      000000B2H   SFRSYM    DATA     BYTE      LED2_WIDTH
      000000E8H.1 SFRSYM    DATA     BIT       IIC_WCOL
      00000084H   SFRSYM    DATA     BYTE      SYS_CLK_CFG
      000000C0H.2 SFRSYM    DATA     BIT       UART0_RO
      000000C8H.2 SFRSYM    DATA     BIT       UART1_RO
      000000D0H.5 SFRSYM    DATA     BIT       F0
      000000D0H.1 SFRSYM    DATA     BIT       F1
LX51 LINKER/LOCATER V4.66.97.0                                                        05/09/2023  16:57:25  PAGE 73


      0000009CH   SFRSYM    DATA     BYTE      PWM1_H_H
      000000A1H   SFRSYM    DATA     BYTE      PWM2_H_H
      000000D0H   SFRSYM    DATA     BYTE      PSW
      0000009BH   SFRSYM    DATA     BYTE      PWM1_H_L
      0000009AH   SFRSYM    DATA     BYTE      PWM1_L_H
      0000009FH   SFRSYM    DATA     BYTE      PWM2_H_L
      0000009EH   SFRSYM    DATA     BYTE      PWM2_L_H
      000000E8H.6 SFRSYM    DATA     BIT       IIC_STOP

      ---         MODULE    ---      ---       XS16TK06X_UART
      000000C3H   SFRSYM    DATA     BYTE      UART_IO_CTRL1
      00000099H   SFRSYM    DATA     BYTE      PWM1_L_L
      000000F7H   SFRSYM    DATA     BYTE      EXT_INT_CON
      0000009DH   SFRSYM    DATA     BYTE      PWM2_L_L
      00000085H   SFRSYM    DATA     BYTE      INT_PE_STAT
      000000B5H   SFRSYM    DATA     BYTE      ADC_SCAN_CFG
      000000A0H   SFRSYM    DATA     BYTE      P2_XH
      000000D0H.6 SFRSYM    DATA     BIT       AC
      000000EAH   SFRSYM    DATA     BYTE      TRISA
      000000E8H.2 SFRSYM    DATA     BIT       IIC_ACK
      000000A8H.7 SFRSYM    DATA     BIT       EA
      000000EBH   SFRSYM    DATA     BYTE      TRISB
      000000ECH   SFRSYM    DATA     BYTE      TRISC
      000000D8H   SFRSYM    DATA     BYTE      PD_PB
      00000091H   SFRSYM    DATA     BYTE      WDT_CTRL
      000000EDH   SFRSYM    DATA     BYTE      TRISD
      000000FBH   SFRSYM    DATA     BYTE      SPROG_DATA
      000000F2H   SFRSYM    DATA     BYTE      PERIPH_IO_SEL
      000000B1H   SFRSYM    DATA     BYTE      SCAN_WIDTH
      000000CFH   SFRSYM    DATA     BYTE      CSD_RAWDATAH
      000000A8H   SFRSYM    DATA     BYTE      IEN0
      000000E6H   SFRSYM    DATA     BYTE      IEN1
      000000E7H   SFRSYM    DATA     BYTE      IEN2
      000000CEH   SFRSYM    DATA     BYTE      CSD_RAWDATAL
      000000AEH   SFRSYM    DATA     BYTE      PWM0_MOD_H
      000000E9H   SFRSYM    DATA     BYTE      IICBUFFER
      000000ADH   SFRSYM    DATA     BYTE      PWM0_MOD_L
      000000C0H.1 SFRSYM    DATA     BIT       UART0_F
      000000E8H   SFRSYM    DATA     BYTE      IICSTAT
      000000C8H.1 SFRSYM    DATA     BIT       UART1_F
      000000B8H   SFRSYM    DATA     BYTE      IPL0
      000000F6H   SFRSYM    DATA     BYTE      IPL1
      000000DDH   SFRSYM    DATA     BYTE      PU_PA
      000000AFH   SFRSYM    DATA     BYTE      SCAN_START
      000000F4H   SFRSYM    DATA     BYTE      IPL2
      000000DEH   SFRSYM    DATA     BYTE      PU_PB
      000000D7H   SFRSYM    DATA     BYTE      RST_STAT
      0000008EH   SFRSYM    DATA     BYTE      SOFT_RST
      000000DFH   SFRSYM    DATA     BYTE      PU_PC
      000000E2H   SFRSYM    DATA     BYTE      PU_PD
      000000D1H   SFRSYM    DATA     BYTE      PULL_I_SELA_L
      000000B6H   SFRSYM    DATA     BYTE      ADCCKC
      000000D0H.7 SFRSYM    DATA     BIT       CY
      00000086H   SFRSYM    DATA     BYTE      INT_POBO_STAT
      000000C0H.0 SFRSYM    DATA     BIT       UART0_P
      000000EEH   SFRSYM    DATA     BYTE      COM_IO_SEL
      000000C8H.0 SFRSYM    DATA     BIT       UART1_P
      000000E3H   SFRSYM    DATA     BYTE      IICADD
      000000BDH   SFRSYM    DATA     BYTE      UART0_BDL
      000000B4H   SFRSYM    DATA     BYTE      ADC_SPT
      000000C5H   SFRSYM    DATA     BYTE      UART1_BDL
      00000081H   SFRSYM    DATA     BYTE      SP
      000000D0H.2 SFRSYM    DATA     BIT       OV
      000000A3H   SFRSYM    DATA     BYTE      PWM0_CH_CTRL
      000000BBH   SFRSYM    DATA     BYTE      ADC_CFG1
LX51 LINKER/LOCATER V4.66.97.0                                                        05/09/2023  16:57:25  PAGE 74


      00000094H   SFRSYM    DATA     BYTE      TIMER2_SET_H
      000000C1H   SFRSYM    DATA     BYTE      UART0_BUF
      000000BCH   SFRSYM    DATA     BYTE      ADC_CFG2
      000000C9H   SFRSYM    DATA     BYTE      UART1_BUF
      000000F1H   SFRSYM    DATA     BYTE      IRCON1
      000000E1H   SFRSYM    DATA     BYTE      IRCON2
      00000095H   SFRSYM    DATA     BYTE      TIMER2_SET_L
      000000A5H   SFRSYM    DATA     BYTE      PWM0_CH0_CNT_H
      000000A7H   SFRSYM    DATA     BYTE      PWM0_CH1_CNT_H
      00000087H   SFRSYM    DATA     BYTE      PCON
      000000F9H   SFRSYM    DATA     BYTE      SPROG_ADDR_H
      000000B3H   SFRSYM    DATA     BYTE      LED_DRIVE
      000000AAH   SFRSYM    DATA     BYTE      PWM0_CH2_CNT_H
      000000EFH   SFRSYM    DATA     BYTE      ODRAIN_EN
      000000ACH   SFRSYM    DATA     BYTE      PWM0_CH3_CNT_H
      000000E4H   SFRSYM    DATA     BYTE      IICBUF
      000000A4H   SFRSYM    DATA     BYTE      PWM0_CH0_CNT_L
      000000A6H   SFRSYM    DATA     BYTE      PWM0_CH1_CNT_L
      00000089H   SFRSYM    DATA     BYTE      TMOD
      00000088H   SFRSYM    DATA     BYTE      TCON
      000000FAH   SFRSYM    DATA     BYTE      SPROG_ADDR_L
      000000A9H   SFRSYM    DATA     BYTE      PWM0_CH2_CNT_L
      000000E8H.0 SFRSYM    DATA     BIT       IIC_RECOV
      000000E5H   SFRSYM    DATA     BYTE      IICCON
      000000ABH   SFRSYM    DATA     BYTE      PWM0_CH3_CNT_L
      000000D9H   SFRSYM    DATA     BYTE      ADC_IO_SEL1
      000000DAH   SFRSYM    DATA     BYTE      ADC_IO_SEL2
      000000DBH   SFRSYM    DATA     BYTE      ADC_IO_SEL3
      000000E8H.4 SFRSYM    DATA     BIT       IIC_AD
      000000DCH   SFRSYM    DATA     BYTE      ADC_IO_SEL4
      000000E8H.3 SFRSYM    DATA     BIT       IIC_BF
      00000088H.1 SFRSYM    DATA     BIT       IE0
      00000088H.3 SFRSYM    DATA     BIT       IE1
      000000C4H   SFRSYM    DATA     BYTE      LED_IO_START
      000000F8H.0 SFRSYM    DATA     BIT       PA0
      000000F0H   SFRSYM    DATA     BYTE      B
      00000080H.0 SFRSYM    DATA     BIT       PB0
      000000F8H.1 SFRSYM    DATA     BIT       PA1
      000000FCH   SFRSYM    DATA     BYTE      SPROG_CMD
      00000090H.0 SFRSYM    DATA     BIT       PC0
      00000080H.1 SFRSYM    DATA     BIT       PB1
      00000098H.0 SFRSYM    DATA     BIT       PD0
      00000090H.1 SFRSYM    DATA     BIT       PC1
      00000080H.2 SFRSYM    DATA     BIT       PB2
      00000098H.1 SFRSYM    DATA     BIT       PD1
      00000090H.2 SFRSYM    DATA     BIT       PC2
      00000080H.3 SFRSYM    DATA     BIT       PB3
      000000FEH   SFRSYM    DATA     BYTE      PD_ANA
      000000E8H.7 SFRSYM    DATA     BIT       IIC_START
      00000098H.2 SFRSYM    DATA     BIT       PD2
      00000090H.3 SFRSYM    DATA     BIT       PC3
      00000080H.4 SFRSYM    DATA     BIT       PB4
      00000098H.3 SFRSYM    DATA     BIT       PD3
      00000090H.4 SFRSYM    DATA     BIT       PC4
      00000080H.5 SFRSYM    DATA     BIT       PB5
      000000E0H   SFRSYM    DATA     BYTE      ACC
      00000098H.4 SFRSYM    DATA     BIT       PD4
      00000090H.5 SFRSYM    DATA     BIT       PC5
      00000080H.6 SFRSYM    DATA     BIT       PB6
      000000A8H.1 SFRSYM    DATA     BIT       ET0
      00000098H.5 SFRSYM    DATA     BIT       PD5
      00000090H.6 SFRSYM    DATA     BIT       PC6
      00000080H.7 SFRSYM    DATA     BIT       PB7
      000000A8H.3 SFRSYM    DATA     BIT       ET1
      00000098H.6 SFRSYM    DATA     BIT       PD6
LX51 LINKER/LOCATER V4.66.97.0                                                        05/09/2023  16:57:25  PAGE 75


      00000090H.7 SFRSYM    DATA     BIT       PC7
      00000088H.5 SFRSYM    DATA     BIT       TF0
      000000C0H.3 SFRSYM    DATA     BIT       RI0
      00000098H.7 SFRSYM    DATA     BIT       PD7
      00000088H.7 SFRSYM    DATA     BIT       TF1
      000000CAH   SFRSYM    DATA     BYTE      CSD_START
      000000C8H.3 SFRSYM    DATA     BIT       RI1
      0000008CH   SFRSYM    DATA     BYTE      TH0
      000000C0H.4 SFRSYM    DATA     BIT       TI0
      000000A8H.0 SFRSYM    DATA     BIT       EX0
      000000C2H   SFRSYM    DATA     BYTE      UART_IO_CTRL
      0000008DH   SFRSYM    DATA     BYTE      TH1
      000000C8H.4 SFRSYM    DATA     BIT       TI1
      000000A8H.2 SFRSYM    DATA     BIT       EX1
      000000D0H.0 SFRSYM    DATA     BIT       P
      0000008AH   SFRSYM    DATA     BYTE      TL0
      000000C0H   SFRSYM    DATA     BYTE      UART0_STATE
      0000008BH   SFRSYM    DATA     BYTE      TL1
      000000C8H   SFRSYM    DATA     BYTE      UART1_STATE
      000000FFH   SFRSYM    DATA     BYTE      BOR_LVDT_VTH
      000000B8H.1 SFRSYM    DATA     BIT       PT0
      000000D0H.3 SFRSYM    DATA     BIT       RS0
      000000B8H.3 SFRSYM    DATA     BIT       PT1
      000000B0H   SFRSYM    DATA     BYTE      DP_CON
      000000D0H.4 SFRSYM    DATA     BIT       RS1
      00000088H.4 SFRSYM    DATA     BIT       TR0
      00000088H.6 SFRSYM    DATA     BIT       TR1
      000000D2H   SFRSYM    DATA     BYTE      SNS_ANA_CFG
      000000C0H.6 SFRSYM    DATA     BIT       UART0_R8
      000000B8H.0 SFRSYM    DATA     BIT       PX0
      000000FDH   SFRSYM    DATA     BYTE      SPROG_TIM
      000000C8H.6 SFRSYM    DATA     BIT       UART1_R8
      000000B8H.2 SFRSYM    DATA     BIT       PX1
      000000C0H.5 SFRSYM    DATA     BIT       UART0_T8
      00000097H   SFRSYM    DATA     BYTE      REG_DATA
      000000C8H.5 SFRSYM    DATA     BIT       UART1_T8
      00000096H   SFRSYM    DATA     BYTE      REG_ADDR
      000000F8H   SFRSYM    DATA     BYTE      DATAA
      00000083H   SFRSYM    DATA     BYTE      DPH
      00000080H   SFRSYM    DATA     BYTE      DATAB
      000000CBH   SFRSYM    DATA     BYTE      SNS_SCAN_CFG1
      00000090H   SFRSYM    DATA     BYTE      DATAC
      000000E8H.5 SFRSYM    DATA     BIT       IIC_RW
      000000CCH   SFRSYM    DATA     BYTE      SNS_SCAN_CFG2
      000000B9H   SFRSYM    DATA     BYTE      ADC_RDATAH
      00000098H   SFRSYM    DATA     BYTE      DATAD
      000000CDH   SFRSYM    DATA     BYTE      SNS_SCAN_CFG3
      000000BEH   SFRSYM    DATA     BYTE      UART0_CON1
      00000082H   SFRSYM    DATA     BYTE      DPL
      000000C6H   SFRSYM    DATA     BYTE      UART1_CON1
      000000BFH   SFRSYM    DATA     BYTE      UART0_CON2
      000000C7H   SFRSYM    DATA     BYTE      UART1_CON2
      000000BAH   SFRSYM    DATA     BYTE      ADC_RDATAL
      00000092H   SFRSYM    DATA     BYTE      WDT_EN
      000000D3H   SFRSYM    DATA     BYTE      SNS_IO_SEL1
      000000D4H   SFRSYM    DATA     BYTE      SNS_IO_SEL2
      000000D5H   SFRSYM    DATA     BYTE      SNS_IO_SEL3
      00000093H   SFRSYM    DATA     BYTE      TIMER2_CFG
      000000D6H   SFRSYM    DATA     BYTE      SNS_IO_SEL4
      000000A2H   SFRSYM    DATA     BYTE      PWM_EN
      000000B2H   SFRSYM    DATA     BYTE      LED2_WIDTH
      000000E8H.1 SFRSYM    DATA     BIT       IIC_WCOL
      00000084H   SFRSYM    DATA     BYTE      SYS_CLK_CFG
      000000C0H.2 SFRSYM    DATA     BIT       UART0_RO
      000000C8H.2 SFRSYM    DATA     BIT       UART1_RO
LX51 LINKER/LOCATER V4.66.97.0                                                        05/09/2023  16:57:25  PAGE 76


      000000D0H.5 SFRSYM    DATA     BIT       F0
      000000D0H.1 SFRSYM    DATA     BIT       F1
      0000009CH   SFRSYM    DATA     BYTE      PWM1_H_H
      000000A1H   SFRSYM    DATA     BYTE      PWM2_H_H
      000000D0H   SFRSYM    DATA     BYTE      PSW
      0000009BH   SFRSYM    DATA     BYTE      PWM1_H_L
      0000009AH   SFRSYM    DATA     BYTE      PWM1_L_H
      0000009FH   SFRSYM    DATA     BYTE      PWM2_H_L
      0000009EH   SFRSYM    DATA     BYTE      PWM2_L_H
      000000E8H.6 SFRSYM    DATA     BIT       IIC_STOP

      ---         MODULE    ---      ---       AD
      02000108H   PUBLIC    XDATA    BYTE      b_temp
      00000026H.1 PUBLIC    BIT      BIT       check_ad_ok_1
      02000107H   PUBLIC    XDATA    BYTE      b_error_e3
      00000026H.0 PUBLIC    BIT      BIT       check_ad_ok
      02000106H   PUBLIC    XDATA    BYTE      b_warning_buf
      0000004AH   PUBLIC    DATA     BYTE      b_delay_check_ad
      02000105H   PUBLIC    XDATA    BYTE      b_ad_buf1
      02000103H   PUBLIC    XDATA    WORD      b_ad_buf0
      02000102H   PUBLIC    XDATA    BYTE      b_admax_value
      00000049H   PUBLIC    DATA     BYTE      gb_wendu
      02000101H   PUBLIC    XDATA    BYTE      b_admin_value
      00000048H   PUBLIC    DATA     BYTE      b_warning
      02000100H   PUBLIC    XDATA    BYTE      b_temp_cnt
      020000FFH   PUBLIC    XDATA    BYTE      b_temp_ad
      020000FEH   PUBLIC    XDATA    BYTE      b_error_sec_1
      020000FCH   PUBLIC    XDATA    WORD      b_quit_time
      020000FBH   PUBLIC    XDATA    BYTE      b_error_sec
      020000FAH   PUBLIC    XDATA    BYTE      b_ad_value
      020000F9H   PUBLIC    XDATA    BYTE      Target_wendu_2
      020000F8H   PUBLIC    XDATA    BYTE      Target_wendu_1
      010033A2H   PUBLIC    CONST    ---       tab_temper
      01002058H   PUBLIC    CODE     ---       warning_check
      0100320AH   PUBLIC    CODE     ---       _get_wendu1
      01001D8FH   PUBLIC    CODE     ---       lab_ad_fun
      000000C3H   SFRSYM    DATA     BYTE      UART_IO_CTRL1
      00000099H   SFRSYM    DATA     BYTE      PWM1_L_L
      000000F7H   SFRSYM    DATA     BYTE      EXT_INT_CON
      0000009DH   SFRSYM    DATA     BYTE      PWM2_L_L
      00000085H   SFRSYM    DATA     BYTE      INT_PE_STAT
      000000B5H   SFRSYM    DATA     BYTE      ADC_SCAN_CFG
      000000A0H   SFRSYM    DATA     BYTE      P2_XH
      000000D0H.6 SFRSYM    DATA     BIT       AC
      000000EAH   SFRSYM    DATA     BYTE      TRISA
      000000E8H.2 SFRSYM    DATA     BIT       IIC_ACK
      000000A8H.7 SFRSYM    DATA     BIT       EA
      000000EBH   SFRSYM    DATA     BYTE      TRISB
      000000ECH   SFRSYM    DATA     BYTE      TRISC
      000000D8H   SFRSYM    DATA     BYTE      PD_PB
      00000091H   SFRSYM    DATA     BYTE      WDT_CTRL
      000000EDH   SFRSYM    DATA     BYTE      TRISD
      000000FBH   SFRSYM    DATA     BYTE      SPROG_DATA
      000000F2H   SFRSYM    DATA     BYTE      PERIPH_IO_SEL
      000000B1H   SFRSYM    DATA     BYTE      SCAN_WIDTH
      000000CFH   SFRSYM    DATA     BYTE      CSD_RAWDATAH
      000000A8H   SFRSYM    DATA     BYTE      IEN0
      000000E6H   SFRSYM    DATA     BYTE      IEN1
      000000E7H   SFRSYM    DATA     BYTE      IEN2
      000000CEH   SFRSYM    DATA     BYTE      CSD_RAWDATAL
      000000AEH   SFRSYM    DATA     BYTE      PWM0_MOD_H
      000000E9H   SFRSYM    DATA     BYTE      IICBUFFER
      000000ADH   SFRSYM    DATA     BYTE      PWM0_MOD_L
      000000C0H.1 SFRSYM    DATA     BIT       UART0_F
      000000E8H   SFRSYM    DATA     BYTE      IICSTAT
LX51 LINKER/LOCATER V4.66.97.0                                                        05/09/2023  16:57:25  PAGE 77


      000000C8H.1 SFRSYM    DATA     BIT       UART1_F
      000000B8H   SFRSYM    DATA     BYTE      IPL0
      000000F6H   SFRSYM    DATA     BYTE      IPL1
      000000DDH   SFRSYM    DATA     BYTE      PU_PA
      000000AFH   SFRSYM    DATA     BYTE      SCAN_START
      000000F4H   SFRSYM    DATA     BYTE      IPL2
      000000DEH   SFRSYM    DATA     BYTE      PU_PB
      000000D7H   SFRSYM    DATA     BYTE      RST_STAT
      0000008EH   SFRSYM    DATA     BYTE      SOFT_RST
      000000DFH   SFRSYM    DATA     BYTE      PU_PC
      000000E2H   SFRSYM    DATA     BYTE      PU_PD
      000000D1H   SFRSYM    DATA     BYTE      PULL_I_SELA_L
      000000B6H   SFRSYM    DATA     BYTE      ADCCKC
      000000D0H.7 SFRSYM    DATA     BIT       CY
      00000086H   SFRSYM    DATA     BYTE      INT_POBO_STAT
      000000C0H.0 SFRSYM    DATA     BIT       UART0_P
      000000EEH   SFRSYM    DATA     BYTE      COM_IO_SEL
      000000C8H.0 SFRSYM    DATA     BIT       UART1_P
      000000E3H   SFRSYM    DATA     BYTE      IICADD
      000000BDH   SFRSYM    DATA     BYTE      UART0_BDL
      000000B4H   SFRSYM    DATA     BYTE      ADC_SPT
      000000C5H   SFRSYM    DATA     BYTE      UART1_BDL
      00000081H   SFRSYM    DATA     BYTE      SP
      000000D0H.2 SFRSYM    DATA     BIT       OV
      000000A3H   SFRSYM    DATA     BYTE      PWM0_CH_CTRL
      000000BBH   SFRSYM    DATA     BYTE      ADC_CFG1
      00000094H   SFRSYM    DATA     BYTE      TIMER2_SET_H
      000000C1H   SFRSYM    DATA     BYTE      UART0_BUF
      000000BCH   SFRSYM    DATA     BYTE      ADC_CFG2
      000000C9H   SFRSYM    DATA     BYTE      UART1_BUF
      000000F1H   SFRSYM    DATA     BYTE      IRCON1
      000000E1H   SFRSYM    DATA     BYTE      IRCON2
      00000095H   SFRSYM    DATA     BYTE      TIMER2_SET_L
      000000A5H   SFRSYM    DATA     BYTE      PWM0_CH0_CNT_H
      000000A7H   SFRSYM    DATA     BYTE      PWM0_CH1_CNT_H
      00000087H   SFRSYM    DATA     BYTE      PCON
      000000F9H   SFRSYM    DATA     BYTE      SPROG_ADDR_H
      000000B3H   SFRSYM    DATA     BYTE      LED_DRIVE
      000000AAH   SFRSYM    DATA     BYTE      PWM0_CH2_CNT_H
      000000EFH   SFRSYM    DATA     BYTE      ODRAIN_EN
      000000ACH   SFRSYM    DATA     BYTE      PWM0_CH3_CNT_H
      000000E4H   SFRSYM    DATA     BYTE      IICBUF
      000000A4H   SFRSYM    DATA     BYTE      PWM0_CH0_CNT_L
      000000A6H   SFRSYM    DATA     BYTE      PWM0_CH1_CNT_L
      00000089H   SFRSYM    DATA     BYTE      TMOD
      00000088H   SFRSYM    DATA     BYTE      TCON
      000000FAH   SFRSYM    DATA     BYTE      SPROG_ADDR_L
      000000A9H   SFRSYM    DATA     BYTE      PWM0_CH2_CNT_L
      000000E8H.0 SFRSYM    DATA     BIT       IIC_RECOV
      000000E5H   SFRSYM    DATA     BYTE      IICCON
      000000ABH   SFRSYM    DATA     BYTE      PWM0_CH3_CNT_L
      000000D9H   SFRSYM    DATA     BYTE      ADC_IO_SEL1
      000000DAH   SFRSYM    DATA     BYTE      ADC_IO_SEL2
      000000DBH   SFRSYM    DATA     BYTE      ADC_IO_SEL3
      000000E8H.4 SFRSYM    DATA     BIT       IIC_AD
      000000DCH   SFRSYM    DATA     BYTE      ADC_IO_SEL4
      000000E8H.3 SFRSYM    DATA     BIT       IIC_BF
      00000088H.1 SFRSYM    DATA     BIT       IE0
      00000088H.3 SFRSYM    DATA     BIT       IE1
      000000C4H   SFRSYM    DATA     BYTE      LED_IO_START
      000000F8H.0 SFRSYM    DATA     BIT       PA0
      000000F0H   SFRSYM    DATA     BYTE      B
      00000080H.0 SFRSYM    DATA     BIT       PB0
      000000F8H.1 SFRSYM    DATA     BIT       PA1
      000000FCH   SFRSYM    DATA     BYTE      SPROG_CMD
LX51 LINKER/LOCATER V4.66.97.0                                                        05/09/2023  16:57:25  PAGE 78


      00000090H.0 SFRSYM    DATA     BIT       PC0
      00000080H.1 SFRSYM    DATA     BIT       PB1
      00000098H.0 SFRSYM    DATA     BIT       PD0
      00000090H.1 SFRSYM    DATA     BIT       PC1
      00000080H.2 SFRSYM    DATA     BIT       PB2
      00000098H.1 SFRSYM    DATA     BIT       PD1
      00000090H.2 SFRSYM    DATA     BIT       PC2
      00000080H.3 SFRSYM    DATA     BIT       PB3
      000000FEH   SFRSYM    DATA     BYTE      PD_ANA
      000000E8H.7 SFRSYM    DATA     BIT       IIC_START
      00000098H.2 SFRSYM    DATA     BIT       PD2
      00000090H.3 SFRSYM    DATA     BIT       PC3
      00000080H.4 SFRSYM    DATA     BIT       PB4
      00000098H.3 SFRSYM    DATA     BIT       PD3
      00000090H.4 SFRSYM    DATA     BIT       PC4
      00000080H.5 SFRSYM    DATA     BIT       PB5
      000000E0H   SFRSYM    DATA     BYTE      ACC
      00000098H.4 SFRSYM    DATA     BIT       PD4
      00000090H.5 SFRSYM    DATA     BIT       PC5
      00000080H.6 SFRSYM    DATA     BIT       PB6
      000000A8H.1 SFRSYM    DATA     BIT       ET0
      00000098H.5 SFRSYM    DATA     BIT       PD5
      00000090H.6 SFRSYM    DATA     BIT       PC6
      00000080H.7 SFRSYM    DATA     BIT       PB7
      000000A8H.3 SFRSYM    DATA     BIT       ET1
      00000098H.6 SFRSYM    DATA     BIT       PD6
      00000090H.7 SFRSYM    DATA     BIT       PC7
      00000088H.5 SFRSYM    DATA     BIT       TF0
      000000C0H.3 SFRSYM    DATA     BIT       RI0
      00000098H.7 SFRSYM    DATA     BIT       PD7
      00000088H.7 SFRSYM    DATA     BIT       TF1
      000000CAH   SFRSYM    DATA     BYTE      CSD_START
      000000C8H.3 SFRSYM    DATA     BIT       RI1
      0000008CH   SFRSYM    DATA     BYTE      TH0
      000000C0H.4 SFRSYM    DATA     BIT       TI0
      000000A8H.0 SFRSYM    DATA     BIT       EX0
      000000C2H   SFRSYM    DATA     BYTE      UART_IO_CTRL
      0000008DH   SFRSYM    DATA     BYTE      TH1
      000000C8H.4 SFRSYM    DATA     BIT       TI1
      000000A8H.2 SFRSYM    DATA     BIT       EX1
      000000D0H.0 SFRSYM    DATA     BIT       P
      0000008AH   SFRSYM    DATA     BYTE      TL0
      000000C0H   SFRSYM    DATA     BYTE      UART0_STATE
      0000008BH   SFRSYM    DATA     BYTE      TL1
      000000C8H   SFRSYM    DATA     BYTE      UART1_STATE
      000000FFH   SFRSYM    DATA     BYTE      BOR_LVDT_VTH
      000000B8H.1 SFRSYM    DATA     BIT       PT0
      000000D0H.3 SFRSYM    DATA     BIT       RS0
      000000B8H.3 SFRSYM    DATA     BIT       PT1
      000000B0H   SFRSYM    DATA     BYTE      DP_CON
      000000D0H.4 SFRSYM    DATA     BIT       RS1
      00000088H.4 SFRSYM    DATA     BIT       TR0
      00000088H.6 SFRSYM    DATA     BIT       TR1
      000000D2H   SFRSYM    DATA     BYTE      SNS_ANA_CFG
      000000C0H.6 SFRSYM    DATA     BIT       UART0_R8
      000000B8H.0 SFRSYM    DATA     BIT       PX0
      000000FDH   SFRSYM    DATA     BYTE      SPROG_TIM
      000000C8H.6 SFRSYM    DATA     BIT       UART1_R8
      000000B8H.2 SFRSYM    DATA     BIT       PX1
      000000C0H.5 SFRSYM    DATA     BIT       UART0_T8
      00000097H   SFRSYM    DATA     BYTE      REG_DATA
      000000C8H.5 SFRSYM    DATA     BIT       UART1_T8
      00000096H   SFRSYM    DATA     BYTE      REG_ADDR
      000000F8H   SFRSYM    DATA     BYTE      DATAA
      00000083H   SFRSYM    DATA     BYTE      DPH
LX51 LINKER/LOCATER V4.66.97.0                                                        05/09/2023  16:57:25  PAGE 79


      00000080H   SFRSYM    DATA     BYTE      DATAB
      000000CBH   SFRSYM    DATA     BYTE      SNS_SCAN_CFG1
      00000090H   SFRSYM    DATA     BYTE      DATAC
      000000E8H.5 SFRSYM    DATA     BIT       IIC_RW
      000000CCH   SFRSYM    DATA     BYTE      SNS_SCAN_CFG2
      000000B9H   SFRSYM    DATA     BYTE      ADC_RDATAH
      00000098H   SFRSYM    DATA     BYTE      DATAD
      000000CDH   SFRSYM    DATA     BYTE      SNS_SCAN_CFG3
      000000BEH   SFRSYM    DATA     BYTE      UART0_CON1
      00000082H   SFRSYM    DATA     BYTE      DPL
      000000C6H   SFRSYM    DATA     BYTE      UART1_CON1
      000000BFH   SFRSYM    DATA     BYTE      UART0_CON2
      000000C7H   SFRSYM    DATA     BYTE      UART1_CON2
      000000BAH   SFRSYM    DATA     BYTE      ADC_RDATAL
      00000092H   SFRSYM    DATA     BYTE      WDT_EN
      000000D3H   SFRSYM    DATA     BYTE      SNS_IO_SEL1
      000000D4H   SFRSYM    DATA     BYTE      SNS_IO_SEL2
      000000D5H   SFRSYM    DATA     BYTE      SNS_IO_SEL3
      00000093H   SFRSYM    DATA     BYTE      TIMER2_CFG
      000000D6H   SFRSYM    DATA     BYTE      SNS_IO_SEL4
      000000A2H   SFRSYM    DATA     BYTE      PWM_EN
      000000B2H   SFRSYM    DATA     BYTE      LED2_WIDTH
      000000E8H.1 SFRSYM    DATA     BIT       IIC_WCOL
      00000084H   SFRSYM    DATA     BYTE      SYS_CLK_CFG
      000000C0H.2 SFRSYM    DATA     BIT       UART0_RO
      000000C8H.2 SFRSYM    DATA     BIT       UART1_RO
      000000D0H.5 SFRSYM    DATA     BIT       F0
      000000D0H.1 SFRSYM    DATA     BIT       F1
      0000009CH   SFRSYM    DATA     BYTE      PWM1_H_H
      000000A1H   SFRSYM    DATA     BYTE      PWM2_H_H
      000000D0H   SFRSYM    DATA     BYTE      PSW
      0000009BH   SFRSYM    DATA     BYTE      PWM1_H_L
      0000009AH   SFRSYM    DATA     BYTE      PWM1_L_H
      0000009FH   SFRSYM    DATA     BYTE      PWM2_H_L
      0000009EH   SFRSYM    DATA     BYTE      PWM2_L_H
      000000E8H.6 SFRSYM    DATA     BIT       IIC_STOP

      01001D8FH   BLOCK     CODE     ---       LVL=0
      01001D8FH   BLOCK     CODE     NEAR LAB  LVL=1
      00000007H   SYMBOL    DATA     BYTE      ad_com
      ---         BLOCKEND  ---      ---       LVL=1
      01001D8FH   LINE      CODE     ---       #900
      01001D8FH   LINE      CODE     ---       #901
      01001D8FH   LINE      CODE     ---       #902
      01001D91H   LINE      CODE     ---       #905
      01001D94H   LINE      CODE     ---       #906
      01001D95H   LINE      CODE     ---       #909
      01001D9BH   LINE      CODE     ---       #910
      01001D9BH   LINE      CODE     ---       #911
      01001DA6H   LINE      CODE     ---       #912
      01001DA8H   LINE      CODE     ---       #914
      01001DB6H   LINE      CODE     ---       #915
      01001DB6H   LINE      CODE     ---       #916
      01001DC0H   LINE      CODE     ---       #917
      01001DD0H   LINE      CODE     ---       #918
      01001DD6H   LINE      CODE     ---       #919
      01001DE0H   LINE      CODE     ---       #920
      01001DE8H   LINE      CODE     ---       #921
      01001DF6H   LINE      CODE     ---       #922
      01001DFBH   LINE      CODE     ---       #923
      01001E08H   LINE      CODE     ---       #924
      01001E08H   LINE      CODE     ---       #925
      01001E0AH   LINE      CODE     ---       #926
      01001E20H   LINE      CODE     ---       #927
      01001E31H   LINE      CODE     ---       #928
LX51 LINKER/LOCATER V4.66.97.0                                                        05/09/2023  16:57:25  PAGE 80


      01001E45H   LINE      CODE     ---       #930
      01001E47H   LINE      CODE     ---       #932
      01001E4EH   LINE      CODE     ---       #933
      01001E52H   LINE      CODE     ---       #934
      01001E58H   LINE      CODE     ---       #941
      01001E58H   LINE      CODE     ---       #945
      01001E5EH   LINE      CODE     ---       #946
      01001E6AH   LINE      CODE     ---       #947
      01001E6FH   LINE      CODE     ---       #948
      01001E7CH   LINE      CODE     ---       #949
      01001E7CH   LINE      CODE     ---       #950
      01001E7EH   LINE      CODE     ---       #951
      01001E83H   LINE      CODE     ---       #952
      01001E88H   LINE      CODE     ---       #953
      01001E8AH   LINE      CODE     ---       #954
      01001E8AH   LINE      CODE     ---       #1001
      01001E8AH   LINE      CODE     ---       #1003
      01001E8BH   LINE      CODE     ---       #1005
      01001E8BH   LINE      CODE     ---       #1006
      01001E8EH   LINE      CODE     ---       #1007
      01001E92H   LINE      CODE     ---       #1011
      01001E92H   LINE      CODE     ---       #1012
      ---         BLOCKEND  ---      ---       LVL=0

      0100320AH   BLOCK     CODE     ---       LVL=0
      00000007H   SYMBOL    DATA     BYTE      ad_value
      0100320AH   BLOCK     CODE     NEAR LAB  LVL=1
      00000006H   SYMBOL    DATA     BYTE      i
      ---         BLOCKEND  ---      ---       LVL=1
      0100320AH   LINE      CODE     ---       #1021
      0100320AH   LINE      CODE     ---       #1022
      0100320AH   LINE      CODE     ---       #1023
      0100320CH   LINE      CODE     ---       #1025
      01003217H   LINE      CODE     ---       #1026
      01003217H   LINE      CODE     ---       #1027
      01003218H   LINE      CODE     ---       #1028
      01003221H   LINE      CODE     ---       #1029
      01003221H   LINE      CODE     ---       #1030
      01003224H   LINE      CODE     ---       #1031
      01003225H   LINE      CODE     ---       #1032
      01003227H   LINE      CODE     ---       #1034
      ---         BLOCKEND  ---      ---       LVL=0

      01002058H   BLOCK     CODE     ---       LVL=0
      01002058H   LINE      CODE     ---       #1131
      01002058H   LINE      CODE     ---       #1132
      01002058H   LINE      CODE     ---       #1134
      0100205BH   LINE      CODE     ---       #1135
      0100205BH   LINE      CODE     ---       #1136
      0100205EH   LINE      CODE     ---       #1137
      01002063H   LINE      CODE     ---       #1138
      01002070H   LINE      CODE     ---       #1139
      01002070H   LINE      CODE     ---       #1140
      0100207DH   LINE      CODE     ---       #1141
      0100207DH   LINE      CODE     ---       #1142
      01002082H   LINE      CODE     ---       #1143
      01002082H   LINE      CODE     ---       #1144
      01002087H   LINE      CODE     ---       #1145
      0100208AH   LINE      CODE     ---       #1146
      0100208AH   LINE      CODE     ---       #1147
      0100208AH   LINE      CODE     ---       #1148
      0100208CH   LINE      CODE     ---       #1149
      01002099H   LINE      CODE     ---       #1150
      01002099H   LINE      CODE     ---       #1151
      0100209EH   LINE      CODE     ---       #1155
LX51 LINKER/LOCATER V4.66.97.0                                                        05/09/2023  16:57:25  PAGE 81


      0100209EH   LINE      CODE     ---       #1178
      010020ABH   LINE      CODE     ---       #1179
      010020ABH   LINE      CODE     ---       #1180
      010020AEH   LINE      CODE     ---       #1181
      010020AEH   LINE      CODE     ---       #1182
      010020BAH   LINE      CODE     ---       #1183
      010020BAH   LINE      CODE     ---       #1185
      010020BFH   LINE      CODE     ---       #1186
      010020BFH   LINE      CODE     ---       #1187
      010020C4H   LINE      CODE     ---       #1188
      010020C7H   LINE      CODE     ---       #1189
      010020C7H   LINE      CODE     ---       #1190
      010020C7H   LINE      CODE     ---       #1192
      010020C7H   LINE      CODE     ---       #1193
      010020C9H   LINE      CODE     ---       #1195
      010020C9H   LINE      CODE     ---       #1196
      010020CEH   LINE      CODE     ---       #1200
      010020CEH   LINE      CODE     ---       #1218
      010020CEH   LINE      CODE     ---       #1266
      010020D7H   LINE      CODE     ---       #1267
      010020D7H   LINE      CODE     ---       #1268
      010020DEH   LINE      CODE     ---       #1269
      010020DEH   LINE      CODE     ---       #1271
      010020DEH   LINE      CODE     ---       #1272
      010020E8H   LINE      CODE     ---       #1273
      010020E8H   LINE      CODE     ---       #1274
      010020EDH   LINE      CODE     ---       #1275
      010020EDH   LINE      CODE     ---       #1276
      010020EDH   LINE      CODE     ---       #1278
      010020F1H   LINE      CODE     ---       #1279
      010020F1H   LINE      CODE     ---       #1280
      010020FFH   LINE      CODE     ---       #1281
      0100210EH   LINE      CODE     ---       #1282
      0100210EH   LINE      CODE     ---       #1283
      01002111H   LINE      CODE     ---       #1284
      01002118H   LINE      CODE     ---       #1285
      0100211AH   LINE      CODE     ---       #1286
      0100211AH   LINE      CODE     ---       #1287
      0100211CH   LINE      CODE     ---       #1289
      01002123H   LINE      CODE     ---       #1292
      01002129H   LINE      CODE     ---       #1293
      ---         BLOCKEND  ---      ---       LVL=0

      ---         MODULE    ---      ---       BUZ
      00000025H.7 PUBLIC    BIT      BIT       f_buzOn
      00000025H.6 PUBLIC    BIT      BIT       f_buzRun
      0200011AH   PUBLIC    XDATA    BYTE      b_buzNum
      02000119H   PUBLIC    XDATA    BYTE      b_buz_SP_cnt
      02000118H   PUBLIC    XDATA    BYTE      b_buzCnt
      02000117H   PUBLIC    XDATA    BYTE      b_buzType
      00000025H.5 PUBLIC    BIT      BIT       f_buzFre
      02000116H   PUBLIC    XDATA    BYTE      b_SP_n
      0000001FH   PUBLIC    DATA     BYTE      b_buzKind
      02000115H   PUBLIC    XDATA    BYTE      b_buzTable
      01003561H   PUBLIC    CONST    ---       tab_buz
      01002499H   PUBLIC    CODE     ---       buz_deal
      01000066H   PUBLIC    CODE     ---       _open_buz
      01003394H   PUBLIC    CODE     ---       buz_ring
      000000C3H   SFRSYM    DATA     BYTE      UART_IO_CTRL1
      00000099H   SFRSYM    DATA     BYTE      PWM1_L_L
      000000F7H   SFRSYM    DATA     BYTE      EXT_INT_CON
      0000009DH   SFRSYM    DATA     BYTE      PWM2_L_L
      00000085H   SFRSYM    DATA     BYTE      INT_PE_STAT
      000000B5H   SFRSYM    DATA     BYTE      ADC_SCAN_CFG
      000000A0H   SFRSYM    DATA     BYTE      P2_XH
LX51 LINKER/LOCATER V4.66.97.0                                                        05/09/2023  16:57:25  PAGE 82


      000000D0H.6 SFRSYM    DATA     BIT       AC
      000000EAH   SFRSYM    DATA     BYTE      TRISA
      000000E8H.2 SFRSYM    DATA     BIT       IIC_ACK
      000000A8H.7 SFRSYM    DATA     BIT       EA
      000000EBH   SFRSYM    DATA     BYTE      TRISB
      000000ECH   SFRSYM    DATA     BYTE      TRISC
      000000D8H   SFRSYM    DATA     BYTE      PD_PB
      00000091H   SFRSYM    DATA     BYTE      WDT_CTRL
      000000EDH   SFRSYM    DATA     BYTE      TRISD
      000000FBH   SFRSYM    DATA     BYTE      SPROG_DATA
      000000F2H   SFRSYM    DATA     BYTE      PERIPH_IO_SEL
      000000B1H   SFRSYM    DATA     BYTE      SCAN_WIDTH
      000000CFH   SFRSYM    DATA     BYTE      CSD_RAWDATAH
      000000A8H   SFRSYM    DATA     BYTE      IEN0
      000000E6H   SFRSYM    DATA     BYTE      IEN1
      000000E7H   SFRSYM    DATA     BYTE      IEN2
      000000CEH   SFRSYM    DATA     BYTE      CSD_RAWDATAL
      000000AEH   SFRSYM    DATA     BYTE      PWM0_MOD_H
      000000E9H   SFRSYM    DATA     BYTE      IICBUFFER
      000000ADH   SFRSYM    DATA     BYTE      PWM0_MOD_L
      000000C0H.1 SFRSYM    DATA     BIT       UART0_F
      000000E8H   SFRSYM    DATA     BYTE      IICSTAT
      000000C8H.1 SFRSYM    DATA     BIT       UART1_F
      000000B8H   SFRSYM    DATA     BYTE      IPL0
      000000F6H   SFRSYM    DATA     BYTE      IPL1
      000000DDH   SFRSYM    DATA     BYTE      PU_PA
      000000AFH   SFRSYM    DATA     BYTE      SCAN_START
      000000F4H   SFRSYM    DATA     BYTE      IPL2
      000000DEH   SFRSYM    DATA     BYTE      PU_PB
      000000D7H   SFRSYM    DATA     BYTE      RST_STAT
      0000008EH   SFRSYM    DATA     BYTE      SOFT_RST
      000000DFH   SFRSYM    DATA     BYTE      PU_PC
      000000E2H   SFRSYM    DATA     BYTE      PU_PD
      000000D1H   SFRSYM    DATA     BYTE      PULL_I_SELA_L
      000000B6H   SFRSYM    DATA     BYTE      ADCCKC
      000000D0H.7 SFRSYM    DATA     BIT       CY
      00000086H   SFRSYM    DATA     BYTE      INT_POBO_STAT
      000000C0H.0 SFRSYM    DATA     BIT       UART0_P
      000000EEH   SFRSYM    DATA     BYTE      COM_IO_SEL
      000000C8H.0 SFRSYM    DATA     BIT       UART1_P
      000000E3H   SFRSYM    DATA     BYTE      IICADD
      000000BDH   SFRSYM    DATA     BYTE      UART0_BDL
      000000B4H   SFRSYM    DATA     BYTE      ADC_SPT
      000000C5H   SFRSYM    DATA     BYTE      UART1_BDL
      00000081H   SFRSYM    DATA     BYTE      SP
      000000D0H.2 SFRSYM    DATA     BIT       OV
      000000A3H   SFRSYM    DATA     BYTE      PWM0_CH_CTRL
      000000BBH   SFRSYM    DATA     BYTE      ADC_CFG1
      00000094H   SFRSYM    DATA     BYTE      TIMER2_SET_H
      000000C1H   SFRSYM    DATA     BYTE      UART0_BUF
      000000BCH   SFRSYM    DATA     BYTE      ADC_CFG2
      000000C9H   SFRSYM    DATA     BYTE      UART1_BUF
      000000F1H   SFRSYM    DATA     BYTE      IRCON1
      000000E1H   SFRSYM    DATA     BYTE      IRCON2
      00000095H   SFRSYM    DATA     BYTE      TIMER2_SET_L
      000000A5H   SFRSYM    DATA     BYTE      PWM0_CH0_CNT_H
      000000A7H   SFRSYM    DATA     BYTE      PWM0_CH1_CNT_H
      00000087H   SFRSYM    DATA     BYTE      PCON
      000000F9H   SFRSYM    DATA     BYTE      SPROG_ADDR_H
      000000B3H   SFRSYM    DATA     BYTE      LED_DRIVE
      000000AAH   SFRSYM    DATA     BYTE      PWM0_CH2_CNT_H
      000000EFH   SFRSYM    DATA     BYTE      ODRAIN_EN
      000000ACH   SFRSYM    DATA     BYTE      PWM0_CH3_CNT_H
      000000E4H   SFRSYM    DATA     BYTE      IICBUF
      000000A4H   SFRSYM    DATA     BYTE      PWM0_CH0_CNT_L
LX51 LINKER/LOCATER V4.66.97.0                                                        05/09/2023  16:57:25  PAGE 83


      000000A6H   SFRSYM    DATA     BYTE      PWM0_CH1_CNT_L
      00000089H   SFRSYM    DATA     BYTE      TMOD
      00000088H   SFRSYM    DATA     BYTE      TCON
      000000FAH   SFRSYM    DATA     BYTE      SPROG_ADDR_L
      000000A9H   SFRSYM    DATA     BYTE      PWM0_CH2_CNT_L
      000000E8H.0 SFRSYM    DATA     BIT       IIC_RECOV
      000000E5H   SFRSYM    DATA     BYTE      IICCON
      000000ABH   SFRSYM    DATA     BYTE      PWM0_CH3_CNT_L
      000000D9H   SFRSYM    DATA     BYTE      ADC_IO_SEL1
      000000DAH   SFRSYM    DATA     BYTE      ADC_IO_SEL2
      000000DBH   SFRSYM    DATA     BYTE      ADC_IO_SEL3
      000000E8H.4 SFRSYM    DATA     BIT       IIC_AD
      000000DCH   SFRSYM    DATA     BYTE      ADC_IO_SEL4
      000000E8H.3 SFRSYM    DATA     BIT       IIC_BF
      00000088H.1 SFRSYM    DATA     BIT       IE0
      00000088H.3 SFRSYM    DATA     BIT       IE1
      000000C4H   SFRSYM    DATA     BYTE      LED_IO_START
      000000F8H.0 SFRSYM    DATA     BIT       PA0
      000000F0H   SFRSYM    DATA     BYTE      B
      00000080H.0 SFRSYM    DATA     BIT       PB0
      000000F8H.1 SFRSYM    DATA     BIT       PA1
      000000FCH   SFRSYM    DATA     BYTE      SPROG_CMD
      00000090H.0 SFRSYM    DATA     BIT       PC0
      00000080H.1 SFRSYM    DATA     BIT       PB1
      00000098H.0 SFRSYM    DATA     BIT       PD0
      00000090H.1 SFRSYM    DATA     BIT       PC1
      00000080H.2 SFRSYM    DATA     BIT       PB2
      00000098H.1 SFRSYM    DATA     BIT       PD1
      00000090H.2 SFRSYM    DATA     BIT       PC2
      00000080H.3 SFRSYM    DATA     BIT       PB3
      000000FEH   SFRSYM    DATA     BYTE      PD_ANA
      000000E8H.7 SFRSYM    DATA     BIT       IIC_START
      00000098H.2 SFRSYM    DATA     BIT       PD2
      00000090H.3 SFRSYM    DATA     BIT       PC3
      00000080H.4 SFRSYM    DATA     BIT       PB4
      00000098H.3 SFRSYM    DATA     BIT       PD3
      00000090H.4 SFRSYM    DATA     BIT       PC4
      00000080H.5 SFRSYM    DATA     BIT       PB5
      000000E0H   SFRSYM    DATA     BYTE      ACC
      00000098H.4 SFRSYM    DATA     BIT       PD4
      00000090H.5 SFRSYM    DATA     BIT       PC5
      00000080H.6 SFRSYM    DATA     BIT       PB6
      000000A8H.1 SFRSYM    DATA     BIT       ET0
      00000098H.5 SFRSYM    DATA     BIT       PD5
      00000090H.6 SFRSYM    DATA     BIT       PC6
      00000080H.7 SFRSYM    DATA     BIT       PB7
      000000A8H.3 SFRSYM    DATA     BIT       ET1
      00000098H.6 SFRSYM    DATA     BIT       PD6
      00000090H.7 SFRSYM    DATA     BIT       PC7
      00000088H.5 SFRSYM    DATA     BIT       TF0
      000000C0H.3 SFRSYM    DATA     BIT       RI0
      00000098H.7 SFRSYM    DATA     BIT       PD7
      00000088H.7 SFRSYM    DATA     BIT       TF1
      000000CAH   SFRSYM    DATA     BYTE      CSD_START
      000000C8H.3 SFRSYM    DATA     BIT       RI1
      0000008CH   SFRSYM    DATA     BYTE      TH0
      000000C0H.4 SFRSYM    DATA     BIT       TI0
      000000A8H.0 SFRSYM    DATA     BIT       EX0
      000000C2H   SFRSYM    DATA     BYTE      UART_IO_CTRL
      0000008DH   SFRSYM    DATA     BYTE      TH1
      000000C8H.4 SFRSYM    DATA     BIT       TI1
      000000A8H.2 SFRSYM    DATA     BIT       EX1
      000000D0H.0 SFRSYM    DATA     BIT       P
      0000008AH   SFRSYM    DATA     BYTE      TL0
      000000C0H   SFRSYM    DATA     BYTE      UART0_STATE
LX51 LINKER/LOCATER V4.66.97.0                                                        05/09/2023  16:57:25  PAGE 84


      0000008BH   SFRSYM    DATA     BYTE      TL1
      000000C8H   SFRSYM    DATA     BYTE      UART1_STATE
      000000FFH   SFRSYM    DATA     BYTE      BOR_LVDT_VTH
      000000B8H.1 SFRSYM    DATA     BIT       PT0
      000000D0H.3 SFRSYM    DATA     BIT       RS0
      000000B8H.3 SFRSYM    DATA     BIT       PT1
      000000B0H   SFRSYM    DATA     BYTE      DP_CON
      000000D0H.4 SFRSYM    DATA     BIT       RS1
      00000088H.4 SFRSYM    DATA     BIT       TR0
      00000088H.6 SFRSYM    DATA     BIT       TR1
      000000D2H   SFRSYM    DATA     BYTE      SNS_ANA_CFG
      000000C0H.6 SFRSYM    DATA     BIT       UART0_R8
      000000B8H.0 SFRSYM    DATA     BIT       PX0
      000000FDH   SFRSYM    DATA     BYTE      SPROG_TIM
      000000C8H.6 SFRSYM    DATA     BIT       UART1_R8
      000000B8H.2 SFRSYM    DATA     BIT       PX1
      000000C0H.5 SFRSYM    DATA     BIT       UART0_T8
      00000097H   SFRSYM    DATA     BYTE      REG_DATA
      000000C8H.5 SFRSYM    DATA     BIT       UART1_T8
      00000096H   SFRSYM    DATA     BYTE      REG_ADDR
      000000F8H   SFRSYM    DATA     BYTE      DATAA
      00000083H   SFRSYM    DATA     BYTE      DPH
      00000080H   SFRSYM    DATA     BYTE      DATAB
      000000CBH   SFRSYM    DATA     BYTE      SNS_SCAN_CFG1
      00000090H   SFRSYM    DATA     BYTE      DATAC
      000000E8H.5 SFRSYM    DATA     BIT       IIC_RW
      000000CCH   SFRSYM    DATA     BYTE      SNS_SCAN_CFG2
      000000B9H   SFRSYM    DATA     BYTE      ADC_RDATAH
      00000098H   SFRSYM    DATA     BYTE      DATAD
      000000CDH   SFRSYM    DATA     BYTE      SNS_SCAN_CFG3
      000000BEH   SFRSYM    DATA     BYTE      UART0_CON1
      00000082H   SFRSYM    DATA     BYTE      DPL
      000000C6H   SFRSYM    DATA     BYTE      UART1_CON1
      000000BFH   SFRSYM    DATA     BYTE      UART0_CON2
      000000C7H   SFRSYM    DATA     BYTE      UART1_CON2
      000000BAH   SFRSYM    DATA     BYTE      ADC_RDATAL
      00000092H   SFRSYM    DATA     BYTE      WDT_EN
      000000D3H   SFRSYM    DATA     BYTE      SNS_IO_SEL1
      000000D4H   SFRSYM    DATA     BYTE      SNS_IO_SEL2
      000000D5H   SFRSYM    DATA     BYTE      SNS_IO_SEL3
      00000093H   SFRSYM    DATA     BYTE      TIMER2_CFG
      000000D6H   SFRSYM    DATA     BYTE      SNS_IO_SEL4
      000000A2H   SFRSYM    DATA     BYTE      PWM_EN
      000000B2H   SFRSYM    DATA     BYTE      LED2_WIDTH
      000000E8H.1 SFRSYM    DATA     BIT       IIC_WCOL
      00000084H   SFRSYM    DATA     BYTE      SYS_CLK_CFG
      000000C0H.2 SFRSYM    DATA     BIT       UART0_RO
      000000C8H.2 SFRSYM    DATA     BIT       UART1_RO
      000000D0H.5 SFRSYM    DATA     BIT       F0
      000000D0H.1 SFRSYM    DATA     BIT       F1
      0000009CH   SFRSYM    DATA     BYTE      PWM1_H_H
      000000A1H   SFRSYM    DATA     BYTE      PWM2_H_H
      000000D0H   SFRSYM    DATA     BYTE      PSW
      0000009BH   SFRSYM    DATA     BYTE      PWM1_H_L
      0000009AH   SFRSYM    DATA     BYTE      PWM1_L_H
      0000009FH   SFRSYM    DATA     BYTE      PWM2_H_L
      0000009EH   SFRSYM    DATA     BYTE      PWM2_L_H
      000000E8H.6 SFRSYM    DATA     BIT       IIC_STOP

      01003394H   BLOCK     CODE     ---       LVL=0
      01003394H   LINE      CODE     ---       #72
      01003394H   LINE      CODE     ---       #73
      01003394H   LINE      CODE     ---       #91
      01003397H   LINE      CODE     ---       #92
      01003397H   LINE      CODE     ---       #93
LX51 LINKER/LOCATER V4.66.97.0                                                        05/09/2023  16:57:25  PAGE 85


      0100339CH   LINE      CODE     ---       #94
      0100339CH   LINE      CODE     ---       #95
      0100339EH   LINE      CODE     ---       #96
      0100339FH   LINE      CODE     ---       #98
      0100339FH   LINE      CODE     ---       #99
      010033A1H   LINE      CODE     ---       #100
      010033A1H   LINE      CODE     ---       #101
      010033A1H   LINE      CODE     ---       #103
      ---         BLOCKEND  ---      ---       LVL=0

      01000066H   BLOCK     CODE     ---       LVL=0
      00000007H   SYMBOL    DATA     BYTE      i
      01000066H   LINE      CODE     ---       #112
      01000066H   LINE      CODE     ---       #113
      01000066H   LINE      CODE     ---       #114
      01000068H   LINE      CODE     ---       #115
      ---         BLOCKEND  ---      ---       LVL=0

      01002499H   BLOCK     CODE     ---       LVL=0
      01002499H   LINE      CODE     ---       #126
      01002499H   LINE      CODE     ---       #127
      01002499H   LINE      CODE     ---       #128
      0100249DH   LINE      CODE     ---       #129
      0100249DH   LINE      CODE     ---       #130
      010024A2H   LINE      CODE     ---       #131
      010024A5H   LINE      CODE     ---       #132
      010024B9H   LINE      CODE     ---       #133
      010024BEH   LINE      CODE     ---       #134
      010024C0H   LINE      CODE     ---       #135
      010024C2H   LINE      CODE     ---       #138
      010024C8H   LINE      CODE     ---       #139
      010024CBH   LINE      CODE     ---       #140
      010024CEH   LINE      CODE     ---       #141
      010024D0H   LINE      CODE     ---       #142
      010024D2H   LINE      CODE     ---       #143
      010024D4H   LINE      CODE     ---       #144
      010024D6H   LINE      CODE     ---       #146
      010024D6H   LINE      CODE     ---       #148
      010024D9H   LINE      CODE     ---       #149
      010024D9H   LINE      CODE     ---       #150
      010024DFH   LINE      CODE     ---       #151
      010024FDH   LINE      CODE     ---       #152
      010024FDH   LINE      CODE     ---       #153
      010024FFH   LINE      CODE     ---       #154
      01002502H   LINE      CODE     ---       #156
      01002504H   LINE      CODE     ---       #158
      01002504H   LINE      CODE     ---       #159
      01002506H   LINE      CODE     ---       #160
      0100250BH   LINE      CODE     ---       #161
      0100250BH   LINE      CODE     ---       #163
      0100251EH   LINE      CODE     ---       #164
      0100251EH   LINE      CODE     ---       #165
      01002524H   LINE      CODE     ---       #166
      01002529H   LINE      CODE     ---       #167
      0100252FH   LINE      CODE     ---       #168
      0100252FH   LINE      CODE     ---       #169
      01002531H   LINE      CODE     ---       #170
      01002533H   LINE      CODE     ---       #171
      01002538H   LINE      CODE     ---       #172
      01002538H   LINE      CODE     ---       #173
      01002538H   LINE      CODE     ---       #174
      01002538H   LINE      CODE     ---       #176
      ---         BLOCKEND  ---      ---       LVL=0

      ---         MODULE    ---      ---       CODINGSWITCH
LX51 LINKER/LOCATER V4.66.97.0                                                        05/09/2023  16:57:25  PAGE 86


      000000C3H   SFRSYM    DATA     BYTE      UART_IO_CTRL1
      00000099H   SFRSYM    DATA     BYTE      PWM1_L_L
      000000F7H   SFRSYM    DATA     BYTE      EXT_INT_CON
      0000009DH   SFRSYM    DATA     BYTE      PWM2_L_L
      00000085H   SFRSYM    DATA     BYTE      INT_PE_STAT
      000000B5H   SFRSYM    DATA     BYTE      ADC_SCAN_CFG
      000000A0H   SFRSYM    DATA     BYTE      P2_XH
      000000D0H.6 SFRSYM    DATA     BIT       AC
      000000EAH   SFRSYM    DATA     BYTE      TRISA
      000000E8H.2 SFRSYM    DATA     BIT       IIC_ACK
      000000A8H.7 SFRSYM    DATA     BIT       EA
      000000EBH   SFRSYM    DATA     BYTE      TRISB
      000000ECH   SFRSYM    DATA     BYTE      TRISC
      000000D8H   SFRSYM    DATA     BYTE      PD_PB
      00000091H   SFRSYM    DATA     BYTE      WDT_CTRL
      000000EDH   SFRSYM    DATA     BYTE      TRISD
      000000FBH   SFRSYM    DATA     BYTE      SPROG_DATA
      000000F2H   SFRSYM    DATA     BYTE      PERIPH_IO_SEL
      000000B1H   SFRSYM    DATA     BYTE      SCAN_WIDTH
      000000CFH   SFRSYM    DATA     BYTE      CSD_RAWDATAH
      000000A8H   SFRSYM    DATA     BYTE      IEN0
      000000E6H   SFRSYM    DATA     BYTE      IEN1
      000000E7H   SFRSYM    DATA     BYTE      IEN2
      000000CEH   SFRSYM    DATA     BYTE      CSD_RAWDATAL
      000000AEH   SFRSYM    DATA     BYTE      PWM0_MOD_H
      000000E9H   SFRSYM    DATA     BYTE      IICBUFFER
      000000ADH   SFRSYM    DATA     BYTE      PWM0_MOD_L
      000000C0H.1 SFRSYM    DATA     BIT       UART0_F
      000000E8H   SFRSYM    DATA     BYTE      IICSTAT
      000000C8H.1 SFRSYM    DATA     BIT       UART1_F
      000000B8H   SFRSYM    DATA     BYTE      IPL0
      000000F6H   SFRSYM    DATA     BYTE      IPL1
      000000DDH   SFRSYM    DATA     BYTE      PU_PA
      000000AFH   SFRSYM    DATA     BYTE      SCAN_START
      000000F4H   SFRSYM    DATA     BYTE      IPL2
      000000DEH   SFRSYM    DATA     BYTE      PU_PB
      000000D7H   SFRSYM    DATA     BYTE      RST_STAT
      0000008EH   SFRSYM    DATA     BYTE      SOFT_RST
      000000DFH   SFRSYM    DATA     BYTE      PU_PC
      000000E2H   SFRSYM    DATA     BYTE      PU_PD
      000000D1H   SFRSYM    DATA     BYTE      PULL_I_SELA_L
      000000B6H   SFRSYM    DATA     BYTE      ADCCKC
      000000D0H.7 SFRSYM    DATA     BIT       CY
      00000086H   SFRSYM    DATA     BYTE      INT_POBO_STAT
      000000C0H.0 SFRSYM    DATA     BIT       UART0_P
      000000EEH   SFRSYM    DATA     BYTE      COM_IO_SEL
      000000C8H.0 SFRSYM    DATA     BIT       UART1_P
      000000E3H   SFRSYM    DATA     BYTE      IICADD
      000000BDH   SFRSYM    DATA     BYTE      UART0_BDL
      000000B4H   SFRSYM    DATA     BYTE      ADC_SPT
      000000C5H   SFRSYM    DATA     BYTE      UART1_BDL
      00000081H   SFRSYM    DATA     BYTE      SP
      000000D0H.2 SFRSYM    DATA     BIT       OV
      000000A3H   SFRSYM    DATA     BYTE      PWM0_CH_CTRL
      000000BBH   SFRSYM    DATA     BYTE      ADC_CFG1
      00000094H   SFRSYM    DATA     BYTE      TIMER2_SET_H
      000000C1H   SFRSYM    DATA     BYTE      UART0_BUF
      000000BCH   SFRSYM    DATA     BYTE      ADC_CFG2
      000000C9H   SFRSYM    DATA     BYTE      UART1_BUF
      000000F1H   SFRSYM    DATA     BYTE      IRCON1
      000000E1H   SFRSYM    DATA     BYTE      IRCON2
      00000095H   SFRSYM    DATA     BYTE      TIMER2_SET_L
      000000A5H   SFRSYM    DATA     BYTE      PWM0_CH0_CNT_H
      000000A7H   SFRSYM    DATA     BYTE      PWM0_CH1_CNT_H
      00000087H   SFRSYM    DATA     BYTE      PCON
LX51 LINKER/LOCATER V4.66.97.0                                                        05/09/2023  16:57:25  PAGE 87


      000000F9H   SFRSYM    DATA     BYTE      SPROG_ADDR_H
      000000B3H   SFRSYM    DATA     BYTE      LED_DRIVE
      000000AAH   SFRSYM    DATA     BYTE      PWM0_CH2_CNT_H
      000000EFH   SFRSYM    DATA     BYTE      ODRAIN_EN
      000000ACH   SFRSYM    DATA     BYTE      PWM0_CH3_CNT_H
      000000E4H   SFRSYM    DATA     BYTE      IICBUF
      000000A4H   SFRSYM    DATA     BYTE      PWM0_CH0_CNT_L
      000000A6H   SFRSYM    DATA     BYTE      PWM0_CH1_CNT_L
      00000089H   SFRSYM    DATA     BYTE      TMOD
      00000088H   SFRSYM    DATA     BYTE      TCON
      000000FAH   SFRSYM    DATA     BYTE      SPROG_ADDR_L
      000000A9H   SFRSYM    DATA     BYTE      PWM0_CH2_CNT_L
      000000E8H.0 SFRSYM    DATA     BIT       IIC_RECOV
      000000E5H   SFRSYM    DATA     BYTE      IICCON
      000000ABH   SFRSYM    DATA     BYTE      PWM0_CH3_CNT_L
      000000D9H   SFRSYM    DATA     BYTE      ADC_IO_SEL1
      000000DAH   SFRSYM    DATA     BYTE      ADC_IO_SEL2
      000000DBH   SFRSYM    DATA     BYTE      ADC_IO_SEL3
      000000E8H.4 SFRSYM    DATA     BIT       IIC_AD
      000000DCH   SFRSYM    DATA     BYTE      ADC_IO_SEL4
      000000E8H.3 SFRSYM    DATA     BIT       IIC_BF
      00000088H.1 SFRSYM    DATA     BIT       IE0
      00000088H.3 SFRSYM    DATA     BIT       IE1
      000000C4H   SFRSYM    DATA     BYTE      LED_IO_START
      000000F8H.0 SFRSYM    DATA     BIT       PA0
      000000F0H   SFRSYM    DATA     BYTE      B
      00000080H.0 SFRSYM    DATA     BIT       PB0
      000000F8H.1 SFRSYM    DATA     BIT       PA1
      000000FCH   SFRSYM    DATA     BYTE      SPROG_CMD
      00000090H.0 SFRSYM    DATA     BIT       PC0
      00000080H.1 SFRSYM    DATA     BIT       PB1
      00000098H.0 SFRSYM    DATA     BIT       PD0
      00000090H.1 SFRSYM    DATA     BIT       PC1
      00000080H.2 SFRSYM    DATA     BIT       PB2
      00000098H.1 SFRSYM    DATA     BIT       PD1
      00000090H.2 SFRSYM    DATA     BIT       PC2
      00000080H.3 SFRSYM    DATA     BIT       PB3
      000000FEH   SFRSYM    DATA     BYTE      PD_ANA
      000000E8H.7 SFRSYM    DATA     BIT       IIC_START
      00000098H.2 SFRSYM    DATA     BIT       PD2
      00000090H.3 SFRSYM    DATA     BIT       PC3
      00000080H.4 SFRSYM    DATA     BIT       PB4
      00000098H.3 SFRSYM    DATA     BIT       PD3
      00000090H.4 SFRSYM    DATA     BIT       PC4
      00000080H.5 SFRSYM    DATA     BIT       PB5
      000000E0H   SFRSYM    DATA     BYTE      ACC
      00000098H.4 SFRSYM    DATA     BIT       PD4
      00000090H.5 SFRSYM    DATA     BIT       PC5
      00000080H.6 SFRSYM    DATA     BIT       PB6
      000000A8H.1 SFRSYM    DATA     BIT       ET0
      00000098H.5 SFRSYM    DATA     BIT       PD5
      00000090H.6 SFRSYM    DATA     BIT       PC6
      00000080H.7 SFRSYM    DATA     BIT       PB7
      000000A8H.3 SFRSYM    DATA     BIT       ET1
      00000098H.6 SFRSYM    DATA     BIT       PD6
      00000090H.7 SFRSYM    DATA     BIT       PC7
      00000088H.5 SFRSYM    DATA     BIT       TF0
      000000C0H.3 SFRSYM    DATA     BIT       RI0
      00000098H.7 SFRSYM    DATA     BIT       PD7
      00000088H.7 SFRSYM    DATA     BIT       TF1
      000000CAH   SFRSYM    DATA     BYTE      CSD_START
      000000C8H.3 SFRSYM    DATA     BIT       RI1
      0000008CH   SFRSYM    DATA     BYTE      TH0
      000000C0H.4 SFRSYM    DATA     BIT       TI0
      000000A8H.0 SFRSYM    DATA     BIT       EX0
LX51 LINKER/LOCATER V4.66.97.0                                                        05/09/2023  16:57:25  PAGE 88


      000000C2H   SFRSYM    DATA     BYTE      UART_IO_CTRL
      0000008DH   SFRSYM    DATA     BYTE      TH1
      000000C8H.4 SFRSYM    DATA     BIT       TI1
      000000A8H.2 SFRSYM    DATA     BIT       EX1
      000000D0H.0 SFRSYM    DATA     BIT       P
      0000008AH   SFRSYM    DATA     BYTE      TL0
      000000C0H   SFRSYM    DATA     BYTE      UART0_STATE
      0000008BH   SFRSYM    DATA     BYTE      TL1
      000000C8H   SFRSYM    DATA     BYTE      UART1_STATE
      000000FFH   SFRSYM    DATA     BYTE      BOR_LVDT_VTH
      000000B8H.1 SFRSYM    DATA     BIT       PT0
      000000D0H.3 SFRSYM    DATA     BIT       RS0
      000000B8H.3 SFRSYM    DATA     BIT       PT1
      000000B0H   SFRSYM    DATA     BYTE      DP_CON
      000000D0H.4 SFRSYM    DATA     BIT       RS1
      00000088H.4 SFRSYM    DATA     BIT       TR0
      00000088H.6 SFRSYM    DATA     BIT       TR1
      000000D2H   SFRSYM    DATA     BYTE      SNS_ANA_CFG
      000000C0H.6 SFRSYM    DATA     BIT       UART0_R8
      000000B8H.0 SFRSYM    DATA     BIT       PX0
      000000FDH   SFRSYM    DATA     BYTE      SPROG_TIM
      000000C8H.6 SFRSYM    DATA     BIT       UART1_R8
      000000B8H.2 SFRSYM    DATA     BIT       PX1
      000000C0H.5 SFRSYM    DATA     BIT       UART0_T8
      00000097H   SFRSYM    DATA     BYTE      REG_DATA
      000000C8H.5 SFRSYM    DATA     BIT       UART1_T8
      00000096H   SFRSYM    DATA     BYTE      REG_ADDR
      000000F8H   SFRSYM    DATA     BYTE      DATAA
      00000083H   SFRSYM    DATA     BYTE      DPH
      00000080H   SFRSYM    DATA     BYTE      DATAB
      000000CBH   SFRSYM    DATA     BYTE      SNS_SCAN_CFG1
      00000090H   SFRSYM    DATA     BYTE      DATAC
      000000E8H.5 SFRSYM    DATA     BIT       IIC_RW
      000000CCH   SFRSYM    DATA     BYTE      SNS_SCAN_CFG2
      000000B9H   SFRSYM    DATA     BYTE      ADC_RDATAH
      00000098H   SFRSYM    DATA     BYTE      DATAD
      000000CDH   SFRSYM    DATA     BYTE      SNS_SCAN_CFG3
      000000BEH   SFRSYM    DATA     BYTE      UART0_CON1
      00000082H   SFRSYM    DATA     BYTE      DPL
      000000C6H   SFRSYM    DATA     BYTE      UART1_CON1
      000000BFH   SFRSYM    DATA     BYTE      UART0_CON2
      000000C7H   SFRSYM    DATA     BYTE      UART1_CON2
      000000BAH   SFRSYM    DATA     BYTE      ADC_RDATAL
      00000092H   SFRSYM    DATA     BYTE      WDT_EN
      000000D3H   SFRSYM    DATA     BYTE      SNS_IO_SEL1
      000000D4H   SFRSYM    DATA     BYTE      SNS_IO_SEL2
      000000D5H   SFRSYM    DATA     BYTE      SNS_IO_SEL3
      00000093H   SFRSYM    DATA     BYTE      TIMER2_CFG
      000000D6H   SFRSYM    DATA     BYTE      SNS_IO_SEL4
      000000A2H   SFRSYM    DATA     BYTE      PWM_EN
      000000B2H   SFRSYM    DATA     BYTE      LED2_WIDTH
      000000E8H.1 SFRSYM    DATA     BIT       IIC_WCOL
      00000084H   SFRSYM    DATA     BYTE      SYS_CLK_CFG
      000000C0H.2 SFRSYM    DATA     BIT       UART0_RO
      000000C8H.2 SFRSYM    DATA     BIT       UART1_RO
      000000D0H.5 SFRSYM    DATA     BIT       F0
      000000D0H.1 SFRSYM    DATA     BIT       F1
      0000009CH   SFRSYM    DATA     BYTE      PWM1_H_H
      000000A1H   SFRSYM    DATA     BYTE      PWM2_H_H
      000000D0H   SFRSYM    DATA     BYTE      PSW
      0000009BH   SFRSYM    DATA     BYTE      PWM1_H_L
      0000009AH   SFRSYM    DATA     BYTE      PWM1_L_H
      0000009FH   SFRSYM    DATA     BYTE      PWM2_H_L
      0000009EH   SFRSYM    DATA     BYTE      PWM2_L_H
      000000E8H.6 SFRSYM    DATA     BIT       IIC_STOP
LX51 LINKER/LOCATER V4.66.97.0                                                        05/09/2023  16:57:25  PAGE 89



      ---         MODULE    ---      ---       CODINGSWITCH_USER
      000000C3H   SFRSYM    DATA     BYTE      UART_IO_CTRL1
      00000099H   SFRSYM    DATA     BYTE      PWM1_L_L
      000000F7H   SFRSYM    DATA     BYTE      EXT_INT_CON
      0000009DH   SFRSYM    DATA     BYTE      PWM2_L_L
      00000085H   SFRSYM    DATA     BYTE      INT_PE_STAT
      000000B5H   SFRSYM    DATA     BYTE      ADC_SCAN_CFG
      000000A0H   SFRSYM    DATA     BYTE      P2_XH
      000000D0H.6 SFRSYM    DATA     BIT       AC
      000000EAH   SFRSYM    DATA     BYTE      TRISA
      000000E8H.2 SFRSYM    DATA     BIT       IIC_ACK
      000000A8H.7 SFRSYM    DATA     BIT       EA
      000000EBH   SFRSYM    DATA     BYTE      TRISB
      000000ECH   SFRSYM    DATA     BYTE      TRISC
      000000D8H   SFRSYM    DATA     BYTE      PD_PB
      00000091H   SFRSYM    DATA     BYTE      WDT_CTRL
      000000EDH   SFRSYM    DATA     BYTE      TRISD
      000000FBH   SFRSYM    DATA     BYTE      SPROG_DATA
      000000F2H   SFRSYM    DATA     BYTE      PERIPH_IO_SEL
      000000B1H   SFRSYM    DATA     BYTE      SCAN_WIDTH
      000000CFH   SFRSYM    DATA     BYTE      CSD_RAWDATAH
      000000A8H   SFRSYM    DATA     BYTE      IEN0
      000000E6H   SFRSYM    DATA     BYTE      IEN1
      000000E7H   SFRSYM    DATA     BYTE      IEN2
      000000CEH   SFRSYM    DATA     BYTE      CSD_RAWDATAL
      000000AEH   SFRSYM    DATA     BYTE      PWM0_MOD_H
      000000E9H   SFRSYM    DATA     BYTE      IICBUFFER
      000000ADH   SFRSYM    DATA     BYTE      PWM0_MOD_L
      000000C0H.1 SFRSYM    DATA     BIT       UART0_F
      000000E8H   SFRSYM    DATA     BYTE      IICSTAT
      000000C8H.1 SFRSYM    DATA     BIT       UART1_F
      000000B8H   SFRSYM    DATA     BYTE      IPL0
      000000F6H   SFRSYM    DATA     BYTE      IPL1
      000000DDH   SFRSYM    DATA     BYTE      PU_PA
      000000AFH   SFRSYM    DATA     BYTE      SCAN_START
      000000F4H   SFRSYM    DATA     BYTE      IPL2
      000000DEH   SFRSYM    DATA     BYTE      PU_PB
      000000D7H   SFRSYM    DATA     BYTE      RST_STAT
      0000008EH   SFRSYM    DATA     BYTE      SOFT_RST
      000000DFH   SFRSYM    DATA     BYTE      PU_PC
      000000E2H   SFRSYM    DATA     BYTE      PU_PD
      000000D1H   SFRSYM    DATA     BYTE      PULL_I_SELA_L
      000000B6H   SFRSYM    DATA     BYTE      ADCCKC
      000000D0H.7 SFRSYM    DATA     BIT       CY
      00000086H   SFRSYM    DATA     BYTE      INT_POBO_STAT
      000000C0H.0 SFRSYM    DATA     BIT       UART0_P
      000000EEH   SFRSYM    DATA     BYTE      COM_IO_SEL
      000000C8H.0 SFRSYM    DATA     BIT       UART1_P
      000000E3H   SFRSYM    DATA     BYTE      IICADD
      000000BDH   SFRSYM    DATA     BYTE      UART0_BDL
      000000B4H   SFRSYM    DATA     BYTE      ADC_SPT
      000000C5H   SFRSYM    DATA     BYTE      UART1_BDL
      00000081H   SFRSYM    DATA     BYTE      SP
      000000D0H.2 SFRSYM    DATA     BIT       OV
      000000A3H   SFRSYM    DATA     BYTE      PWM0_CH_CTRL
      000000BBH   SFRSYM    DATA     BYTE      ADC_CFG1
      00000094H   SFRSYM    DATA     BYTE      TIMER2_SET_H
      000000C1H   SFRSYM    DATA     BYTE      UART0_BUF
      000000BCH   SFRSYM    DATA     BYTE      ADC_CFG2
      000000C9H   SFRSYM    DATA     BYTE      UART1_BUF
      000000F1H   SFRSYM    DATA     BYTE      IRCON1
      000000E1H   SFRSYM    DATA     BYTE      IRCON2
      00000095H   SFRSYM    DATA     BYTE      TIMER2_SET_L
      000000A5H   SFRSYM    DATA     BYTE      PWM0_CH0_CNT_H
LX51 LINKER/LOCATER V4.66.97.0                                                        05/09/2023  16:57:25  PAGE 90


      000000A7H   SFRSYM    DATA     BYTE      PWM0_CH1_CNT_H
      00000087H   SFRSYM    DATA     BYTE      PCON
      000000F9H   SFRSYM    DATA     BYTE      SPROG_ADDR_H
      000000B3H   SFRSYM    DATA     BYTE      LED_DRIVE
      000000AAH   SFRSYM    DATA     BYTE      PWM0_CH2_CNT_H
      000000EFH   SFRSYM    DATA     BYTE      ODRAIN_EN
      000000ACH   SFRSYM    DATA     BYTE      PWM0_CH3_CNT_H
      000000E4H   SFRSYM    DATA     BYTE      IICBUF
      000000A4H   SFRSYM    DATA     BYTE      PWM0_CH0_CNT_L
      000000A6H   SFRSYM    DATA     BYTE      PWM0_CH1_CNT_L
      00000089H   SFRSYM    DATA     BYTE      TMOD
      00000088H   SFRSYM    DATA     BYTE      TCON
      000000FAH   SFRSYM    DATA     BYTE      SPROG_ADDR_L
      000000A9H   SFRSYM    DATA     BYTE      PWM0_CH2_CNT_L
      000000E8H.0 SFRSYM    DATA     BIT       IIC_RECOV
      000000E5H   SFRSYM    DATA     BYTE      IICCON
      000000ABH   SFRSYM    DATA     BYTE      PWM0_CH3_CNT_L
      000000D9H   SFRSYM    DATA     BYTE      ADC_IO_SEL1
      000000DAH   SFRSYM    DATA     BYTE      ADC_IO_SEL2
      000000DBH   SFRSYM    DATA     BYTE      ADC_IO_SEL3
      000000E8H.4 SFRSYM    DATA     BIT       IIC_AD
      000000DCH   SFRSYM    DATA     BYTE      ADC_IO_SEL4
      000000E8H.3 SFRSYM    DATA     BIT       IIC_BF
      00000088H.1 SFRSYM    DATA     BIT       IE0
      00000088H.3 SFRSYM    DATA     BIT       IE1
      000000C4H   SFRSYM    DATA     BYTE      LED_IO_START
      000000F8H.0 SFRSYM    DATA     BIT       PA0
      000000F0H   SFRSYM    DATA     BYTE      B
      00000080H.0 SFRSYM    DATA     BIT       PB0
      000000F8H.1 SFRSYM    DATA     BIT       PA1
      000000FCH   SFRSYM    DATA     BYTE      SPROG_CMD
      00000090H.0 SFRSYM    DATA     BIT       PC0
      00000080H.1 SFRSYM    DATA     BIT       PB1
      00000098H.0 SFRSYM    DATA     BIT       PD0
      00000090H.1 SFRSYM    DATA     BIT       PC1
      00000080H.2 SFRSYM    DATA     BIT       PB2
      00000098H.1 SFRSYM    DATA     BIT       PD1
      00000090H.2 SFRSYM    DATA     BIT       PC2
      00000080H.3 SFRSYM    DATA     BIT       PB3
      000000FEH   SFRSYM    DATA     BYTE      PD_ANA
      000000E8H.7 SFRSYM    DATA     BIT       IIC_START
      00000098H.2 SFRSYM    DATA     BIT       PD2
      00000090H.3 SFRSYM    DATA     BIT       PC3
      00000080H.4 SFRSYM    DATA     BIT       PB4
      00000098H.3 SFRSYM    DATA     BIT       PD3
      00000090H.4 SFRSYM    DATA     BIT       PC4
      00000080H.5 SFRSYM    DATA     BIT       PB5
      000000E0H   SFRSYM    DATA     BYTE      ACC
      00000098H.4 SFRSYM    DATA     BIT       PD4
      00000090H.5 SFRSYM    DATA     BIT       PC5
      00000080H.6 SFRSYM    DATA     BIT       PB6
      000000A8H.1 SFRSYM    DATA     BIT       ET0
      00000098H.5 SFRSYM    DATA     BIT       PD5
      00000090H.6 SFRSYM    DATA     BIT       PC6
      00000080H.7 SFRSYM    DATA     BIT       PB7
      000000A8H.3 SFRSYM    DATA     BIT       ET1
      00000098H.6 SFRSYM    DATA     BIT       PD6
      00000090H.7 SFRSYM    DATA     BIT       PC7
      00000088H.5 SFRSYM    DATA     BIT       TF0
      000000C0H.3 SFRSYM    DATA     BIT       RI0
      00000098H.7 SFRSYM    DATA     BIT       PD7
      00000088H.7 SFRSYM    DATA     BIT       TF1
      000000CAH   SFRSYM    DATA     BYTE      CSD_START
      000000C8H.3 SFRSYM    DATA     BIT       RI1
      0000008CH   SFRSYM    DATA     BYTE      TH0
LX51 LINKER/LOCATER V4.66.97.0                                                        05/09/2023  16:57:25  PAGE 91


      000000C0H.4 SFRSYM    DATA     BIT       TI0
      000000A8H.0 SFRSYM    DATA     BIT       EX0
      000000C2H   SFRSYM    DATA     BYTE      UART_IO_CTRL
      0000008DH   SFRSYM    DATA     BYTE      TH1
      000000C8H.4 SFRSYM    DATA     BIT       TI1
      000000A8H.2 SFRSYM    DATA     BIT       EX1
      000000D0H.0 SFRSYM    DATA     BIT       P
      0000008AH   SFRSYM    DATA     BYTE      TL0
      000000C0H   SFRSYM    DATA     BYTE      UART0_STATE
      0000008BH   SFRSYM    DATA     BYTE      TL1
      000000C8H   SFRSYM    DATA     BYTE      UART1_STATE
      000000FFH   SFRSYM    DATA     BYTE      BOR_LVDT_VTH
      000000B8H.1 SFRSYM    DATA     BIT       PT0
      000000D0H.3 SFRSYM    DATA     BIT       RS0
      000000B8H.3 SFRSYM    DATA     BIT       PT1
      000000B0H   SFRSYM    DATA     BYTE      DP_CON
      000000D0H.4 SFRSYM    DATA     BIT       RS1
      00000088H.4 SFRSYM    DATA     BIT       TR0
      00000088H.6 SFRSYM    DATA     BIT       TR1
      000000D2H   SFRSYM    DATA     BYTE      SNS_ANA_CFG
      000000C0H.6 SFRSYM    DATA     BIT       UART0_R8
      000000B8H.0 SFRSYM    DATA     BIT       PX0
      000000FDH   SFRSYM    DATA     BYTE      SPROG_TIM
      000000C8H.6 SFRSYM    DATA     BIT       UART1_R8
      000000B8H.2 SFRSYM    DATA     BIT       PX1
      000000C0H.5 SFRSYM    DATA     BIT       UART0_T8
      00000097H   SFRSYM    DATA     BYTE      REG_DATA
      000000C8H.5 SFRSYM    DATA     BIT       UART1_T8
      00000096H   SFRSYM    DATA     BYTE      REG_ADDR
      000000F8H   SFRSYM    DATA     BYTE      DATAA
      00000083H   SFRSYM    DATA     BYTE      DPH
      00000080H   SFRSYM    DATA     BYTE      DATAB
      000000CBH   SFRSYM    DATA     BYTE      SNS_SCAN_CFG1
      00000090H   SFRSYM    DATA     BYTE      DATAC
      000000E8H.5 SFRSYM    DATA     BIT       IIC_RW
      000000CCH   SFRSYM    DATA     BYTE      SNS_SCAN_CFG2
      000000B9H   SFRSYM    DATA     BYTE      ADC_RDATAH
      00000098H   SFRSYM    DATA     BYTE      DATAD
      000000CDH   SFRSYM    DATA     BYTE      SNS_SCAN_CFG3
      000000BEH   SFRSYM    DATA     BYTE      UART0_CON1
      00000082H   SFRSYM    DATA     BYTE      DPL
      000000C6H   SFRSYM    DATA     BYTE      UART1_CON1
      000000BFH   SFRSYM    DATA     BYTE      UART0_CON2
      000000C7H   SFRSYM    DATA     BYTE      UART1_CON2
      000000BAH   SFRSYM    DATA     BYTE      ADC_RDATAL
      00000092H   SFRSYM    DATA     BYTE      WDT_EN
      000000D3H   SFRSYM    DATA     BYTE      SNS_IO_SEL1
      000000D4H   SFRSYM    DATA     BYTE      SNS_IO_SEL2
      000000D5H   SFRSYM    DATA     BYTE      SNS_IO_SEL3
      00000093H   SFRSYM    DATA     BYTE      TIMER2_CFG
      000000D6H   SFRSYM    DATA     BYTE      SNS_IO_SEL4
      000000A2H   SFRSYM    DATA     BYTE      PWM_EN
      000000B2H   SFRSYM    DATA     BYTE      LED2_WIDTH
      000000E8H.1 SFRSYM    DATA     BIT       IIC_WCOL
      00000084H   SFRSYM    DATA     BYTE      SYS_CLK_CFG
      000000C0H.2 SFRSYM    DATA     BIT       UART0_RO
      000000C8H.2 SFRSYM    DATA     BIT       UART1_RO
      000000D0H.5 SFRSYM    DATA     BIT       F0
      000000D0H.1 SFRSYM    DATA     BIT       F1
      0000009CH   SFRSYM    DATA     BYTE      PWM1_H_H
      000000A1H   SFRSYM    DATA     BYTE      PWM2_H_H
      000000D0H   SFRSYM    DATA     BYTE      PSW
      0000009BH   SFRSYM    DATA     BYTE      PWM1_H_L
      0000009AH   SFRSYM    DATA     BYTE      PWM1_L_H
      0000009FH   SFRSYM    DATA     BYTE      PWM2_H_L
LX51 LINKER/LOCATER V4.66.97.0                                                        05/09/2023  16:57:25  PAGE 92


      0000009EH   SFRSYM    DATA     BYTE      PWM2_L_H
      000000E8H.6 SFRSYM    DATA     BIT       IIC_STOP

      ---         MODULE    ---      ---       DISPLAY
      0000003DH   PUBLIC    DATA     BYTE      b_disp_status
      00000024H.2 PUBLIC    BIT      BIT       f_dgtn
      02000114H   PUBLIC    XDATA    BYTE      gb_flashTime
      02000113H   PUBLIC    XDATA    BYTE      b_disp_test2
      0000003CH   PUBLIC    DATA     BYTE      b_dis_r88
      0000003BH   PUBLIC    DATA     BYTE      b_dis_r78
      0000003AH   PUBLIC    DATA     BYTE      b_dis_r68
      00000024H.1 PUBLIC    BIT      BIT       f_disp_dingshi
      00000039H   PUBLIC    DATA     BYTE      b_dis_r58
      00000038H   PUBLIC    DATA     BYTE      b_dis_r48
      00000037H   PUBLIC    DATA     BYTE      b_dis_r38
      00000036H   PUBLIC    DATA     BYTE      b_dis_r28
      00000035H   PUBLIC    DATA     BYTE      b_dis_r18
      00000024H.0 PUBLIC    BIT      BIT       gf_flash
      00000034H   PUBLIC    DATA     BYTE      b_disp_rl
      00000023H.7 PUBLIC    BIT      BIT       f_dp_2
      00000023H.6 PUBLIC    BIT      BIT       f_fanzhuan
      02000112H   PUBLIC    XDATA    BYTE      b_r88
      02000111H   PUBLIC    XDATA    BYTE      b_r78
      02000110H   PUBLIC    XDATA    BYTE      b_r68
      0200010FH   PUBLIC    XDATA    BYTE      b_r58
      0200010EH   PUBLIC    XDATA    BYTE      b_r48
      0200010DH   PUBLIC    XDATA    BYTE      b_r38
      0200010CH   PUBLIC    XDATA    BYTE      b_led_slide1
      0200010BH   PUBLIC    XDATA    BYTE      b_r28
      00000023H.5 PUBLIC    BIT      BIT       f_disp_yuyue
      0200010AH   PUBLIC    XDATA    BYTE      b_r18
      00000023H.4 PUBLIC    BIT      BIT       f_dp
      02000109H   PUBLIC    XDATA    BYTE      b_disp_test
      00000033H   PUBLIC    DATA     BYTE      b_time_grade_cnt
      01003597H   PUBLIC    CONST    ---       tab_num
      01002B09H   PUBLIC    CODE     ---       smg_deal_yuyue_1
      01001A35H   PUBLIC    CODE     ---       smg_deal_dingshi_2
      01001900H   PUBLIC    CODE     ---       smg_deal_dingshi_1
      01000C67H   PUBLIC    CODE     ---       led_scan
      01002353H   PUBLIC    CODE     ---       smg_deal
      010032ACH   PUBLIC    CODE     ---       led_deal_ALL_ON
      01002E7BH   PUBLIC    CODE     ---       led_deal_mode_one
      01002F4BH   PUBLIC    CODE     ---       led_deal
      010030CCH   PUBLIC    CODE     ---       dispdata_mov
      01003245H   PUBLIC    CODE     ---       dispdata_clr
      01003295H   PUBLIC    CODE     ---       dispdata_set
      01002E2EH   PUBLIC    CODE     ---       display_deal
      000000C3H   SFRSYM    DATA     BYTE      UART_IO_CTRL1
      00000099H   SFRSYM    DATA     BYTE      PWM1_L_L
      000000F7H   SFRSYM    DATA     BYTE      EXT_INT_CON
      0000009DH   SFRSYM    DATA     BYTE      PWM2_L_L
      00000085H   SFRSYM    DATA     BYTE      INT_PE_STAT
      000000B5H   SFRSYM    DATA     BYTE      ADC_SCAN_CFG
      000000A0H   SFRSYM    DATA     BYTE      P2_XH
      000000D0H.6 SFRSYM    DATA     BIT       AC
      000000EAH   SFRSYM    DATA     BYTE      TRISA
      000000E8H.2 SFRSYM    DATA     BIT       IIC_ACK
      000000A8H.7 SFRSYM    DATA     BIT       EA
      000000EBH   SFRSYM    DATA     BYTE      TRISB
      000000ECH   SFRSYM    DATA     BYTE      TRISC
      000000D8H   SFRSYM    DATA     BYTE      PD_PB
      00000091H   SFRSYM    DATA     BYTE      WDT_CTRL
      000000EDH   SFRSYM    DATA     BYTE      TRISD
      000000FBH   SFRSYM    DATA     BYTE      SPROG_DATA
      000000F2H   SFRSYM    DATA     BYTE      PERIPH_IO_SEL
LX51 LINKER/LOCATER V4.66.97.0                                                        05/09/2023  16:57:25  PAGE 93


      000000B1H   SFRSYM    DATA     BYTE      SCAN_WIDTH
      000000CFH   SFRSYM    DATA     BYTE      CSD_RAWDATAH
      000000A8H   SFRSYM    DATA     BYTE      IEN0
      000000E6H   SFRSYM    DATA     BYTE      IEN1
      000000E7H   SFRSYM    DATA     BYTE      IEN2
      000000CEH   SFRSYM    DATA     BYTE      CSD_RAWDATAL
      000000AEH   SFRSYM    DATA     BYTE      PWM0_MOD_H
      000000E9H   SFRSYM    DATA     BYTE      IICBUFFER
      000000ADH   SFRSYM    DATA     BYTE      PWM0_MOD_L
      000000C0H.1 SFRSYM    DATA     BIT       UART0_F
      000000E8H   SFRSYM    DATA     BYTE      IICSTAT
      000000C8H.1 SFRSYM    DATA     BIT       UART1_F
      000000B8H   SFRSYM    DATA     BYTE      IPL0
      000000F6H   SFRSYM    DATA     BYTE      IPL1
      000000DDH   SFRSYM    DATA     BYTE      PU_PA
      000000AFH   SFRSYM    DATA     BYTE      SCAN_START
      000000F4H   SFRSYM    DATA     BYTE      IPL2
      000000DEH   SFRSYM    DATA     BYTE      PU_PB
      000000D7H   SFRSYM    DATA     BYTE      RST_STAT
      0000008EH   SFRSYM    DATA     BYTE      SOFT_RST
      000000DFH   SFRSYM    DATA     BYTE      PU_PC
      000000E2H   SFRSYM    DATA     BYTE      PU_PD
      000000D1H   SFRSYM    DATA     BYTE      PULL_I_SELA_L
      000000B6H   SFRSYM    DATA     BYTE      ADCCKC
      000000D0H.7 SFRSYM    DATA     BIT       CY
      00000086H   SFRSYM    DATA     BYTE      INT_POBO_STAT
      000000C0H.0 SFRSYM    DATA     BIT       UART0_P
      000000EEH   SFRSYM    DATA     BYTE      COM_IO_SEL
      000000C8H.0 SFRSYM    DATA     BIT       UART1_P
      000000E3H   SFRSYM    DATA     BYTE      IICADD
      000000BDH   SFRSYM    DATA     BYTE      UART0_BDL
      000000B4H   SFRSYM    DATA     BYTE      ADC_SPT
      000000C5H   SFRSYM    DATA     BYTE      UART1_BDL
      00000081H   SFRSYM    DATA     BYTE      SP
      000000D0H.2 SFRSYM    DATA     BIT       OV
      000000A3H   SFRSYM    DATA     BYTE      PWM0_CH_CTRL
      000000BBH   SFRSYM    DATA     BYTE      ADC_CFG1
      00000094H   SFRSYM    DATA     BYTE      TIMER2_SET_H
      000000C1H   SFRSYM    DATA     BYTE      UART0_BUF
      000000BCH   SFRSYM    DATA     BYTE      ADC_CFG2
      000000C9H   SFRSYM    DATA     BYTE      UART1_BUF
      000000F1H   SFRSYM    DATA     BYTE      IRCON1
      000000E1H   SFRSYM    DATA     BYTE      IRCON2
      00000095H   SFRSYM    DATA     BYTE      TIMER2_SET_L
      000000A5H   SFRSYM    DATA     BYTE      PWM0_CH0_CNT_H
      000000A7H   SFRSYM    DATA     BYTE      PWM0_CH1_CNT_H
      00000087H   SFRSYM    DATA     BYTE      PCON
      000000F9H   SFRSYM    DATA     BYTE      SPROG_ADDR_H
      000000B3H   SFRSYM    DATA     BYTE      LED_DRIVE
      000000AAH   SFRSYM    DATA     BYTE      PWM0_CH2_CNT_H
      000000EFH   SFRSYM    DATA     BYTE      ODRAIN_EN
      000000ACH   SFRSYM    DATA     BYTE      PWM0_CH3_CNT_H
      000000E4H   SFRSYM    DATA     BYTE      IICBUF
      000000A4H   SFRSYM    DATA     BYTE      PWM0_CH0_CNT_L
      000000A6H   SFRSYM    DATA     BYTE      PWM0_CH1_CNT_L
      00000089H   SFRSYM    DATA     BYTE      TMOD
      00000088H   SFRSYM    DATA     BYTE      TCON
      000000FAH   SFRSYM    DATA     BYTE      SPROG_ADDR_L
      000000A9H   SFRSYM    DATA     BYTE      PWM0_CH2_CNT_L
      000000E8H.0 SFRSYM    DATA     BIT       IIC_RECOV
      000000E5H   SFRSYM    DATA     BYTE      IICCON
      000000ABH   SFRSYM    DATA     BYTE      PWM0_CH3_CNT_L
      000000D9H   SFRSYM    DATA     BYTE      ADC_IO_SEL1
      000000DAH   SFRSYM    DATA     BYTE      ADC_IO_SEL2
      000000DBH   SFRSYM    DATA     BYTE      ADC_IO_SEL3
LX51 LINKER/LOCATER V4.66.97.0                                                        05/09/2023  16:57:25  PAGE 94


      000000E8H.4 SFRSYM    DATA     BIT       IIC_AD
      000000DCH   SFRSYM    DATA     BYTE      ADC_IO_SEL4
      000000E8H.3 SFRSYM    DATA     BIT       IIC_BF
      00000088H.1 SFRSYM    DATA     BIT       IE0
      00000088H.3 SFRSYM    DATA     BIT       IE1
      000000C4H   SFRSYM    DATA     BYTE      LED_IO_START
      000000F8H.0 SFRSYM    DATA     BIT       PA0
      000000F0H   SFRSYM    DATA     BYTE      B
      00000080H.0 SFRSYM    DATA     BIT       PB0
      000000F8H.1 SFRSYM    DATA     BIT       PA1
      000000FCH   SFRSYM    DATA     BYTE      SPROG_CMD
      00000090H.0 SFRSYM    DATA     BIT       PC0
      00000080H.1 SFRSYM    DATA     BIT       PB1
      00000098H.0 SFRSYM    DATA     BIT       PD0
      00000090H.1 SFRSYM    DATA     BIT       PC1
      00000080H.2 SFRSYM    DATA     BIT       PB2
      00000098H.1 SFRSYM    DATA     BIT       PD1
      00000090H.2 SFRSYM    DATA     BIT       PC2
      00000080H.3 SFRSYM    DATA     BIT       PB3
      000000FEH   SFRSYM    DATA     BYTE      PD_ANA
      000000E8H.7 SFRSYM    DATA     BIT       IIC_START
      00000098H.2 SFRSYM    DATA     BIT       PD2
      00000090H.3 SFRSYM    DATA     BIT       PC3
      00000080H.4 SFRSYM    DATA     BIT       PB4
      00000098H.3 SFRSYM    DATA     BIT       PD3
      00000090H.4 SFRSYM    DATA     BIT       PC4
      00000080H.5 SFRSYM    DATA     BIT       PB5
      000000E0H   SFRSYM    DATA     BYTE      ACC
      00000098H.4 SFRSYM    DATA     BIT       PD4
      00000090H.5 SFRSYM    DATA     BIT       PC5
      00000080H.6 SFRSYM    DATA     BIT       PB6
      000000A8H.1 SFRSYM    DATA     BIT       ET0
      00000098H.5 SFRSYM    DATA     BIT       PD5
      00000090H.6 SFRSYM    DATA     BIT       PC6
      00000080H.7 SFRSYM    DATA     BIT       PB7
      000000A8H.3 SFRSYM    DATA     BIT       ET1
      00000098H.6 SFRSYM    DATA     BIT       PD6
      00000090H.7 SFRSYM    DATA     BIT       PC7
      00000088H.5 SFRSYM    DATA     BIT       TF0
      000000C0H.3 SFRSYM    DATA     BIT       RI0
      00000098H.7 SFRSYM    DATA     BIT       PD7
      00000088H.7 SFRSYM    DATA     BIT       TF1
      000000CAH   SFRSYM    DATA     BYTE      CSD_START
      000000C8H.3 SFRSYM    DATA     BIT       RI1
      0000008CH   SFRSYM    DATA     BYTE      TH0
      000000C0H.4 SFRSYM    DATA     BIT       TI0
      000000A8H.0 SFRSYM    DATA     BIT       EX0
      000000C2H   SFRSYM    DATA     BYTE      UART_IO_CTRL
      0000008DH   SFRSYM    DATA     BYTE      TH1
      000000C8H.4 SFRSYM    DATA     BIT       TI1
      000000A8H.2 SFRSYM    DATA     BIT       EX1
      000000D0H.0 SFRSYM    DATA     BIT       P
      0000008AH   SFRSYM    DATA     BYTE      TL0
      000000C0H   SFRSYM    DATA     BYTE      UART0_STATE
      0000008BH   SFRSYM    DATA     BYTE      TL1
      000000C8H   SFRSYM    DATA     BYTE      UART1_STATE
      000000FFH   SFRSYM    DATA     BYTE      BOR_LVDT_VTH
      000000B8H.1 SFRSYM    DATA     BIT       PT0
      000000D0H.3 SFRSYM    DATA     BIT       RS0
      000000B8H.3 SFRSYM    DATA     BIT       PT1
      000000B0H   SFRSYM    DATA     BYTE      DP_CON
      000000D0H.4 SFRSYM    DATA     BIT       RS1
      00000088H.4 SFRSYM    DATA     BIT       TR0
      00000088H.6 SFRSYM    DATA     BIT       TR1
      000000D2H   SFRSYM    DATA     BYTE      SNS_ANA_CFG
LX51 LINKER/LOCATER V4.66.97.0                                                        05/09/2023  16:57:25  PAGE 95


      000000C0H.6 SFRSYM    DATA     BIT       UART0_R8
      000000B8H.0 SFRSYM    DATA     BIT       PX0
      000000FDH   SFRSYM    DATA     BYTE      SPROG_TIM
      000000C8H.6 SFRSYM    DATA     BIT       UART1_R8
      000000B8H.2 SFRSYM    DATA     BIT       PX1
      000000C0H.5 SFRSYM    DATA     BIT       UART0_T8
      00000097H   SFRSYM    DATA     BYTE      REG_DATA
      000000C8H.5 SFRSYM    DATA     BIT       UART1_T8
      00000096H   SFRSYM    DATA     BYTE      REG_ADDR
      000000F8H   SFRSYM    DATA     BYTE      DATAA
      00000083H   SFRSYM    DATA     BYTE      DPH
      00000080H   SFRSYM    DATA     BYTE      DATAB
      000000CBH   SFRSYM    DATA     BYTE      SNS_SCAN_CFG1
      00000090H   SFRSYM    DATA     BYTE      DATAC
      000000E8H.5 SFRSYM    DATA     BIT       IIC_RW
      000000CCH   SFRSYM    DATA     BYTE      SNS_SCAN_CFG2
      000000B9H   SFRSYM    DATA     BYTE      ADC_RDATAH
      00000098H   SFRSYM    DATA     BYTE      DATAD
      000000CDH   SFRSYM    DATA     BYTE      SNS_SCAN_CFG3
      000000BEH   SFRSYM    DATA     BYTE      UART0_CON1
      00000082H   SFRSYM    DATA     BYTE      DPL
      000000C6H   SFRSYM    DATA     BYTE      UART1_CON1
      000000BFH   SFRSYM    DATA     BYTE      UART0_CON2
      000000C7H   SFRSYM    DATA     BYTE      UART1_CON2
      000000BAH   SFRSYM    DATA     BYTE      ADC_RDATAL
      00000092H   SFRSYM    DATA     BYTE      WDT_EN
      000000D3H   SFRSYM    DATA     BYTE      SNS_IO_SEL1
      000000D4H   SFRSYM    DATA     BYTE      SNS_IO_SEL2
      000000D5H   SFRSYM    DATA     BYTE      SNS_IO_SEL3
      00000093H   SFRSYM    DATA     BYTE      TIMER2_CFG
      000000D6H   SFRSYM    DATA     BYTE      SNS_IO_SEL4
      000000A2H   SFRSYM    DATA     BYTE      PWM_EN
      000000B2H   SFRSYM    DATA     BYTE      LED2_WIDTH
      000000E8H.1 SFRSYM    DATA     BIT       IIC_WCOL
      00000084H   SFRSYM    DATA     BYTE      SYS_CLK_CFG
      000000C0H.2 SFRSYM    DATA     BIT       UART0_RO
      000000C8H.2 SFRSYM    DATA     BIT       UART1_RO
      000000D0H.5 SFRSYM    DATA     BIT       F0
      000000D0H.1 SFRSYM    DATA     BIT       F1
      0000009CH   SFRSYM    DATA     BYTE      PWM1_H_H
      000000A1H   SFRSYM    DATA     BYTE      PWM2_H_H
      000000D0H   SFRSYM    DATA     BYTE      PSW
      0000009BH   SFRSYM    DATA     BYTE      PWM1_H_L
      0000009AH   SFRSYM    DATA     BYTE      PWM1_L_H
      0000009FH   SFRSYM    DATA     BYTE      PWM2_H_L
      0000009EH   SFRSYM    DATA     BYTE      PWM2_L_H
      000000E8H.6 SFRSYM    DATA     BIT       IIC_STOP

      01002E2EH   BLOCK     CODE     ---       LVL=0
      01002E2EH   LINE      CODE     ---       #107
      01002E2EH   LINE      CODE     ---       #108
      01002E2EH   LINE      CODE     ---       #109
      01002E31H   LINE      CODE     ---       #111
      01002E34H   LINE      CODE     ---       #112
      01002E39H   LINE      CODE     ---       #114
      01002E39H   LINE      CODE     ---       #117
      01002E3CH   LINE      CODE     ---       #118
      01002E3FH   LINE      CODE     ---       #198
      01002E42H   LINE      CODE     ---       #199
      01002E42H   LINE      CODE     ---       #206
      01002E4EH   LINE      CODE     ---       #207
      01002E58H   LINE      CODE     ---       #208
      01002E64H   LINE      CODE     ---       #209
      01002E6EH   LINE      CODE     ---       #216
      01002E6EH   LINE      CODE     ---       #217
LX51 LINKER/LOCATER V4.66.97.0                                                        05/09/2023  16:57:25  PAGE 96


      01002E71H   LINE      CODE     ---       #218
      01002E78H   LINE      CODE     ---       #225
      01002E78H   LINE      CODE     ---       #227
      ---         BLOCKEND  ---      ---       LVL=0

      01003295H   BLOCK     CODE     ---       LVL=0
      01003295H   LINE      CODE     ---       #230
      01003295H   LINE      CODE     ---       #231
      01003295H   LINE      CODE     ---       #243
      0100329BH   LINE      CODE     ---       #244
      0100329DH   LINE      CODE     ---       #245
      010032A1H   LINE      CODE     ---       #246
      010032A3H   LINE      CODE     ---       #247
      010032A5H   LINE      CODE     ---       #248
      010032A7H   LINE      CODE     ---       #249
      010032A9H   LINE      CODE     ---       #250
      010032ABH   LINE      CODE     ---       #251
      ---         BLOCKEND  ---      ---       LVL=0

      01003245H   BLOCK     CODE     ---       LVL=0
      01003245H   LINE      CODE     ---       #255
      01003245H   LINE      CODE     ---       #256
      01003245H   LINE      CODE     ---       #268
      0100324AH   LINE      CODE     ---       #269
      0100324CH   LINE      CODE     ---       #270
      01003250H   LINE      CODE     ---       #271
      01003252H   LINE      CODE     ---       #272
      01003254H   LINE      CODE     ---       #273
      01003256H   LINE      CODE     ---       #274
      01003258H   LINE      CODE     ---       #275
      0100325AH   LINE      CODE     ---       #276
      0100325CH   LINE      CODE     ---       #277
      0100325EH   LINE      CODE     ---       #278
      01003260H   LINE      CODE     ---       #279
      ---         BLOCKEND  ---      ---       LVL=0

      010030CCH   BLOCK     CODE     ---       LVL=0
      010030CCH   LINE      CODE     ---       #281
      010030CCH   LINE      CODE     ---       #282
      010030CCH   LINE      CODE     ---       #284
      010030D2H   LINE      CODE     ---       #285
      010030D8H   LINE      CODE     ---       #286
      010030DEH   LINE      CODE     ---       #287
      010030E4H   LINE      CODE     ---       #289
      010030EAH   LINE      CODE     ---       #290
      010030EEH   LINE      CODE     ---       #291
      010030F2H   LINE      CODE     ---       #292
      010030F6H   LINE      CODE     ---       #322
      ---         BLOCKEND  ---      ---       LVL=0

      01002F4BH   BLOCK     CODE     ---       LVL=0
      01002F4BH   LINE      CODE     ---       #325
      01002F4BH   LINE      CODE     ---       #326
      01002F4BH   LINE      CODE     ---       #328
      01002F4FH   LINE      CODE     ---       #329
      01002F4FH   LINE      CODE     ---       #331
      01002F52H   LINE      CODE     ---       #332
      01002F55H   LINE      CODE     ---       #333
      01002F55H   LINE      CODE     ---       #335
      01002F55H   LINE      CODE     ---       #337
      01002F58H   LINE      CODE     ---       #338
      01002F58H   LINE      CODE     ---       #340
      01002F68H   LINE      CODE     ---       #341
      01002F68H   LINE      CODE     ---       #342
      01002F6AH   LINE      CODE     ---       #345
LX51 LINKER/LOCATER V4.66.97.0                                                        05/09/2023  16:57:25  PAGE 97


      01002F6AH   LINE      CODE     ---       #346
      01002F77H   LINE      CODE     ---       #347
      01002F77H   LINE      CODE     ---       #348
      01002F7AH   LINE      CODE     ---       #349
      01002F7CH   LINE      CODE     ---       #351
      01002F7CH   LINE      CODE     ---       #352
      01002F81H   LINE      CODE     ---       #353
      01002F81H   LINE      CODE     ---       #354
      01002F82H   LINE      CODE     ---       #356
      01002F82H   LINE      CODE     ---       #357
      01002F85H   LINE      CODE     ---       #358
      01002F85H   LINE      CODE     ---       #360
      01002F85H   LINE      CODE     ---       #362
      01002F85H   LINE      CODE     ---       #363
      ---         BLOCKEND  ---      ---       LVL=0

      01002E7BH   BLOCK     CODE     ---       LVL=0
      01002E7BH   LINE      CODE     ---       #367
      01002E7BH   LINE      CODE     ---       #368
      01002E7BH   LINE      CODE     ---       #370
      01002E93H   LINE      CODE     ---       #371
      01002E93H   LINE      CODE     ---       #372
      01002E93H   LINE      CODE     ---       #373
      01002E9AH   LINE      CODE     ---       #374
      01002E9BH   LINE      CODE     ---       #375
      01002E9BH   LINE      CODE     ---       #376
      01002EA2H   LINE      CODE     ---       #377
      01002EA3H   LINE      CODE     ---       #378
      01002EA3H   LINE      CODE     ---       #379
      01002EAAH   LINE      CODE     ---       #380
      01002EABH   LINE      CODE     ---       #381
      01002EABH   LINE      CODE     ---       #382
      01002EB2H   LINE      CODE     ---       #383
      01002EB3H   LINE      CODE     ---       #384
      01002EB3H   LINE      CODE     ---       #385
      01002EBAH   LINE      CODE     ---       #386
      01002EBBH   LINE      CODE     ---       #387
      01002EBBH   LINE      CODE     ---       #388
      01002EC2H   LINE      CODE     ---       #389
      01002EC2H   LINE      CODE     ---       #392
      01002EC2H   LINE      CODE     ---       #393
      01002EC2H   LINE      CODE     ---       #394
      01002EC2H   LINE      CODE     ---       #395
      ---         BLOCKEND  ---      ---       LVL=0

      010032ACH   BLOCK     CODE     ---       LVL=0
      010032ACH   LINE      CODE     ---       #398
      010032ACH   LINE      CODE     ---       #399
      010032ACH   LINE      CODE     ---       #400
      010032B3H   LINE      CODE     ---       #401
      010032B6H   LINE      CODE     ---       #402
      010032B9H   LINE      CODE     ---       #403
      010032BCH   LINE      CODE     ---       #404
      010032BFH   LINE      CODE     ---       #405
      010032C2H   LINE      CODE     ---       #406
      ---         BLOCKEND  ---      ---       LVL=0

      01002353H   BLOCK     CODE     ---       LVL=0
      01002353H   LINE      CODE     ---       #420
      01002353H   LINE      CODE     ---       #421
      01002353H   LINE      CODE     ---       #423
      01002359H   LINE      CODE     ---       #424
      0100235BH   LINE      CODE     ---       #425
      0100235FH   LINE      CODE     ---       #426
      01002361H   LINE      CODE     ---       #435
LX51 LINKER/LOCATER V4.66.97.0                                                        05/09/2023  16:57:25  PAGE 98


      01002365H   LINE      CODE     ---       #436
      01002365H   LINE      CODE     ---       #438
      0100236BH   LINE      CODE     ---       #439
      0100236FH   LINE      CODE     ---       #440
      01002374H   LINE      CODE     ---       #441
      0100237AH   LINE      CODE     ---       #442
      0100237FH   LINE      CODE     ---       #443
      01002385H   LINE      CODE     ---       #444
      0100238AH   LINE      CODE     ---       #445
      01002390H   LINE      CODE     ---       #446
      01002396H   LINE      CODE     ---       #447
      01002397H   LINE      CODE     ---       #449
      010023A6H   LINE      CODE     ---       #450
      010023A6H   LINE      CODE     ---       #452
      010023ABH   LINE      CODE     ---       #453
      010023ADH   LINE      CODE     ---       #454
      010023B1H   LINE      CODE     ---       #455
      010023B3H   LINE      CODE     ---       #456
      010023B5H   LINE      CODE     ---       #457
      010023B6H   LINE      CODE     ---       #459
      010023B6H   LINE      CODE     ---       #461
      010023B9H   LINE      CODE     ---       #462
      010023B9H   LINE      CODE     ---       #464
      010023BCH   LINE      CODE     ---       #465
      010023BCH   LINE      CODE     ---       #466
      010023BCH   LINE      CODE     ---       #467
      010023BEH   LINE      CODE     ---       #470
      010023BEH   LINE      CODE     ---       #471
      010023C1H   LINE      CODE     ---       #472
      010023C1H   LINE      CODE     ---       #474
      010023C1H   LINE      CODE     ---       #477
      010023C1H   LINE      CODE     ---       #479
      010023C4H   LINE      CODE     ---       #480
      010023C4H   LINE      CODE     ---       #481
      010023C7H   LINE      CODE     ---       #482
      010023C7H   LINE      CODE     ---       #484
      010023C7H   LINE      CODE     ---       #485
      010023D4H   LINE      CODE     ---       #486
      010023D4H   LINE      CODE     ---       #487
      010023D7H   LINE      CODE     ---       #488
      010023D9H   LINE      CODE     ---       #490
      010023D9H   LINE      CODE     ---       #491
      010023DFH   LINE      CODE     ---       #492
      010023E1H   LINE      CODE     ---       #493
      010023E5H   LINE      CODE     ---       #494
      010023E7H   LINE      CODE     ---       #495
      010023E7H   LINE      CODE     ---       #496
      010023E9H   LINE      CODE     ---       #498
      010023E9H   LINE      CODE     ---       #499
      010023ECH   LINE      CODE     ---       #500
      010023ECH   LINE      CODE     ---       #503
      010023F5H   LINE      CODE     ---       #504
      010023F7H   LINE      CODE     ---       #506
      010023F7H   LINE      CODE     ---       #507
      010023F7H   LINE      CODE     ---       #537
      010023F7H   LINE      CODE     ---       #539
      ---         BLOCKEND  ---      ---       LVL=0

      01000C67H   BLOCK     CODE     ---       LVL=0
      01000C67H   BLOCK     CODE     NEAR LAB  LVL=1
      00000007H   SYMBOL    DATA     BYTE      b_disp_buf
      ---         BLOCKEND  ---      ---       LVL=1
      01000C67H   LINE      CODE     ---       #628
      01000C67H   LINE      CODE     ---       #629
      01000C67H   LINE      CODE     ---       #2010
LX51 LINKER/LOCATER V4.66.97.0                                                        05/09/2023  16:57:25  PAGE 99


      01000C69H   LINE      CODE     ---       #2013
      01000C6CH   LINE      CODE     ---       #2014
      01000C6FH   LINE      CODE     ---       #2015
      01000C72H   LINE      CODE     ---       #2016
      01000C75H   LINE      CODE     ---       #2017
      01000C78H   LINE      CODE     ---       #2018
      01000C7BH   LINE      CODE     ---       #2019
      01000C7EH   LINE      CODE     ---       #2020
      01000C81H   LINE      CODE     ---       #2021
      01000C84H   LINE      CODE     ---       #2022
      01000C87H   LINE      CODE     ---       #2024
      01000C89H   LINE      CODE     ---       #2025
      01000C94H   LINE      CODE     ---       #2026
      01000C97H   LINE      CODE     ---       #2029
      01000D1AH   LINE      CODE     ---       #2030
      01000D1AH   LINE      CODE     ---       #2032
      01000D1AH   LINE      CODE     ---       #2033
      01000D22H   LINE      CODE     ---       #2034
      01000D22H   LINE      CODE     ---       #2035
      01000D25H   LINE      CODE     ---       #2036
      01000D27H   LINE      CODE     ---       #2037
      01000D27H   LINE      CODE     ---       #2038
      01000D27H   LINE      CODE     ---       #2039
      01000D27H   LINE      CODE     ---       #2040
      01000D2AH   LINE      CODE     ---       #2041
      01000D2AH   LINE      CODE     ---       #2042
      01000D32H   LINE      CODE     ---       #2043
      01000D32H   LINE      CODE     ---       #2044
      01000D35H   LINE      CODE     ---       #2045
      01000D37H   LINE      CODE     ---       #2046
      01000D37H   LINE      CODE     ---       #2047
      01000D37H   LINE      CODE     ---       #2048
      01000D37H   LINE      CODE     ---       #2049
      01000D3AH   LINE      CODE     ---       #2050
      01000D3AH   LINE      CODE     ---       #2051
      01000D42H   LINE      CODE     ---       #2052
      01000D42H   LINE      CODE     ---       #2053
      01000D45H   LINE      CODE     ---       #2054
      01000D47H   LINE      CODE     ---       #2055
      01000D47H   LINE      CODE     ---       #2056
      01000D47H   LINE      CODE     ---       #2057
      01000D47H   LINE      CODE     ---       #2058
      01000D4AH   LINE      CODE     ---       #2059
      01000D4AH   LINE      CODE     ---       #2060
      01000D52H   LINE      CODE     ---       #2061
      01000D52H   LINE      CODE     ---       #2062
      01000D55H   LINE      CODE     ---       #2063
      01000D57H   LINE      CODE     ---       #2064
      01000D57H   LINE      CODE     ---       #2065
      01000D57H   LINE      CODE     ---       #2066
      01000D57H   LINE      CODE     ---       #2067
      01000D5AH   LINE      CODE     ---       #2069
      01000D5AH   LINE      CODE     ---       #2070
      01000D62H   LINE      CODE     ---       #2071
      01000D62H   LINE      CODE     ---       #2072
      01000D65H   LINE      CODE     ---       #2073
      01000D67H   LINE      CODE     ---       #2074
      01000D67H   LINE      CODE     ---       #2075
      01000D67H   LINE      CODE     ---       #2076
      01000D67H   LINE      CODE     ---       #2077
      01000D69H   LINE      CODE     ---       #2078
      01000D69H   LINE      CODE     ---       #2079
      01000D71H   LINE      CODE     ---       #2080
      01000D71H   LINE      CODE     ---       #2081
      01000D74H   LINE      CODE     ---       #2082
LX51 LINKER/LOCATER V4.66.97.0                                                        05/09/2023  16:57:25  PAGE 100


      01000D76H   LINE      CODE     ---       #2083
      01000D76H   LINE      CODE     ---       #2084
      01000D76H   LINE      CODE     ---       #2085
      01000D76H   LINE      CODE     ---       #2086
      01000D78H   LINE      CODE     ---       #2087
      01000D78H   LINE      CODE     ---       #2088
      01000D80H   LINE      CODE     ---       #2089
      01000D80H   LINE      CODE     ---       #2090
      01000D83H   LINE      CODE     ---       #2091
      01000D85H   LINE      CODE     ---       #2092
      01000D85H   LINE      CODE     ---       #2093
      01000D85H   LINE      CODE     ---       #2094
      01000D85H   LINE      CODE     ---       #2095
      01000D87H   LINE      CODE     ---       #2096
      01000D87H   LINE      CODE     ---       #2097
      01000D8FH   LINE      CODE     ---       #2098
      01000D8FH   LINE      CODE     ---       #2099
      01000D92H   LINE      CODE     ---       #2100
      01000D94H   LINE      CODE     ---       #2101
      01000D97H   LINE      CODE     ---       #2102
      01000D99H   LINE      CODE     ---       #2103
      01000D99H   LINE      CODE     ---       #2104
      01000D9AH   LINE      CODE     ---       #2107
      01000D9AH   LINE      CODE     ---       #2108
      01000DA2H   LINE      CODE     ---       #2109
      01000DA2H   LINE      CODE     ---       #2110
      01000DA5H   LINE      CODE     ---       #2111
      01000DA7H   LINE      CODE     ---       #2112
      01000DA7H   LINE      CODE     ---       #2113
      01000DA7H   LINE      CODE     ---       #2114
      01000DA7H   LINE      CODE     ---       #2115
      01000DAAH   LINE      CODE     ---       #2116
      01000DAAH   LINE      CODE     ---       #2117
      01000DB2H   LINE      CODE     ---       #2118
      01000DB2H   LINE      CODE     ---       #2119
      01000DB5H   LINE      CODE     ---       #2120
      01000DB7H   LINE      CODE     ---       #2121
      01000DB7H   LINE      CODE     ---       #2122
      01000DB7H   LINE      CODE     ---       #2123
      01000DB7H   LINE      CODE     ---       #2124
      01000DBAH   LINE      CODE     ---       #2125
      01000DBAH   LINE      CODE     ---       #2126
      01000DC2H   LINE      CODE     ---       #2127
      01000DC2H   LINE      CODE     ---       #2128
      01000DC5H   LINE      CODE     ---       #2129
      01000DC7H   LINE      CODE     ---       #2130
      01000DC7H   LINE      CODE     ---       #2131
      01000DC7H   LINE      CODE     ---       #2132
      01000DC7H   LINE      CODE     ---       #2133
      01000DCAH   LINE      CODE     ---       #2134
      01000DCAH   LINE      CODE     ---       #2135
      01000DD2H   LINE      CODE     ---       #2136
      01000DD2H   LINE      CODE     ---       #2137
      01000DD5H   LINE      CODE     ---       #2138
      01000DD7H   LINE      CODE     ---       #2139
      01000DD7H   LINE      CODE     ---       #2140
      01000DD7H   LINE      CODE     ---       #2141
      01000DD7H   LINE      CODE     ---       #2142
      01000DDAH   LINE      CODE     ---       #2143
      01000DDAH   LINE      CODE     ---       #2144
      01000DE2H   LINE      CODE     ---       #2145
      01000DE2H   LINE      CODE     ---       #2146
      01000DE5H   LINE      CODE     ---       #2147
      01000DE7H   LINE      CODE     ---       #2148
      01000DE7H   LINE      CODE     ---       #2149
LX51 LINKER/LOCATER V4.66.97.0                                                        05/09/2023  16:57:25  PAGE 101


      01000DE7H   LINE      CODE     ---       #2150
      01000DE7H   LINE      CODE     ---       #2151
      01000DE9H   LINE      CODE     ---       #2152
      01000DE9H   LINE      CODE     ---       #2153
      01000DF1H   LINE      CODE     ---       #2154
      01000DF1H   LINE      CODE     ---       #2155
      01000DF4H   LINE      CODE     ---       #2156
      01000DF6H   LINE      CODE     ---       #2157
      01000DF6H   LINE      CODE     ---       #2158
      01000DF6H   LINE      CODE     ---       #2159
      01000DF6H   LINE      CODE     ---       #2160
      01000DF8H   LINE      CODE     ---       #2161
      01000DF8H   LINE      CODE     ---       #2162
      01000E00H   LINE      CODE     ---       #2163
      01000E00H   LINE      CODE     ---       #2164
      01000E03H   LINE      CODE     ---       #2165
      01000E05H   LINE      CODE     ---       #2166
      01000E05H   LINE      CODE     ---       #2167
      01000E05H   LINE      CODE     ---       #2168
      01000E05H   LINE      CODE     ---       #2169
      01000E07H   LINE      CODE     ---       #2170
      01000E07H   LINE      CODE     ---       #2171
      01000E0FH   LINE      CODE     ---       #2172
      01000E0FH   LINE      CODE     ---       #2173
      01000E12H   LINE      CODE     ---       #2174
      01000E14H   LINE      CODE     ---       #2175
      01000E17H   LINE      CODE     ---       #2176
      01000E19H   LINE      CODE     ---       #2177
      01000E19H   LINE      CODE     ---       #2178
      01000E1AH   LINE      CODE     ---       #2180
      01000E1AH   LINE      CODE     ---       #2181
      01000E22H   LINE      CODE     ---       #2182
      01000E22H   LINE      CODE     ---       #2183
      01000E25H   LINE      CODE     ---       #2184
      01000E27H   LINE      CODE     ---       #2185
      01000E27H   LINE      CODE     ---       #2186
      01000E27H   LINE      CODE     ---       #2187
      01000E27H   LINE      CODE     ---       #2188
      01000E29H   LINE      CODE     ---       #2189
      01000E29H   LINE      CODE     ---       #2190
      01000E31H   LINE      CODE     ---       #2191
      01000E31H   LINE      CODE     ---       #2192
      01000E34H   LINE      CODE     ---       #2193
      01000E36H   LINE      CODE     ---       #2194
      01000E36H   LINE      CODE     ---       #2195
      01000E36H   LINE      CODE     ---       #2196
      01000E36H   LINE      CODE     ---       #2197
      01000E39H   LINE      CODE     ---       #2198
      01000E39H   LINE      CODE     ---       #2199
      01000E41H   LINE      CODE     ---       #2200
      01000E41H   LINE      CODE     ---       #2201
      01000E44H   LINE      CODE     ---       #2202
      01000E46H   LINE      CODE     ---       #2203
      01000E46H   LINE      CODE     ---       #2204
      01000E46H   LINE      CODE     ---       #2205
      01000E46H   LINE      CODE     ---       #2206
      01000E49H   LINE      CODE     ---       #2207
      01000E49H   LINE      CODE     ---       #2208
      01000E51H   LINE      CODE     ---       #2209
      01000E51H   LINE      CODE     ---       #2210
      01000E54H   LINE      CODE     ---       #2211
      01000E56H   LINE      CODE     ---       #2212
      01000E56H   LINE      CODE     ---       #2213
      01000E56H   LINE      CODE     ---       #2214
      01000E56H   LINE      CODE     ---       #2215
LX51 LINKER/LOCATER V4.66.97.0                                                        05/09/2023  16:57:25  PAGE 102


      01000E59H   LINE      CODE     ---       #2216
      01000E59H   LINE      CODE     ---       #2217
      01000E61H   LINE      CODE     ---       #2218
      01000E61H   LINE      CODE     ---       #2219
      01000E64H   LINE      CODE     ---       #2220
      01000E66H   LINE      CODE     ---       #2221
      01000E66H   LINE      CODE     ---       #2222
      01000E66H   LINE      CODE     ---       #2223
      01000E66H   LINE      CODE     ---       #2224
      01000E68H   LINE      CODE     ---       #2225
      01000E68H   LINE      CODE     ---       #2226
      01000E70H   LINE      CODE     ---       #2227
      01000E70H   LINE      CODE     ---       #2228
      01000E73H   LINE      CODE     ---       #2229
      01000E75H   LINE      CODE     ---       #2230
      01000E75H   LINE      CODE     ---       #2231
      01000E75H   LINE      CODE     ---       #2232
      01000E75H   LINE      CODE     ---       #2233
      01000E77H   LINE      CODE     ---       #2234
      01000E77H   LINE      CODE     ---       #2235
      01000E7FH   LINE      CODE     ---       #2236
      01000E7FH   LINE      CODE     ---       #2237
      01000E82H   LINE      CODE     ---       #2238
      01000E84H   LINE      CODE     ---       #2239
      01000E84H   LINE      CODE     ---       #2240
      01000E84H   LINE      CODE     ---       #2241
      01000E84H   LINE      CODE     ---       #2242
      01000E86H   LINE      CODE     ---       #2243
      01000E86H   LINE      CODE     ---       #2244
      01000E8EH   LINE      CODE     ---       #2245
      01000E8EH   LINE      CODE     ---       #2246
      01000E91H   LINE      CODE     ---       #2247
      01000E93H   LINE      CODE     ---       #2248
      01000E96H   LINE      CODE     ---       #2249
      01000E98H   LINE      CODE     ---       #2250
      01000E98H   LINE      CODE     ---       #2251
      01000E99H   LINE      CODE     ---       #2253
      01000E99H   LINE      CODE     ---       #2254
      01000EA1H   LINE      CODE     ---       #2255
      01000EA1H   LINE      CODE     ---       #2256
      01000EA4H   LINE      CODE     ---       #2257
      01000EA6H   LINE      CODE     ---       #2258
      01000EA9H   LINE      CODE     ---       #2259
      01000EABH   LINE      CODE     ---       #2260
      01000EABH   LINE      CODE     ---       #2261
      01000EACH   LINE      CODE     ---       #2262
      01000EACH   LINE      CODE     ---       #2263
      01000EB4H   LINE      CODE     ---       #2264
      01000EB4H   LINE      CODE     ---       #2265
      01000EB7H   LINE      CODE     ---       #2266
      01000EB9H   LINE      CODE     ---       #2267
      01000EBCH   LINE      CODE     ---       #2268
      01000EBEH   LINE      CODE     ---       #2269
      01000EBEH   LINE      CODE     ---       #2270
      01000EBFH   LINE      CODE     ---       #2271
      01000EBFH   LINE      CODE     ---       #2272
      01000EC7H   LINE      CODE     ---       #2273
      01000EC7H   LINE      CODE     ---       #2274
      01000ECAH   LINE      CODE     ---       #2275
      01000ECCH   LINE      CODE     ---       #2276
      01000ECFH   LINE      CODE     ---       #2277
      01000ED1H   LINE      CODE     ---       #2278
      01000ED1H   LINE      CODE     ---       #2279
      01000ED2H   LINE      CODE     ---       #2280
      01000ED2H   LINE      CODE     ---       #2281
LX51 LINKER/LOCATER V4.66.97.0                                                        05/09/2023  16:57:25  PAGE 103


      01000EDAH   LINE      CODE     ---       #2282
      01000EDAH   LINE      CODE     ---       #2283
      01000EDDH   LINE      CODE     ---       #2284
      01000EDFH   LINE      CODE     ---       #2285
      01000EE2H   LINE      CODE     ---       #2286
      01000EE4H   LINE      CODE     ---       #2287
      01000EE4H   LINE      CODE     ---       #2288
      01000EE5H   LINE      CODE     ---       #2289
      01000EE5H   LINE      CODE     ---       #2290
      01000EEDH   LINE      CODE     ---       #2291
      01000EEDH   LINE      CODE     ---       #2292
      01000EF0H   LINE      CODE     ---       #2293
      01000EF2H   LINE      CODE     ---       #2294
      01000EF2H   LINE      CODE     ---       #2295
      01000EF2H   LINE      CODE     ---       #2296
      01000EF2H   LINE      CODE     ---       #2297
      01000EF4H   LINE      CODE     ---       #2298
      01000EF4H   LINE      CODE     ---       #2299
      01000EF9H   LINE      CODE     ---       #2300
      01000EF9H   LINE      CODE     ---       #2301
      01000EFCH   LINE      CODE     ---       #2302
      01000EFEH   LINE      CODE     ---       #2303
      01000EFEH   LINE      CODE     ---       #2304
      01000EFEH   LINE      CODE     ---       #2305
      01000EFEH   LINE      CODE     ---       #2306
      01000F00H   LINE      CODE     ---       #2307
      01000F00H   LINE      CODE     ---       #2308
      01000F05H   LINE      CODE     ---       #2309
      01000F05H   LINE      CODE     ---       #2310
      01000F08H   LINE      CODE     ---       #2311
      01000F0AH   LINE      CODE     ---       #2312
      01000F0AH   LINE      CODE     ---       #2313
      01000F0AH   LINE      CODE     ---       #2314
      01000F0AH   LINE      CODE     ---       #2315
      01000F0CH   LINE      CODE     ---       #2316
      01000F0CH   LINE      CODE     ---       #2317
      01000F11H   LINE      CODE     ---       #2318
      01000F11H   LINE      CODE     ---       #2319
      01000F14H   LINE      CODE     ---       #2320
      01000F16H   LINE      CODE     ---       #2321
      01000F19H   LINE      CODE     ---       #2322
      01000F1BH   LINE      CODE     ---       #2323
      01000F1BH   LINE      CODE     ---       #2324
      01000F1CH   LINE      CODE     ---       #2327
      01000F1CH   LINE      CODE     ---       #2328
      01000F21H   LINE      CODE     ---       #2329
      01000F21H   LINE      CODE     ---       #2330
      01000F24H   LINE      CODE     ---       #2331
      01000F26H   LINE      CODE     ---       #2332
      01000F26H   LINE      CODE     ---       #2333
      01000F26H   LINE      CODE     ---       #2334
      01000F26H   LINE      CODE     ---       #2335
      01000F28H   LINE      CODE     ---       #2336
      01000F28H   LINE      CODE     ---       #2337
      01000F2DH   LINE      CODE     ---       #2338
      01000F2DH   LINE      CODE     ---       #2339
      01000F30H   LINE      CODE     ---       #2340
      01000F32H   LINE      CODE     ---       #2341
      01000F32H   LINE      CODE     ---       #2342
      01000F32H   LINE      CODE     ---       #2343
      01000F32H   LINE      CODE     ---       #2344
      01000F34H   LINE      CODE     ---       #2345
      01000F34H   LINE      CODE     ---       #2346
      01000F39H   LINE      CODE     ---       #2347
      01000F39H   LINE      CODE     ---       #2348
LX51 LINKER/LOCATER V4.66.97.0                                                        05/09/2023  16:57:25  PAGE 104


      01000F3CH   LINE      CODE     ---       #2349
      01000F3EH   LINE      CODE     ---       #2350
      01000F3EH   LINE      CODE     ---       #2351
      01000F3EH   LINE      CODE     ---       #2352
      01000F3EH   LINE      CODE     ---       #2353
      01000F40H   LINE      CODE     ---       #2354
      01000F40H   LINE      CODE     ---       #2355
      01000F45H   LINE      CODE     ---       #2356
      01000F45H   LINE      CODE     ---       #2357
      01000F48H   LINE      CODE     ---       #2358
      01000F4AH   LINE      CODE     ---       #2359
      01000F4AH   LINE      CODE     ---       #2360
      01000F4AH   LINE      CODE     ---       #2361
      01000F4AH   LINE      CODE     ---       #2362
      01000F4CH   LINE      CODE     ---       #2363
      01000F4CH   LINE      CODE     ---       #2364
      01000F51H   LINE      CODE     ---       #2365
      01000F51H   LINE      CODE     ---       #2366
      01000F54H   LINE      CODE     ---       #2367
      01000F56H   LINE      CODE     ---       #2368
      01000F59H   LINE      CODE     ---       #2369
      01000F5BH   LINE      CODE     ---       #2370
      01000F5BH   LINE      CODE     ---       #2371
      01000F5CH   LINE      CODE     ---       #2372
      01000F5CH   LINE      CODE     ---       #2373
      01000F61H   LINE      CODE     ---       #2374
      01000F61H   LINE      CODE     ---       #2375
      01000F64H   LINE      CODE     ---       #2376
      01000F66H   LINE      CODE     ---       #2377
      01000F69H   LINE      CODE     ---       #2378
      01000F6BH   LINE      CODE     ---       #2379
      01000F6BH   LINE      CODE     ---       #2380
      01000F6CH   LINE      CODE     ---       #2383
      01000F6CH   LINE      CODE     ---       #2384
      01000F6CH   LINE      CODE     ---       #2385
      01000F6CH   LINE      CODE     ---       #2386
      01000F6CH   LINE      CODE     ---       #2389
      ---         BLOCKEND  ---      ---       LVL=0

      01001900H   BLOCK     CODE     ---       LVL=0
      01001946H   BLOCK     CODE     NEAR LAB  LVL=1
      00000027H   SYMBOL    DATA     BYTE      b_temp1
      ---         BLOCKEND  ---      ---       LVL=1
      01001900H   LINE      CODE     ---       #2393
      01001900H   LINE      CODE     ---       #2394
      01001900H   LINE      CODE     ---       #2397
      01001913H   LINE      CODE     ---       #2398
      01001913H   LINE      CODE     ---       #2401
      01001921H   LINE      CODE     ---       #2402
      01001921H   LINE      CODE     ---       #2404
      01001926H   LINE      CODE     ---       #2405
      01001928H   LINE      CODE     ---       #2406
      0100192EH   LINE      CODE     ---       #2407
      01001935H   LINE      CODE     ---       #2408
      01001935H   LINE      CODE     ---       #2409
      01001938H   LINE      CODE     ---       #2411
      01001946H   LINE      CODE     ---       #2412
      01001946H   LINE      CODE     ---       #2413
      01001956H   LINE      CODE     ---       #2416
      0100195BH   LINE      CODE     ---       #2417
      0100195DH   LINE      CODE     ---       #2418
      01001967H   LINE      CODE     ---       #2419
      01001970H   LINE      CODE     ---       #2420
      01001970H   LINE      CODE     ---       #2421
      01001972H   LINE      CODE     ---       #2423
LX51 LINKER/LOCATER V4.66.97.0                                                        05/09/2023  16:57:25  PAGE 105


      0100197DH   LINE      CODE     ---       #2424
      0100197DH   LINE      CODE     ---       #2426
      0100198AH   LINE      CODE     ---       #2427
      01001993H   LINE      CODE     ---       #2428
      010019A0H   LINE      CODE     ---       #2429
      010019A8H   LINE      CODE     ---       #2430
      010019A8H   LINE      CODE     ---       #2431
      010019AAH   LINE      CODE     ---       #2433
      010019B0H   LINE      CODE     ---       #2434
      010019B0H   LINE      CODE     ---       #2435
      010019BDH   LINE      CODE     ---       #2436
      010019C6H   LINE      CODE     ---       #2437
      010019D3H   LINE      CODE     ---       #2438
      010019DCH   LINE      CODE     ---       #2439
      010019DEH   LINE      CODE     ---       #2440
      010019DFH   LINE      CODE     ---       #2442
      010019E7H   LINE      CODE     ---       #2443
      010019E7H   LINE      CODE     ---       #2448
      010019F5H   LINE      CODE     ---       #2449
      010019F5H   LINE      CODE     ---       #2451
      010019FBH   LINE      CODE     ---       #2452
      01001A08H   LINE      CODE     ---       #2453
      01001A09H   LINE      CODE     ---       #2454
      01001A09H   LINE      CODE     ---       #2455
      01001A0BH   LINE      CODE     ---       #2457
      01001A0BH   LINE      CODE     ---       #2459
      01001A18H   LINE      CODE     ---       #2460
      01001A25H   LINE      CODE     ---       #2461
      01001A30H   LINE      CODE     ---       #2462
      01001A34H   LINE      CODE     ---       #2463
      01001A34H   LINE      CODE     ---       #2466
      01001A34H   LINE      CODE     ---       #2467
      01001A34H   LINE      CODE     ---       #2468
      ---         BLOCKEND  ---      ---       LVL=0

      01001A35H   BLOCK     CODE     ---       LVL=0
      01001A69H   BLOCK     CODE     NEAR LAB  LVL=1
      00000027H   SYMBOL    DATA     BYTE      b_temp1
      ---         BLOCKEND  ---      ---       LVL=1
      01001A35H   LINE      CODE     ---       #2472
      01001A35H   LINE      CODE     ---       #2473
      01001A35H   LINE      CODE     ---       #2477
      01001A43H   LINE      CODE     ---       #2478
      01001A43H   LINE      CODE     ---       #2480
      01001A48H   LINE      CODE     ---       #2481
      01001A4AH   LINE      CODE     ---       #2482
      01001A50H   LINE      CODE     ---       #2483
      01001A58H   LINE      CODE     ---       #2485
      01001A5AH   LINE      CODE     ---       #2500
      01001A5BH   LINE      CODE     ---       #2502
      01001A69H   LINE      CODE     ---       #2503
      01001A69H   LINE      CODE     ---       #2504
      01001A79H   LINE      CODE     ---       #2507
      01001A7EH   LINE      CODE     ---       #2508
      01001A80H   LINE      CODE     ---       #2509
      01001A8AH   LINE      CODE     ---       #2510
      01001A94H   LINE      CODE     ---       #2512
      01001AA0H   LINE      CODE     ---       #2513
      01001AA0H   LINE      CODE     ---       #2514
      01001AA2H   LINE      CODE     ---       #2515
      01001AA2H   LINE      CODE     ---       #2518
      01001AA3H   LINE      CODE     ---       #2520
      01001AAEH   LINE      CODE     ---       #2521
      01001AAEH   LINE      CODE     ---       #2523
      01001ABBH   LINE      CODE     ---       #2524
LX51 LINKER/LOCATER V4.66.97.0                                                        05/09/2023  16:57:25  PAGE 106


      01001AC4H   LINE      CODE     ---       #2525
      01001AD1H   LINE      CODE     ---       #2526
      01001ADAH   LINE      CODE     ---       #2527
      01001ADCH   LINE      CODE     ---       #2529
      01001AE2H   LINE      CODE     ---       #2530
      01001AE2H   LINE      CODE     ---       #2531
      01001AE4H   LINE      CODE     ---       #2532
      01001AE4H   LINE      CODE     ---       #2533
      01001AE5H   LINE      CODE     ---       #2535
      01001AEBH   LINE      CODE     ---       #2536
      01001AEBH   LINE      CODE     ---       #2537
      01001AF8H   LINE      CODE     ---       #2538
      01001B01H   LINE      CODE     ---       #2539
      01001B0EH   LINE      CODE     ---       #2540
      01001B17H   LINE      CODE     ---       #2542
      01001B1DH   LINE      CODE     ---       #2543
      01001B1DH   LINE      CODE     ---       #2544
      01001B1FH   LINE      CODE     ---       #2545
      01001B1FH   LINE      CODE     ---       #2546
      01001B20H   LINE      CODE     ---       #2549
      01001B28H   LINE      CODE     ---       #2550
      01001B28H   LINE      CODE     ---       #2556
      01001B35H   LINE      CODE     ---       #2557
      01001B3EH   LINE      CODE     ---       #2558
      01001B4BH   LINE      CODE     ---       #2559
      01001B54H   LINE      CODE     ---       #2561
      01001B57H   LINE      CODE     ---       #2562
      01001B59H   LINE      CODE     ---       #2594
      01001B59H   LINE      CODE     ---       #2596
      ---         BLOCKEND  ---      ---       LVL=0

      01002B09H   BLOCK     CODE     ---       LVL=0
      01002B09H   LINE      CODE     ---       #2599
      01002B09H   LINE      CODE     ---       #2600
      01002B09H   LINE      CODE     ---       #2603
      01002B0CH   LINE      CODE     ---       #2604
      01002B0CH   LINE      CODE     ---       #2605
      01002B0FH   LINE      CODE     ---       #2606
      01002B0FH   LINE      CODE     ---       #2608
      01002B1CH   LINE      CODE     ---       #2609
      01002B25H   LINE      CODE     ---       #2610
      01002B32H   LINE      CODE     ---       #2611
      01002B3BH   LINE      CODE     ---       #2612
      01002B3DH   LINE      CODE     ---       #2613
      01002B3DH   LINE      CODE     ---       #2614
      01002B3EH   LINE      CODE     ---       #2616
      01002B3EH   LINE      CODE     ---       #2624
      01002B4BH   LINE      CODE     ---       #2625
      01002B54H   LINE      CODE     ---       #2626
      01002B61H   LINE      CODE     ---       #2627
      01002B6AH   LINE      CODE     ---       #2630
      01002B6DH   LINE      CODE     ---       #2631
      01002B6FH   LINE      CODE     ---       #2632
      01002B6FH   LINE      CODE     ---       #2633
      ---         BLOCKEND  ---      ---       LVL=0

      ---         MODULE    ---      ---       KEY
      00000023H.3 PUBLIC    BIT      BIT       f_k1_down
      020000F7H   PUBLIC    XDATA    BYTE      b_clock_key
      020000F6H   PUBLIC    XDATA    BYTE      b_key_noCnt
      00000023H.2 PUBLIC    BIT      BIT       f_key_double
      020000F5H   PUBLIC    XDATA    BYTE      b_force_flash_cnt
      020000F4H   PUBLIC    XDATA    BYTE      b_key_double
      020000F3H   PUBLIC    XDATA    BYTE      b_key_longcnt
      020000F2H   PUBLIC    XDATA    BYTE      b_stop_2_min
LX51 LINKER/LOCATER V4.66.97.0                                                        05/09/2023  16:57:25  PAGE 107


      020000F1H   PUBLIC    XDATA    BYTE      b_stop_1_min
      020000F0H   PUBLIC    XDATA    BYTE      b_key_num
      020000EFH   PUBLIC    XDATA    BYTE      b_stop_2_sec
      020000EEH   PUBLIC    XDATA    BYTE      b_stop_1_sec
      020000EDH   PUBLIC    XDATA    BYTE      b_key_cnt
      00000023H.1 PUBLIC    BIT      BIT       f_readKey_over
      020000ECH   PUBLIC    XDATA    BYTE      b_key_old
      00000023H.0 PUBLIC    BIT      BIT       f_longKey
      00000022H.7 PUBLIC    BIT      BIT       f_firstKey
      00000022H.6 PUBLIC    BIT      BIT       f_key_done
      020000EBH   PUBLIC    XDATA    BYTE      set_time_2_min
      020000EAH   PUBLIC    XDATA    BYTE      set_time_1_min
      020000E9H   PUBLIC    XDATA    BYTE      set_time_2_hour
      020000E8H   PUBLIC    XDATA    BYTE      set_time_1_hour
      020000E7H   PUBLIC    XDATA    BYTE      set_time_2_sec
      020000E6H   PUBLIC    XDATA    BYTE      b_key_value
      020000E5H   PUBLIC    XDATA    BYTE      set_time_1_sec
      020000E4H   PUBLIC    XDATA    BYTE      Target_wendu_mode_2
      020000E3H   PUBLIC    XDATA    BYTE      Target_wendu_mode_1
      00000022H.5 PUBLIC    BIT      BIT       f_power_long
      00000022H.4 PUBLIC    BIT      BIT       f_lamp_long
      00000022H.3 PUBLIC    BIT      BIT       f_clock_key
      0100351FH   PUBLIC    CONST    ---       tab_set
      010017C0H   PUBLIC    CODE     ---       key_deal
      010031ACH   PUBLIC    CODE     ---       key_clr_sec
      010028AAH   PUBLIC    CODE     ---       mode_key
      010025D8H   PUBLIC    CODE     ---       dec_key
      01002539H   PUBLIC    CODE     ---       add_key
      0100327CH   PUBLIC    CODE     ---       key_yuyue
      0100311FH   PUBLIC    CODE     ---       grade_add_fun
      010030F7H   PUBLIC    CODE     ---       grade_dec_fun
      010029A7H   PUBLIC    CODE     ---       baowen_dec_fun
      01001531H   PUBLIC    CODE     ---       dingshi_dec_fun
      01002A20H   PUBLIC    CODE     ---       baowen_add_fun
      01001C7BH   PUBLIC    CODE     ---       dingshi_add_fun
      01003168H   PUBLIC    CODE     ---       baowen_fun
      01002DE0H   PUBLIC    CODE     ---       mode_init
      01002F86H   PUBLIC    CODE     ---       yuyue_dec_fun
      01002D3CH   PUBLIC    CODE     ---       yuyue_add_fun
      010021F4H   PUBLIC    CODE     ---       key_scan
      000000C3H   SFRSYM    DATA     BYTE      UART_IO_CTRL1
      00000099H   SFRSYM    DATA     BYTE      PWM1_L_L
      000000F7H   SFRSYM    DATA     BYTE      EXT_INT_CON
      0000009DH   SFRSYM    DATA     BYTE      PWM2_L_L
      00000085H   SFRSYM    DATA     BYTE      INT_PE_STAT
      000000B5H   SFRSYM    DATA     BYTE      ADC_SCAN_CFG
      000000A0H   SFRSYM    DATA     BYTE      P2_XH
      000000D0H.6 SFRSYM    DATA     BIT       AC
      000000EAH   SFRSYM    DATA     BYTE      TRISA
      000000E8H.2 SFRSYM    DATA     BIT       IIC_ACK
      000000A8H.7 SFRSYM    DATA     BIT       EA
      000000EBH   SFRSYM    DATA     BYTE      TRISB
      000000ECH   SFRSYM    DATA     BYTE      TRISC
      000000D8H   SFRSYM    DATA     BYTE      PD_PB
      00000091H   SFRSYM    DATA     BYTE      WDT_CTRL
      000000EDH   SFRSYM    DATA     BYTE      TRISD
      000000FBH   SFRSYM    DATA     BYTE      SPROG_DATA
      000000F2H   SFRSYM    DATA     BYTE      PERIPH_IO_SEL
      000000B1H   SFRSYM    DATA     BYTE      SCAN_WIDTH
      000000CFH   SFRSYM    DATA     BYTE      CSD_RAWDATAH
      000000A8H   SFRSYM    DATA     BYTE      IEN0
      000000E6H   SFRSYM    DATA     BYTE      IEN1
      000000E7H   SFRSYM    DATA     BYTE      IEN2
      000000CEH   SFRSYM    DATA     BYTE      CSD_RAWDATAL
      000000AEH   SFRSYM    DATA     BYTE      PWM0_MOD_H
LX51 LINKER/LOCATER V4.66.97.0                                                        05/09/2023  16:57:25  PAGE 108


      000000E9H   SFRSYM    DATA     BYTE      IICBUFFER
      000000ADH   SFRSYM    DATA     BYTE      PWM0_MOD_L
      000000C0H.1 SFRSYM    DATA     BIT       UART0_F
      000000E8H   SFRSYM    DATA     BYTE      IICSTAT
      000000C8H.1 SFRSYM    DATA     BIT       UART1_F
      000000B8H   SFRSYM    DATA     BYTE      IPL0
      000000F6H   SFRSYM    DATA     BYTE      IPL1
      000000DDH   SFRSYM    DATA     BYTE      PU_PA
      000000AFH   SFRSYM    DATA     BYTE      SCAN_START
      000000F4H   SFRSYM    DATA     BYTE      IPL2
      000000DEH   SFRSYM    DATA     BYTE      PU_PB
      000000D7H   SFRSYM    DATA     BYTE      RST_STAT
      0000008EH   SFRSYM    DATA     BYTE      SOFT_RST
      000000DFH   SFRSYM    DATA     BYTE      PU_PC
      000000E2H   SFRSYM    DATA     BYTE      PU_PD
      000000D1H   SFRSYM    DATA     BYTE      PULL_I_SELA_L
      000000B6H   SFRSYM    DATA     BYTE      ADCCKC
      000000D0H.7 SFRSYM    DATA     BIT       CY
      00000086H   SFRSYM    DATA     BYTE      INT_POBO_STAT
      000000C0H.0 SFRSYM    DATA     BIT       UART0_P
      000000EEH   SFRSYM    DATA     BYTE      COM_IO_SEL
      000000C8H.0 SFRSYM    DATA     BIT       UART1_P
      000000E3H   SFRSYM    DATA     BYTE      IICADD
      000000BDH   SFRSYM    DATA     BYTE      UART0_BDL
      000000B4H   SFRSYM    DATA     BYTE      ADC_SPT
      000000C5H   SFRSYM    DATA     BYTE      UART1_BDL
      00000081H   SFRSYM    DATA     BYTE      SP
      000000D0H.2 SFRSYM    DATA     BIT       OV
      000000A3H   SFRSYM    DATA     BYTE      PWM0_CH_CTRL
      000000BBH   SFRSYM    DATA     BYTE      ADC_CFG1
      00000094H   SFRSYM    DATA     BYTE      TIMER2_SET_H
      000000C1H   SFRSYM    DATA     BYTE      UART0_BUF
      000000BCH   SFRSYM    DATA     BYTE      ADC_CFG2
      000000C9H   SFRSYM    DATA     BYTE      UART1_BUF
      000000F1H   SFRSYM    DATA     BYTE      IRCON1
      000000E1H   SFRSYM    DATA     BYTE      IRCON2
      00000095H   SFRSYM    DATA     BYTE      TIMER2_SET_L
      000000A5H   SFRSYM    DATA     BYTE      PWM0_CH0_CNT_H
      000000A7H   SFRSYM    DATA     BYTE      PWM0_CH1_CNT_H
      00000087H   SFRSYM    DATA     BYTE      PCON
      000000F9H   SFRSYM    DATA     BYTE      SPROG_ADDR_H
      000000B3H   SFRSYM    DATA     BYTE      LED_DRIVE
      000000AAH   SFRSYM    DATA     BYTE      PWM0_CH2_CNT_H
      000000EFH   SFRSYM    DATA     BYTE      ODRAIN_EN
      000000ACH   SFRSYM    DATA     BYTE      PWM0_CH3_CNT_H
      000000E4H   SFRSYM    DATA     BYTE      IICBUF
      000000A4H   SFRSYM    DATA     BYTE      PWM0_CH0_CNT_L
      000000A6H   SFRSYM    DATA     BYTE      PWM0_CH1_CNT_L
      00000089H   SFRSYM    DATA     BYTE      TMOD
      00000088H   SFRSYM    DATA     BYTE      TCON
      000000FAH   SFRSYM    DATA     BYTE      SPROG_ADDR_L
      000000A9H   SFRSYM    DATA     BYTE      PWM0_CH2_CNT_L
      000000E8H.0 SFRSYM    DATA     BIT       IIC_RECOV
      000000E5H   SFRSYM    DATA     BYTE      IICCON
      000000ABH   SFRSYM    DATA     BYTE      PWM0_CH3_CNT_L
      000000D9H   SFRSYM    DATA     BYTE      ADC_IO_SEL1
      000000DAH   SFRSYM    DATA     BYTE      ADC_IO_SEL2
      000000DBH   SFRSYM    DATA     BYTE      ADC_IO_SEL3
      000000E8H.4 SFRSYM    DATA     BIT       IIC_AD
      000000DCH   SFRSYM    DATA     BYTE      ADC_IO_SEL4
      000000E8H.3 SFRSYM    DATA     BIT       IIC_BF
      00000088H.1 SFRSYM    DATA     BIT       IE0
      00000088H.3 SFRSYM    DATA     BIT       IE1
      000000C4H   SFRSYM    DATA     BYTE      LED_IO_START
      000000F8H.0 SFRSYM    DATA     BIT       PA0
LX51 LINKER/LOCATER V4.66.97.0                                                        05/09/2023  16:57:25  PAGE 109


      000000F0H   SFRSYM    DATA     BYTE      B
      00000080H.0 SFRSYM    DATA     BIT       PB0
      000000F8H.1 SFRSYM    DATA     BIT       PA1
      000000FCH   SFRSYM    DATA     BYTE      SPROG_CMD
      00000090H.0 SFRSYM    DATA     BIT       PC0
      00000080H.1 SFRSYM    DATA     BIT       PB1
      00000098H.0 SFRSYM    DATA     BIT       PD0
      00000090H.1 SFRSYM    DATA     BIT       PC1
      00000080H.2 SFRSYM    DATA     BIT       PB2
      00000098H.1 SFRSYM    DATA     BIT       PD1
      00000090H.2 SFRSYM    DATA     BIT       PC2
      00000080H.3 SFRSYM    DATA     BIT       PB3
      000000FEH   SFRSYM    DATA     BYTE      PD_ANA
      000000E8H.7 SFRSYM    DATA     BIT       IIC_START
      00000098H.2 SFRSYM    DATA     BIT       PD2
      00000090H.3 SFRSYM    DATA     BIT       PC3
      00000080H.4 SFRSYM    DATA     BIT       PB4
      00000098H.3 SFRSYM    DATA     BIT       PD3
      00000090H.4 SFRSYM    DATA     BIT       PC4
      00000080H.5 SFRSYM    DATA     BIT       PB5
      000000E0H   SFRSYM    DATA     BYTE      ACC
      00000098H.4 SFRSYM    DATA     BIT       PD4
      00000090H.5 SFRSYM    DATA     BIT       PC5
      00000080H.6 SFRSYM    DATA     BIT       PB6
      000000A8H.1 SFRSYM    DATA     BIT       ET0
      00000098H.5 SFRSYM    DATA     BIT       PD5
      00000090H.6 SFRSYM    DATA     BIT       PC6
      00000080H.7 SFRSYM    DATA     BIT       PB7
      000000A8H.3 SFRSYM    DATA     BIT       ET1
      00000098H.6 SFRSYM    DATA     BIT       PD6
      00000090H.7 SFRSYM    DATA     BIT       PC7
      00000088H.5 SFRSYM    DATA     BIT       TF0
      000000C0H.3 SFRSYM    DATA     BIT       RI0
      00000098H.7 SFRSYM    DATA     BIT       PD7
      00000088H.7 SFRSYM    DATA     BIT       TF1
      000000CAH   SFRSYM    DATA     BYTE      CSD_START
      000000C8H.3 SFRSYM    DATA     BIT       RI1
      0000008CH   SFRSYM    DATA     BYTE      TH0
      000000C0H.4 SFRSYM    DATA     BIT       TI0
      000000A8H.0 SFRSYM    DATA     BIT       EX0
      000000C2H   SFRSYM    DATA     BYTE      UART_IO_CTRL
      0000008DH   SFRSYM    DATA     BYTE      TH1
      000000C8H.4 SFRSYM    DATA     BIT       TI1
      000000A8H.2 SFRSYM    DATA     BIT       EX1
      000000D0H.0 SFRSYM    DATA     BIT       P
      0000008AH   SFRSYM    DATA     BYTE      TL0
      000000C0H   SFRSYM    DATA     BYTE      UART0_STATE
      0000008BH   SFRSYM    DATA     BYTE      TL1
      000000C8H   SFRSYM    DATA     BYTE      UART1_STATE
      000000FFH   SFRSYM    DATA     BYTE      BOR_LVDT_VTH
      000000B8H.1 SFRSYM    DATA     BIT       PT0
      000000D0H.3 SFRSYM    DATA     BIT       RS0
      000000B8H.3 SFRSYM    DATA     BIT       PT1
      000000B0H   SFRSYM    DATA     BYTE      DP_CON
      000000D0H.4 SFRSYM    DATA     BIT       RS1
      00000088H.4 SFRSYM    DATA     BIT       TR0
      00000088H.6 SFRSYM    DATA     BIT       TR1
      000000D2H   SFRSYM    DATA     BYTE      SNS_ANA_CFG
      000000C0H.6 SFRSYM    DATA     BIT       UART0_R8
      000000B8H.0 SFRSYM    DATA     BIT       PX0
      000000FDH   SFRSYM    DATA     BYTE      SPROG_TIM
      000000C8H.6 SFRSYM    DATA     BIT       UART1_R8
      000000B8H.2 SFRSYM    DATA     BIT       PX1
      000000C0H.5 SFRSYM    DATA     BIT       UART0_T8
      00000097H   SFRSYM    DATA     BYTE      REG_DATA
LX51 LINKER/LOCATER V4.66.97.0                                                        05/09/2023  16:57:25  PAGE 110


      000000C8H.5 SFRSYM    DATA     BIT       UART1_T8
      00000096H   SFRSYM    DATA     BYTE      REG_ADDR
      000000F8H   SFRSYM    DATA     BYTE      DATAA
      00000083H   SFRSYM    DATA     BYTE      DPH
      00000080H   SFRSYM    DATA     BYTE      DATAB
      000000CBH   SFRSYM    DATA     BYTE      SNS_SCAN_CFG1
      00000090H   SFRSYM    DATA     BYTE      DATAC
      000000E8H.5 SFRSYM    DATA     BIT       IIC_RW
      000000CCH   SFRSYM    DATA     BYTE      SNS_SCAN_CFG2
      000000B9H   SFRSYM    DATA     BYTE      ADC_RDATAH
      00000098H   SFRSYM    DATA     BYTE      DATAD
      000000CDH   SFRSYM    DATA     BYTE      SNS_SCAN_CFG3
      000000BEH   SFRSYM    DATA     BYTE      UART0_CON1
      00000082H   SFRSYM    DATA     BYTE      DPL
      000000C6H   SFRSYM    DATA     BYTE      UART1_CON1
      000000BFH   SFRSYM    DATA     BYTE      UART0_CON2
      000000C7H   SFRSYM    DATA     BYTE      UART1_CON2
      000000BAH   SFRSYM    DATA     BYTE      ADC_RDATAL
      00000092H   SFRSYM    DATA     BYTE      WDT_EN
      000000D3H   SFRSYM    DATA     BYTE      SNS_IO_SEL1
      000000D4H   SFRSYM    DATA     BYTE      SNS_IO_SEL2
      000000D5H   SFRSYM    DATA     BYTE      SNS_IO_SEL3
      00000093H   SFRSYM    DATA     BYTE      TIMER2_CFG
      000000D6H   SFRSYM    DATA     BYTE      SNS_IO_SEL4
      000000A2H   SFRSYM    DATA     BYTE      PWM_EN
      000000B2H   SFRSYM    DATA     BYTE      LED2_WIDTH
      000000E8H.1 SFRSYM    DATA     BIT       IIC_WCOL
      00000084H   SFRSYM    DATA     BYTE      SYS_CLK_CFG
      000000C0H.2 SFRSYM    DATA     BIT       UART0_RO
      000000C8H.2 SFRSYM    DATA     BIT       UART1_RO
      000000D0H.5 SFRSYM    DATA     BIT       F0
      000000D0H.1 SFRSYM    DATA     BIT       F1
      0000009CH   SFRSYM    DATA     BYTE      PWM1_H_H
      000000A1H   SFRSYM    DATA     BYTE      PWM2_H_H
      000000D0H   SFRSYM    DATA     BYTE      PSW
      0000009BH   SFRSYM    DATA     BYTE      PWM1_H_L
      0000009AH   SFRSYM    DATA     BYTE      PWM1_L_H
      0000009FH   SFRSYM    DATA     BYTE      PWM2_H_L
      0000009EH   SFRSYM    DATA     BYTE      PWM2_L_H
      000000E8H.6 SFRSYM    DATA     BIT       IIC_STOP

      010021F4H   BLOCK     CODE     ---       LVL=0
      010021F4H   BLOCK     CODE     NEAR LAB  LVL=1
      00000027H   SYMBOL    DATA     BYTE      i
      ---         BLOCKEND  ---      ---       LVL=1
      010021F4H   LINE      CODE     ---       #172
      010021F4H   LINE      CODE     ---       #173
      010021F4H   LINE      CODE     ---       #175
      010021F7H   LINE      CODE     ---       #186
      010021FBH   LINE      CODE     ---       #187
      01002208H   LINE      CODE     ---       #188
      01002208H   LINE      CODE     ---       #189
      01002236H   LINE      CODE     ---       #190
      01002236H   LINE      CODE     ---       #191
      0100223CH   LINE      CODE     ---       #192
      0100223FH   LINE      CODE     ---       #193
      01002244H   LINE      CODE     ---       #194
      01002244H   LINE      CODE     ---       #195
      01002248H   LINE      CODE     ---       #199
      0100224FH   LINE      CODE     ---       #200
      0100224FH   LINE      CODE     ---       #201
      01002254H   LINE      CODE     ---       #202
      0100225DH   LINE      CODE     ---       #203
      0100225DH   LINE      CODE     ---       #204
      01002261H   LINE      CODE     ---       #205
LX51 LINKER/LOCATER V4.66.97.0                                                        05/09/2023  16:57:25  PAGE 111


      01002268H   LINE      CODE     ---       #206
      01002268H   LINE      CODE     ---       #207
      0100226AH   LINE      CODE     ---       #208
      0100226DH   LINE      CODE     ---       #209
      0100226DH   LINE      CODE     ---       #210
      0100226FH   LINE      CODE     ---       #211
      01002271H   LINE      CODE     ---       #212
      01002271H   LINE      CODE     ---       #213
      01002271H   LINE      CODE     ---       #214
      01002272H   LINE      CODE     ---       #216
      01002272H   LINE      CODE     ---       #217
      0100227AH   LINE      CODE     ---       #218
      0100227DH   LINE      CODE     ---       #219
      0100227DH   LINE      CODE     ---       #220
      0100227EH   LINE      CODE     ---       #223
      0100227EH   LINE      CODE     ---       #225
      01002283H   LINE      CODE     ---       #226
      01002289H   LINE      CODE     ---       #227
      01002293H   LINE      CODE     ---       #228
      01002293H   LINE      CODE     ---       #229
      01002298H   LINE      CODE     ---       #230
      0100229CH   LINE      CODE     ---       #231
      0100229EH   LINE      CODE     ---       #232
      010022A0H   LINE      CODE     ---       #233
      010022A4H   LINE      CODE     ---       #234
      010022A8H   LINE      CODE     ---       #249
      010022A8H   LINE      CODE     ---       #250
      010022A8H   LINE      CODE     ---       #252
      ---         BLOCKEND  ---      ---       LVL=0

      01002D3CH   BLOCK     CODE     ---       LVL=0
      01002D3CH   LINE      CODE     ---       #260
      01002D3CH   LINE      CODE     ---       #261
      01002D3CH   LINE      CODE     ---       #262
      01002D41H   LINE      CODE     ---       #264
      01002D48H   LINE      CODE     ---       #266
      01002D62H   LINE      CODE     ---       #267
      01002D62H   LINE      CODE     ---       #268
      01002D68H   LINE      CODE     ---       #269
      01002D6DH   LINE      CODE     ---       #270
      01002D6EH   LINE      CODE     ---       #272
      01002D6EH   LINE      CODE     ---       #273
      01002D7BH   LINE      CODE     ---       #274
      01002D7BH   LINE      CODE     ---       #275
      01002D7DH   LINE      CODE     ---       #276
      01002D83H   LINE      CODE     ---       #277
      01002D8CH   LINE      CODE     ---       #278
      01002D8CH   LINE      CODE     ---       #279
      01002D8FH   LINE      CODE     ---       #280
      01002D8FH   LINE      CODE     ---       #281
      01002D8FH   LINE      CODE     ---       #282
      01002D8FH   LINE      CODE     ---       #287
      ---         BLOCKEND  ---      ---       LVL=0

      01002F86H   BLOCK     CODE     ---       LVL=0
      01002F86H   LINE      CODE     ---       #296
      01002F86H   LINE      CODE     ---       #297
      01002F86H   LINE      CODE     ---       #306
      01002F8BH   LINE      CODE     ---       #308
      01002F98H   LINE      CODE     ---       #309
      01002F98H   LINE      CODE     ---       #310
      01002FA5H   LINE      CODE     ---       #311
      01002FAAH   LINE      CODE     ---       #313
      01002FAAH   LINE      CODE     ---       #314
      01002FB0H   LINE      CODE     ---       #315
LX51 LINKER/LOCATER V4.66.97.0                                                        05/09/2023  16:57:25  PAGE 112


      01002FB7H   LINE      CODE     ---       #316
      01002FB7H   LINE      CODE     ---       #317
      01002FB7H   LINE      CODE     ---       #321
      ---         BLOCKEND  ---      ---       LVL=0

      01002DE0H   BLOCK     CODE     ---       LVL=0
      01002DE0H   LINE      CODE     ---       #332
      01002DE0H   LINE      CODE     ---       #333
      01002DE0H   LINE      CODE     ---       #334
      01002DE6H   LINE      CODE     ---       #336
      01002DFBH   LINE      CODE     ---       #337
      01002E0FH   LINE      CODE     ---       #341
      01002E26H   LINE      CODE     ---       #344
      01002E28H   LINE      CODE     ---       #345
      01002E2AH   LINE      CODE     ---       #355
      01002E2DH   LINE      CODE     ---       #356
      ---         BLOCKEND  ---      ---       LVL=0

      01003168H   BLOCK     CODE     ---       LVL=0
      01003168H   LINE      CODE     ---       #365
      01003168H   LINE      CODE     ---       #366
      01003168H   LINE      CODE     ---       #368
      0100316AH   LINE      CODE     ---       #369
      0100316CH   LINE      CODE     ---       #373
      0100316EH   LINE      CODE     ---       #375
      01003175H   LINE      CODE     ---       #378
      0100317BH   LINE      CODE     ---       #379
      01003180H   LINE      CODE     ---       #380
      01003184H   LINE      CODE     ---       #383
      0100318AH   LINE      CODE     ---       #395
      ---         BLOCKEND  ---      ---       LVL=0

      01001C7BH   BLOCK     CODE     ---       LVL=0
      01001C7BH   BLOCK     CODE     NEAR LAB  LVL=1
      00000027H   SYMBOL    DATA     BYTE      i
      ---         BLOCKEND  ---      ---       LVL=1
      01001C7BH   LINE      CODE     ---       #404
      01001C7BH   LINE      CODE     ---       #405
      01001C7BH   LINE      CODE     ---       #406
      01001C7EH   LINE      CODE     ---       #415
      01001C82H   LINE      CODE     ---       #416
      01001C82H   LINE      CODE     ---       #418
      01001C97H   LINE      CODE     ---       #422
      01001CEBH   LINE      CODE     ---       #423
      01001CEBH   LINE      CODE     ---       #425
      01001CEBH   LINE      CODE     ---       #426
      01001CEBH   LINE      CODE     ---       #427
      01001CEBH   LINE      CODE     ---       #428
      01001CEDH   LINE      CODE     ---       #430
      01001CEDH   LINE      CODE     ---       #432
      01001CF0H   LINE      CODE     ---       #433
      01001CF7H   LINE      CODE     ---       #434
      01001D01H   LINE      CODE     ---       #435
      01001D01H   LINE      CODE     ---       #436
      01001D05H   LINE      CODE     ---       #437
      01001D0BH   LINE      CODE     ---       #438
      01001D0BH   LINE      CODE     ---       #440
      01001D5FH   LINE      CODE     ---       #441
      01001D5FH   LINE      CODE     ---       #443
      01001D62H   LINE      CODE     ---       #444
      01001D7AH   LINE      CODE     ---       #445
      01001D8EH   LINE      CODE     ---       #446
      01001D8EH   LINE      CODE     ---       #447
      01001D8EH   LINE      CODE     ---       #449
      ---         BLOCKEND  ---      ---       LVL=0
LX51 LINKER/LOCATER V4.66.97.0                                                        05/09/2023  16:57:25  PAGE 113



      01002A20H   BLOCK     CODE     ---       LVL=0
      01002A20H   BLOCK     CODE     NEAR LAB  LVL=1
      00000027H   SYMBOL    DATA     BYTE      i
      ---         BLOCKEND  ---      ---       LVL=1
      01002A20H   LINE      CODE     ---       #458
      01002A20H   LINE      CODE     ---       #459
      01002A20H   LINE      CODE     ---       #460
      01002A23H   LINE      CODE     ---       #461
      01002A27H   LINE      CODE     ---       #462
      01002A2AH   LINE      CODE     ---       #463
      01002A2DH   LINE      CODE     ---       #466
      01002A4DH   LINE      CODE     ---       #467
      01002A4DH   LINE      CODE     ---       #469
      01002A4DH   LINE      CODE     ---       #470
      01002A4DH   LINE      CODE     ---       #471
      01002A4FH   LINE      CODE     ---       #473
      01002A4FH   LINE      CODE     ---       #475
      01002A56H   LINE      CODE     ---       #476
      01002A60H   LINE      CODE     ---       #477
      01002A60H   LINE      CODE     ---       #478
      01002A64H   LINE      CODE     ---       #479
      01002A6AH   LINE      CODE     ---       #480
      01002A6AH   LINE      CODE     ---       #482
      01002A8AH   LINE      CODE     ---       #483
      01002A8AH   LINE      CODE     ---       #485
      01002A90H   LINE      CODE     ---       #486
      01002A95H   LINE      CODE     ---       #487
      01002A95H   LINE      CODE     ---       #488
      01002A95H   LINE      CODE     ---       #490
      ---         BLOCKEND  ---      ---       LVL=0

      01001531H   BLOCK     CODE     ---       LVL=0
      01001531H   BLOCK     CODE     NEAR LAB  LVL=1
      00000027H   SYMBOL    DATA     BYTE      i
      ---         BLOCKEND  ---      ---       LVL=1
      01001531H   LINE      CODE     ---       #503
      01001531H   LINE      CODE     ---       #504
      01001531H   LINE      CODE     ---       #505
      01001534H   LINE      CODE     ---       #511
      01001538H   LINE      CODE     ---       #512
      01001538H   LINE      CODE     ---       #514
      0100154DH   LINE      CODE     ---       #516
      01001550H   LINE      CODE     ---       #518
      01001577H   LINE      CODE     ---       #519
      01001577H   LINE      CODE     ---       #520
      010015C1H   LINE      CODE     ---       #521
      010015C1H   LINE      CODE     ---       #522
      010015C1H   LINE      CODE     ---       #523
      010015C1H   LINE      CODE     ---       #524
      010015C4H   LINE      CODE     ---       #526
      010015C4H   LINE      CODE     ---       #527
      010015CDH   LINE      CODE     ---       #528
      010015CDH   LINE      CODE     ---       #529
      010015D1H   LINE      CODE     ---       #530
      010015D7H   LINE      CODE     ---       #531
      010015D7H   LINE      CODE     ---       #532
      010015E0H   LINE      CODE     ---       #533
      01001630H   LINE      CODE     ---       #534
      01001630H   LINE      CODE     ---       #535
      01001647H   LINE      CODE     ---       #536
      0100164CH   LINE      CODE     ---       #537
      0100164CH   LINE      CODE     ---       #538
      0100164CH   LINE      CODE     ---       #539
      0100164DH   LINE      CODE     ---       #542
LX51 LINKER/LOCATER V4.66.97.0                                                        05/09/2023  16:57:25  PAGE 114


      0100164DH   LINE      CODE     ---       #543
      01001665H   LINE      CODE     ---       #544
      01001679H   LINE      CODE     ---       #545
      01001679H   LINE      CODE     ---       #547
      ---         BLOCKEND  ---      ---       LVL=0

      010029A7H   BLOCK     CODE     ---       LVL=0
      010029A7H   BLOCK     CODE     NEAR LAB  LVL=1
      00000027H   SYMBOL    DATA     BYTE      i
      ---         BLOCKEND  ---      ---       LVL=1
      010029A7H   LINE      CODE     ---       #556
      010029A7H   LINE      CODE     ---       #557
      010029A7H   LINE      CODE     ---       #558
      010029AAH   LINE      CODE     ---       #561
      010029AEH   LINE      CODE     ---       #564
      010029B1H   LINE      CODE     ---       #566
      010029B4H   LINE      CODE     ---       #568
      010029D5H   LINE      CODE     ---       #569
      010029D5H   LINE      CODE     ---       #570
      010029E0H   LINE      CODE     ---       #571
      010029E0H   LINE      CODE     ---       #572
      010029E0H   LINE      CODE     ---       #573
      010029E0H   LINE      CODE     ---       #574
      010029E2H   LINE      CODE     ---       #576
      010029E2H   LINE      CODE     ---       #577
      010029E8H   LINE      CODE     ---       #578
      010029E8H   LINE      CODE     ---       #579
      010029EFH   LINE      CODE     ---       #580
      010029F5H   LINE      CODE     ---       #581
      010029F5H   LINE      CODE     ---       #582
      010029FEH   LINE      CODE     ---       #583
      01002A13H   LINE      CODE     ---       #584
      01002A13H   LINE      CODE     ---       #585
      01002A14H   LINE      CODE     ---       #586
      01002A14H   LINE      CODE     ---       #587
      01002A14H   LINE      CODE     ---       #588
      01002A14H   LINE      CODE     ---       #589
      01002A16H   LINE      CODE     ---       #592
      01002A16H   LINE      CODE     ---       #593
      01002A1BH   LINE      CODE     ---       #594
      01002A1FH   LINE      CODE     ---       #595
      01002A1FH   LINE      CODE     ---       #597
      ---         BLOCKEND  ---      ---       LVL=0

      010030F7H   BLOCK     CODE     ---       LVL=0
      010030F7H   LINE      CODE     ---       #607
      010030F7H   LINE      CODE     ---       #608
      010030F7H   LINE      CODE     ---       #611
      010030FAH   LINE      CODE     ---       #615
      01003116H   LINE      CODE     ---       #616
      01003119H   LINE      CODE     ---       #629
      0100311CH   LINE      CODE     ---       #630
      0100311EH   LINE      CODE     ---       #632
      ---         BLOCKEND  ---      ---       LVL=0

      0100311FH   BLOCK     CODE     ---       LVL=0
      0100311FH   LINE      CODE     ---       #641
      0100311FH   LINE      CODE     ---       #642
      0100311FH   LINE      CODE     ---       #646
      0100313BH   LINE      CODE     ---       #647
      0100313BH   LINE      CODE     ---       #648
      0100313EH   LINE      CODE     ---       #649
      0100313EH   LINE      CODE     ---       #661
      01003141H   LINE      CODE     ---       #662
      01003143H   LINE      CODE     ---       #664
LX51 LINKER/LOCATER V4.66.97.0                                                        05/09/2023  16:57:25  PAGE 115


      ---         BLOCKEND  ---      ---       LVL=0

      0100327CH   BLOCK     CODE     ---       LVL=0
      0100327CH   LINE      CODE     ---       #673
      0100327CH   LINE      CODE     ---       #674
      0100327CH   LINE      CODE     ---       #676
      0100327EH   LINE      CODE     ---       #677
      01003280H   LINE      CODE     ---       #680
      01003282H   LINE      CODE     ---       #681
      01003284H   LINE      CODE     ---       #684
      01003289H   LINE      CODE     ---       #685
      0100328FH   LINE      CODE     ---       #686
      01003294H   LINE      CODE     ---       #717
      ---         BLOCKEND  ---      ---       LVL=0

      01002539H   BLOCK     CODE     ---       LVL=0
      01002539H   LINE      CODE     ---       #727
      01002539H   LINE      CODE     ---       #728
      01002539H   LINE      CODE     ---       #729
      0100253FH   LINE      CODE     ---       #730
      0100253FH   LINE      CODE     ---       #733
      01002542H   LINE      CODE     ---       #734
      01002542H   LINE      CODE     ---       #736
      01002542H   LINE      CODE     ---       #738
      01002550H   LINE      CODE     ---       #739
      01002550H   LINE      CODE     ---       #740
      01002557H   LINE      CODE     ---       #741
      01002557H   LINE      CODE     ---       #742
      01002557H   LINE      CODE     ---       #743
      01002557H   LINE      CODE     ---       #744
      01002557H   LINE      CODE     ---       #745
      01002557H   LINE      CODE     ---       #746
      01002559H   LINE      CODE     ---       #748
      01002559H   LINE      CODE     ---       #749
      0100255AH   LINE      CODE     ---       #750
      0100255CH   LINE      CODE     ---       #751
      01002560H   LINE      CODE     ---       #752
      01002563H   LINE      CODE     ---       #753
      01002563H   LINE      CODE     ---       #754
      01002563H   LINE      CODE     ---       #755
      0100257BH   LINE      CODE     ---       #756
      0100257BH   LINE      CODE     ---       #758
      0100257EH   LINE      CODE     ---       #759
      0100257EH   LINE      CODE     ---       #760
      01002580H   LINE      CODE     ---       #761
      01002585H   LINE      CODE     ---       #762
      01002585H   LINE      CODE     ---       #763
      01002585H   LINE      CODE     ---       #764
      01002585H   LINE      CODE     ---       #765
      01002585H   LINE      CODE     ---       #766
      01002587H   LINE      CODE     ---       #768
      01002587H   LINE      CODE     ---       #769
      0100258EH   LINE      CODE     ---       #770
      0100258EH   LINE      CODE     ---       #771
      0100258EH   LINE      CODE     ---       #772
      0100258EH   LINE      CODE     ---       #773
      0100258EH   LINE      CODE     ---       #774
      0100258EH   LINE      CODE     ---       #775
      01002590H   LINE      CODE     ---       #777
      01002590H   LINE      CODE     ---       #778
      01002591H   LINE      CODE     ---       #779
      01002593H   LINE      CODE     ---       #780
      01002597H   LINE      CODE     ---       #781
      0100259AH   LINE      CODE     ---       #782
      0100259AH   LINE      CODE     ---       #784
LX51 LINKER/LOCATER V4.66.97.0                                                        05/09/2023  16:57:25  PAGE 116


      0100259AH   LINE      CODE     ---       #786
      0100259AH   LINE      CODE     ---       #787
      010025A2H   LINE      CODE     ---       #788
      010025A2H   LINE      CODE     ---       #790
      010025A5H   LINE      CODE     ---       #791
      010025A5H   LINE      CODE     ---       #792
      010025A8H   LINE      CODE     ---       #793
      010025A8H   LINE      CODE     ---       #794
      010025ACH   LINE      CODE     ---       #795
      010025AEH   LINE      CODE     ---       #796
      010025B2H   LINE      CODE     ---       #797
      010025B5H   LINE      CODE     ---       #798
      010025B5H   LINE      CODE     ---       #800
      010025B5H   LINE      CODE     ---       #801
      010025BAH   LINE      CODE     ---       #802
      010025BCH   LINE      CODE     ---       #803
      010025C0H   LINE      CODE     ---       #804
      010025C3H   LINE      CODE     ---       #805
      010025C3H   LINE      CODE     ---       #806
      010025C3H   LINE      CODE     ---       #809
      010025C3H   LINE      CODE     ---       #810
      010025CAH   LINE      CODE     ---       #811
      010025D4H   LINE      CODE     ---       #812
      010025D4H   LINE      CODE     ---       #813
      010025D7H   LINE      CODE     ---       #814
      010025D7H   LINE      CODE     ---       #830
      010025D7H   LINE      CODE     ---       #831
      010025D7H   LINE      CODE     ---       #836
      010025D7H   LINE      CODE     ---       #837
      ---         BLOCKEND  ---      ---       LVL=0

      010025D8H   BLOCK     CODE     ---       LVL=0
      010025D8H   LINE      CODE     ---       #846
      010025D8H   LINE      CODE     ---       #847
      010025D8H   LINE      CODE     ---       #848
      010025DEH   LINE      CODE     ---       #849
      010025DEH   LINE      CODE     ---       #851
      010025E1H   LINE      CODE     ---       #852
      010025E1H   LINE      CODE     ---       #854
      010025E1H   LINE      CODE     ---       #856
      010025EFH   LINE      CODE     ---       #857
      010025EFH   LINE      CODE     ---       #858
      010025F6H   LINE      CODE     ---       #859
      010025F6H   LINE      CODE     ---       #860
      010025F6H   LINE      CODE     ---       #861
      010025F6H   LINE      CODE     ---       #862
      010025F6H   LINE      CODE     ---       #863
      010025F6H   LINE      CODE     ---       #864
      010025F8H   LINE      CODE     ---       #866
      010025F8H   LINE      CODE     ---       #867
      010025F9H   LINE      CODE     ---       #868
      010025FBH   LINE      CODE     ---       #869
      010025FFH   LINE      CODE     ---       #870
      01002602H   LINE      CODE     ---       #871
      01002602H   LINE      CODE     ---       #872
      01002602H   LINE      CODE     ---       #873
      0100261AH   LINE      CODE     ---       #874
      0100261DH   LINE      CODE     ---       #875
      0100261DH   LINE      CODE     ---       #876
      0100261FH   LINE      CODE     ---       #877
      01002624H   LINE      CODE     ---       #878
      01002624H   LINE      CODE     ---       #879
      01002624H   LINE      CODE     ---       #880
      01002624H   LINE      CODE     ---       #881
      01002624H   LINE      CODE     ---       #882
LX51 LINKER/LOCATER V4.66.97.0                                                        05/09/2023  16:57:25  PAGE 117


      01002626H   LINE      CODE     ---       #884
      01002626H   LINE      CODE     ---       #885
      0100262DH   LINE      CODE     ---       #886
      0100262DH   LINE      CODE     ---       #887
      0100262DH   LINE      CODE     ---       #888
      0100262DH   LINE      CODE     ---       #889
      0100262DH   LINE      CODE     ---       #890
      0100262DH   LINE      CODE     ---       #891
      0100262FH   LINE      CODE     ---       #893
      0100262FH   LINE      CODE     ---       #894
      01002630H   LINE      CODE     ---       #895
      01002632H   LINE      CODE     ---       #896
      01002636H   LINE      CODE     ---       #897
      01002639H   LINE      CODE     ---       #898
      01002639H   LINE      CODE     ---       #901
      01002639H   LINE      CODE     ---       #903
      01002639H   LINE      CODE     ---       #904
      01002641H   LINE      CODE     ---       #905
      01002641H   LINE      CODE     ---       #907
      01002644H   LINE      CODE     ---       #908
      01002644H   LINE      CODE     ---       #909
      01002647H   LINE      CODE     ---       #910
      01002647H   LINE      CODE     ---       #911
      0100264BH   LINE      CODE     ---       #912
      0100264DH   LINE      CODE     ---       #913
      01002651H   LINE      CODE     ---       #914
      01002654H   LINE      CODE     ---       #915
      01002654H   LINE      CODE     ---       #917
      01002654H   LINE      CODE     ---       #918
      01002659H   LINE      CODE     ---       #919
      0100265BH   LINE      CODE     ---       #920
      0100265FH   LINE      CODE     ---       #921
      01002662H   LINE      CODE     ---       #922
      01002662H   LINE      CODE     ---       #924
      01002662H   LINE      CODE     ---       #927
      01002662H   LINE      CODE     ---       #928
      01002669H   LINE      CODE     ---       #929
      01002673H   LINE      CODE     ---       #930
      01002673H   LINE      CODE     ---       #931
      01002676H   LINE      CODE     ---       #932
      01002676H   LINE      CODE     ---       #939
      01002676H   LINE      CODE     ---       #940
      01002676H   LINE      CODE     ---       #941
      01002676H   LINE      CODE     ---       #942
      ---         BLOCKEND  ---      ---       LVL=0

      010028AAH   BLOCK     CODE     ---       LVL=0
      010028AAH   LINE      CODE     ---       #951
      010028AAH   LINE      CODE     ---       #952
      010028AAH   LINE      CODE     ---       #955
      010028B9H   LINE      CODE     ---       #956
      010028B9H   LINE      CODE     ---       #957
      010028BCH   LINE      CODE     ---       #958
      010028BCH   LINE      CODE     ---       #959
      010028BEH   LINE      CODE     ---       #960
      010028C1H   LINE      CODE     ---       #961
      010028C1H   LINE      CODE     ---       #962
      010028C3H   LINE      CODE     ---       #963
      010028C5H   LINE      CODE     ---       #964
      010028C7H   LINE      CODE     ---       #967
      010028C9H   LINE      CODE     ---       #968
      010028CBH   LINE      CODE     ---       #969
      010028CDH   LINE      CODE     ---       #974
      010028D3H   LINE      CODE     ---       #975
      010028DDH   LINE      CODE     ---       #976
LX51 LINKER/LOCATER V4.66.97.0                                                        05/09/2023  16:57:25  PAGE 118


      010028E0H   LINE      CODE     ---       #981
      010028E2H   LINE      CODE     ---       #986
      010028FAH   LINE      CODE     ---       #987
      0100290EH   LINE      CODE     ---       #990
      01002925H   LINE      CODE     ---       #991
      01002928H   LINE      CODE     ---       #995
      01002928H   LINE      CODE     ---       #999
      ---         BLOCKEND  ---      ---       LVL=0

      010031ACH   BLOCK     CODE     ---       LVL=0
      010031ACH   LINE      CODE     ---       #1010
      010031ACH   LINE      CODE     ---       #1011
      010031ACH   LINE      CODE     ---       #1012
      010031B1H   LINE      CODE     ---       #1013
      010031B5H   LINE      CODE     ---       #1014
      010031B9H   LINE      CODE     ---       #1015
      010031BDH   LINE      CODE     ---       #1016
      010031BFH   LINE      CODE     ---       #1017
      010031C1H   LINE      CODE     ---       #1018
      010031C7H   LINE      CODE     ---       #1019
      010031CCH   LINE      CODE     ---       #1024
      ---         BLOCKEND  ---      ---       LVL=0

      010017C0H   BLOCK     CODE     ---       LVL=0
      010017C0H   LINE      CODE     ---       #1035
      010017C0H   LINE      CODE     ---       #1036
      010017C0H   LINE      CODE     ---       #1037
      010017C3H   LINE      CODE     ---       #1039
      010017C9H   LINE      CODE     ---       #1040
      010017D3H   LINE      CODE     ---       #1041
      010017D3H   LINE      CODE     ---       #1043
      010017D5H   LINE      CODE     ---       #1044
      010017D7H   LINE      CODE     ---       #1045
      010017D7H   LINE      CODE     ---       #1047
      010017DDH   LINE      CODE     ---       #1048
      010017DDH   LINE      CODE     ---       #1049
      010017DFH   LINE      CODE     ---       #1050
      010017E6H   LINE      CODE     ---       #1051
      010017E6H   LINE      CODE     ---       #1052
      010017E9H   LINE      CODE     ---       #1053
      010017E9H   LINE      CODE     ---       #1054
      010017EEH   LINE      CODE     ---       #1055
      010017EEH   LINE      CODE     ---       #1057
      010017EEH   LINE      CODE     ---       #1059
      01001809H   LINE      CODE     ---       #1060
      01001809H   LINE      CODE     ---       #1061
      01001809H   LINE      CODE     ---       #1062
      01001809H   LINE      CODE     ---       #1064
      01001818H   LINE      CODE     ---       #1065
      01001818H   LINE      CODE     ---       #1066
      0100181BH   LINE      CODE     ---       #1067
      0100181EH   LINE      CODE     ---       #1068
      0100181EH   LINE      CODE     ---       #1070
      01001824H   LINE      CODE     ---       #1071
      01001824H   LINE      CODE     ---       #1072
      0100183AH   LINE      CODE     ---       #1073
      0100183AH   LINE      CODE     ---       #1074
      0100183DH   LINE      CODE     ---       #1075
      01001840H   LINE      CODE     ---       #1076
      01001840H   LINE      CODE     ---       #1077
      01001840H   LINE      CODE     ---       #1079
      01001840H   LINE      CODE     ---       #1081
      01001840H   LINE      CODE     ---       #1082
      01001840H   LINE      CODE     ---       #1083
      01001840H   LINE      CODE     ---       #1085
LX51 LINKER/LOCATER V4.66.97.0                                                        05/09/2023  16:57:25  PAGE 119


      01001843H   LINE      CODE     ---       #1086
      01001843H   LINE      CODE     ---       #1088
      01001849H   LINE      CODE     ---       #1089
      01001849H   LINE      CODE     ---       #1090
      0100184CH   LINE      CODE     ---       #1091
      0100184FH   LINE      CODE     ---       #1092
      01001854H   LINE      CODE     ---       #1093
      01001854H   LINE      CODE     ---       #1094
      01001856H   LINE      CODE     ---       #1096
      0100185CH   LINE      CODE     ---       #1097
      0100185CH   LINE      CODE     ---       #1099
      01001862H   LINE      CODE     ---       #1100
      01001862H   LINE      CODE     ---       #1101
      01001865H   LINE      CODE     ---       #1102
      01001868H   LINE      CODE     ---       #1103
      01001868H   LINE      CODE     ---       #1105
      0100186AH   LINE      CODE     ---       #1107
      0100186AH   LINE      CODE     ---       #1108
      01001870H   LINE      CODE     ---       #1109
      01001870H   LINE      CODE     ---       #1110
      01001873H   LINE      CODE     ---       #1111
      01001873H   LINE      CODE     ---       #1112
      01001873H   LINE      CODE     ---       #1115
      01001875H   LINE      CODE     ---       #1116
      01001882H   LINE      CODE     ---       #1117
      01001882H   LINE      CODE     ---       #1118
      01001885H   LINE      CODE     ---       #1119
      01001885H   LINE      CODE     ---       #1123
      01001886H   LINE      CODE     ---       #1124
      01001886H   LINE      CODE     ---       #1127
      01001886H   LINE      CODE     ---       #1128
      01001886H   LINE      CODE     ---       #1129
      0100188AH   LINE      CODE     ---       #1130
      0100188AH   LINE      CODE     ---       #1132
      01001890H   LINE      CODE     ---       #1133
      01001890H   LINE      CODE     ---       #1151
      0100189FH   LINE      CODE     ---       #1152
      0100189FH   LINE      CODE     ---       #1153
      010018A2H   LINE      CODE     ---       #1154
      010018A5H   LINE      CODE     ---       #1155
      010018A5H   LINE      CODE     ---       #1156
      010018A7H   LINE      CODE     ---       #1157
      010018ADH   LINE      CODE     ---       #1158
      010018B7H   LINE      CODE     ---       #1159
      010018B7H   LINE      CODE     ---       #1160
      010018B7H   LINE      CODE     ---       #1161
      010018B7H   LINE      CODE     ---       #1162
      010018B9H   LINE      CODE     ---       #1163
      010018B9H   LINE      CODE     ---       #1164
      010018B9H   LINE      CODE     ---       #1165
      010018B9H   LINE      CODE     ---       #1167
      010018BDH   LINE      CODE     ---       #1168
      010018BDH   LINE      CODE     ---       #1171
      010018C3H   LINE      CODE     ---       #1172
      010018C3H   LINE      CODE     ---       #1190
      010018D2H   LINE      CODE     ---       #1191
      010018D2H   LINE      CODE     ---       #1192
      010018D5H   LINE      CODE     ---       #1193
      010018D8H   LINE      CODE     ---       #1194
      010018D8H   LINE      CODE     ---       #1195
      010018DAH   LINE      CODE     ---       #1196
      010018E0H   LINE      CODE     ---       #1197
      010018EAH   LINE      CODE     ---       #1198
      010018EAH   LINE      CODE     ---       #1199
      010018EDH   LINE      CODE     ---       #1200
LX51 LINKER/LOCATER V4.66.97.0                                                        05/09/2023  16:57:25  PAGE 120


      010018EDH   LINE      CODE     ---       #1201
      010018EEH   LINE      CODE     ---       #1202
      010018EEH   LINE      CODE     ---       #1207
      010018EEH   LINE      CODE     ---       #1208
      010018EEH   LINE      CODE     ---       #1209
      010018EEH   LINE      CODE     ---       #1210
      010018EEH   LINE      CODE     ---       #1212
      010018EEH   LINE      CODE     ---       #1214
      010018EEH   LINE      CODE     ---       #1216
      010018F6H   LINE      CODE     ---       #1217
      010018F6H   LINE      CODE     ---       #1218
      010018F9H   LINE      CODE     ---       #1219
      010018FCH   LINE      CODE     ---       #1220
      010018FFH   LINE      CODE     ---       #1221
      010018FFH   LINE      CODE     ---       #1222
      010018FFH   LINE      CODE     ---       #1224
      010018FFH   LINE      CODE     ---       #1225
      ---         BLOCKEND  ---      ---       LVL=0

      ---         MODULE    ---      ---       TM1628
      000000C3H   SFRSYM    DATA     BYTE      UART_IO_CTRL1
      00000099H   SFRSYM    DATA     BYTE      PWM1_L_L
      000000F7H   SFRSYM    DATA     BYTE      EXT_INT_CON
      0000009DH   SFRSYM    DATA     BYTE      PWM2_L_L
      00000085H   SFRSYM    DATA     BYTE      INT_PE_STAT
      000000B5H   SFRSYM    DATA     BYTE      ADC_SCAN_CFG
      000000A0H   SFRSYM    DATA     BYTE      P2_XH
      000000D0H.6 SFRSYM    DATA     BIT       AC
      000000EAH   SFRSYM    DATA     BYTE      TRISA
      000000E8H.2 SFRSYM    DATA     BIT       IIC_ACK
      000000A8H.7 SFRSYM    DATA     BIT       EA
      000000EBH   SFRSYM    DATA     BYTE      TRISB
      000000ECH   SFRSYM    DATA     BYTE      TRISC
      000000D8H   SFRSYM    DATA     BYTE      PD_PB
      00000091H   SFRSYM    DATA     BYTE      WDT_CTRL
      000000EDH   SFRSYM    DATA     BYTE      TRISD
      000000FBH   SFRSYM    DATA     BYTE      SPROG_DATA
      000000F2H   SFRSYM    DATA     BYTE      PERIPH_IO_SEL
      000000B1H   SFRSYM    DATA     BYTE      SCAN_WIDTH
      000000CFH   SFRSYM    DATA     BYTE      CSD_RAWDATAH
      000000A8H   SFRSYM    DATA     BYTE      IEN0
      000000E6H   SFRSYM    DATA     BYTE      IEN1
      000000E7H   SFRSYM    DATA     BYTE      IEN2
      000000CEH   SFRSYM    DATA     BYTE      CSD_RAWDATAL
      000000AEH   SFRSYM    DATA     BYTE      PWM0_MOD_H
      000000E9H   SFRSYM    DATA     BYTE      IICBUFFER
      000000ADH   SFRSYM    DATA     BYTE      PWM0_MOD_L
      000000C0H.1 SFRSYM    DATA     BIT       UART0_F
      000000E8H   SFRSYM    DATA     BYTE      IICSTAT
      000000C8H.1 SFRSYM    DATA     BIT       UART1_F
      000000B8H   SFRSYM    DATA     BYTE      IPL0
      000000F6H   SFRSYM    DATA     BYTE      IPL1
      000000DDH   SFRSYM    DATA     BYTE      PU_PA
      000000AFH   SFRSYM    DATA     BYTE      SCAN_START
      000000F4H   SFRSYM    DATA     BYTE      IPL2
      000000DEH   SFRSYM    DATA     BYTE      PU_PB
      000000D7H   SFRSYM    DATA     BYTE      RST_STAT
      0000008EH   SFRSYM    DATA     BYTE      SOFT_RST
      000000DFH   SFRSYM    DATA     BYTE      PU_PC
      000000E2H   SFRSYM    DATA     BYTE      PU_PD
      000000D1H   SFRSYM    DATA     BYTE      PULL_I_SELA_L
      000000B6H   SFRSYM    DATA     BYTE      ADCCKC
      000000D0H.7 SFRSYM    DATA     BIT       CY
      00000086H   SFRSYM    DATA     BYTE      INT_POBO_STAT
      000000C0H.0 SFRSYM    DATA     BIT       UART0_P
LX51 LINKER/LOCATER V4.66.97.0                                                        05/09/2023  16:57:25  PAGE 121


      000000EEH   SFRSYM    DATA     BYTE      COM_IO_SEL
      000000C8H.0 SFRSYM    DATA     BIT       UART1_P
      000000E3H   SFRSYM    DATA     BYTE      IICADD
      000000BDH   SFRSYM    DATA     BYTE      UART0_BDL
      000000B4H   SFRSYM    DATA     BYTE      ADC_SPT
      000000C5H   SFRSYM    DATA     BYTE      UART1_BDL
      00000081H   SFRSYM    DATA     BYTE      SP
      000000D0H.2 SFRSYM    DATA     BIT       OV
      000000A3H   SFRSYM    DATA     BYTE      PWM0_CH_CTRL
      000000BBH   SFRSYM    DATA     BYTE      ADC_CFG1
      00000094H   SFRSYM    DATA     BYTE      TIMER2_SET_H
      000000C1H   SFRSYM    DATA     BYTE      UART0_BUF
      000000BCH   SFRSYM    DATA     BYTE      ADC_CFG2
      000000C9H   SFRSYM    DATA     BYTE      UART1_BUF
      000000F1H   SFRSYM    DATA     BYTE      IRCON1
      000000E1H   SFRSYM    DATA     BYTE      IRCON2
      00000095H   SFRSYM    DATA     BYTE      TIMER2_SET_L
      000000A5H   SFRSYM    DATA     BYTE      PWM0_CH0_CNT_H
      000000A7H   SFRSYM    DATA     BYTE      PWM0_CH1_CNT_H
      00000087H   SFRSYM    DATA     BYTE      PCON
      000000F9H   SFRSYM    DATA     BYTE      SPROG_ADDR_H
      000000B3H   SFRSYM    DATA     BYTE      LED_DRIVE
      000000AAH   SFRSYM    DATA     BYTE      PWM0_CH2_CNT_H
      000000EFH   SFRSYM    DATA     BYTE      ODRAIN_EN
      000000ACH   SFRSYM    DATA     BYTE      PWM0_CH3_CNT_H
      000000E4H   SFRSYM    DATA     BYTE      IICBUF
      000000A4H   SFRSYM    DATA     BYTE      PWM0_CH0_CNT_L
      000000A6H   SFRSYM    DATA     BYTE      PWM0_CH1_CNT_L
      00000089H   SFRSYM    DATA     BYTE      TMOD
      00000088H   SFRSYM    DATA     BYTE      TCON
      000000FAH   SFRSYM    DATA     BYTE      SPROG_ADDR_L
      000000A9H   SFRSYM    DATA     BYTE      PWM0_CH2_CNT_L
      000000E8H.0 SFRSYM    DATA     BIT       IIC_RECOV
      000000E5H   SFRSYM    DATA     BYTE      IICCON
      000000ABH   SFRSYM    DATA     BYTE      PWM0_CH3_CNT_L
      000000D9H   SFRSYM    DATA     BYTE      ADC_IO_SEL1
      000000DAH   SFRSYM    DATA     BYTE      ADC_IO_SEL2
      000000DBH   SFRSYM    DATA     BYTE      ADC_IO_SEL3
      000000E8H.4 SFRSYM    DATA     BIT       IIC_AD
      000000DCH   SFRSYM    DATA     BYTE      ADC_IO_SEL4
      000000E8H.3 SFRSYM    DATA     BIT       IIC_BF
      00000088H.1 SFRSYM    DATA     BIT       IE0
      00000088H.3 SFRSYM    DATA     BIT       IE1
      000000C4H   SFRSYM    DATA     BYTE      LED_IO_START
      000000F8H.0 SFRSYM    DATA     BIT       PA0
      000000F0H   SFRSYM    DATA     BYTE      B
      00000080H.0 SFRSYM    DATA     BIT       PB0
      000000F8H.1 SFRSYM    DATA     BIT       PA1
      000000FCH   SFRSYM    DATA     BYTE      SPROG_CMD
      00000090H.0 SFRSYM    DATA     BIT       PC0
      00000080H.1 SFRSYM    DATA     BIT       PB1
      00000098H.0 SFRSYM    DATA     BIT       PD0
      00000090H.1 SFRSYM    DATA     BIT       PC1
      00000080H.2 SFRSYM    DATA     BIT       PB2
      00000098H.1 SFRSYM    DATA     BIT       PD1
      00000090H.2 SFRSYM    DATA     BIT       PC2
      00000080H.3 SFRSYM    DATA     BIT       PB3
      000000FEH   SFRSYM    DATA     BYTE      PD_ANA
      000000E8H.7 SFRSYM    DATA     BIT       IIC_START
      00000098H.2 SFRSYM    DATA     BIT       PD2
      00000090H.3 SFRSYM    DATA     BIT       PC3
      00000080H.4 SFRSYM    DATA     BIT       PB4
      00000098H.3 SFRSYM    DATA     BIT       PD3
      00000090H.4 SFRSYM    DATA     BIT       PC4
      00000080H.5 SFRSYM    DATA     BIT       PB5
LX51 LINKER/LOCATER V4.66.97.0                                                        05/09/2023  16:57:25  PAGE 122


      000000E0H   SFRSYM    DATA     BYTE      ACC
      00000098H.4 SFRSYM    DATA     BIT       PD4
      00000090H.5 SFRSYM    DATA     BIT       PC5
      00000080H.6 SFRSYM    DATA     BIT       PB6
      000000A8H.1 SFRSYM    DATA     BIT       ET0
      00000098H.5 SFRSYM    DATA     BIT       PD5
      00000090H.6 SFRSYM    DATA     BIT       PC6
      00000080H.7 SFRSYM    DATA     BIT       PB7
      000000A8H.3 SFRSYM    DATA     BIT       ET1
      00000098H.6 SFRSYM    DATA     BIT       PD6
      00000090H.7 SFRSYM    DATA     BIT       PC7
      00000088H.5 SFRSYM    DATA     BIT       TF0
      000000C0H.3 SFRSYM    DATA     BIT       RI0
      00000098H.7 SFRSYM    DATA     BIT       PD7
      00000088H.7 SFRSYM    DATA     BIT       TF1
      000000CAH   SFRSYM    DATA     BYTE      CSD_START
      000000C8H.3 SFRSYM    DATA     BIT       RI1
      0000008CH   SFRSYM    DATA     BYTE      TH0
      000000C0H.4 SFRSYM    DATA     BIT       TI0
      000000A8H.0 SFRSYM    DATA     BIT       EX0
      000000C2H   SFRSYM    DATA     BYTE      UART_IO_CTRL
      0000008DH   SFRSYM    DATA     BYTE      TH1
      000000C8H.4 SFRSYM    DATA     BIT       TI1
      000000A8H.2 SFRSYM    DATA     BIT       EX1
      000000D0H.0 SFRSYM    DATA     BIT       P
      0000008AH   SFRSYM    DATA     BYTE      TL0
      000000C0H   SFRSYM    DATA     BYTE      UART0_STATE
      0000008BH   SFRSYM    DATA     BYTE      TL1
      000000C8H   SFRSYM    DATA     BYTE      UART1_STATE
      000000FFH   SFRSYM    DATA     BYTE      BOR_LVDT_VTH
      000000B8H.1 SFRSYM    DATA     BIT       PT0
      000000D0H.3 SFRSYM    DATA     BIT       RS0
      000000B8H.3 SFRSYM    DATA     BIT       PT1
      000000B0H   SFRSYM    DATA     BYTE      DP_CON
      000000D0H.4 SFRSYM    DATA     BIT       RS1
      00000088H.4 SFRSYM    DATA     BIT       TR0
      00000088H.6 SFRSYM    DATA     BIT       TR1
      000000D2H   SFRSYM    DATA     BYTE      SNS_ANA_CFG
      000000C0H.6 SFRSYM    DATA     BIT       UART0_R8
      000000B8H.0 SFRSYM    DATA     BIT       PX0
      000000FDH   SFRSYM    DATA     BYTE      SPROG_TIM
      000000C8H.6 SFRSYM    DATA     BIT       UART1_R8
      000000B8H.2 SFRSYM    DATA     BIT       PX1
      000000C0H.5 SFRSYM    DATA     BIT       UART0_T8
      00000097H   SFRSYM    DATA     BYTE      REG_DATA
      000000C8H.5 SFRSYM    DATA     BIT       UART1_T8
      00000096H   SFRSYM    DATA     BYTE      REG_ADDR
      000000F8H   SFRSYM    DATA     BYTE      DATAA
      00000083H   SFRSYM    DATA     BYTE      DPH
      00000080H   SFRSYM    DATA     BYTE      DATAB
      000000CBH   SFRSYM    DATA     BYTE      SNS_SCAN_CFG1
      00000090H   SFRSYM    DATA     BYTE      DATAC
      000000E8H.5 SFRSYM    DATA     BIT       IIC_RW
      000000CCH   SFRSYM    DATA     BYTE      SNS_SCAN_CFG2
      000000B9H   SFRSYM    DATA     BYTE      ADC_RDATAH
      00000098H   SFRSYM    DATA     BYTE      DATAD
      000000CDH   SFRSYM    DATA     BYTE      SNS_SCAN_CFG3
      000000BEH   SFRSYM    DATA     BYTE      UART0_CON1
      00000082H   SFRSYM    DATA     BYTE      DPL
      000000C6H   SFRSYM    DATA     BYTE      UART1_CON1
      000000BFH   SFRSYM    DATA     BYTE      UART0_CON2
      000000C7H   SFRSYM    DATA     BYTE      UART1_CON2
      000000BAH   SFRSYM    DATA     BYTE      ADC_RDATAL
      00000092H   SFRSYM    DATA     BYTE      WDT_EN
      000000D3H   SFRSYM    DATA     BYTE      SNS_IO_SEL1
LX51 LINKER/LOCATER V4.66.97.0                                                        05/09/2023  16:57:25  PAGE 123


      000000D4H   SFRSYM    DATA     BYTE      SNS_IO_SEL2
      000000D5H   SFRSYM    DATA     BYTE      SNS_IO_SEL3
      00000093H   SFRSYM    DATA     BYTE      TIMER2_CFG
      000000D6H   SFRSYM    DATA     BYTE      SNS_IO_SEL4
      000000A2H   SFRSYM    DATA     BYTE      PWM_EN
      000000B2H   SFRSYM    DATA     BYTE      LED2_WIDTH
      000000E8H.1 SFRSYM    DATA     BIT       IIC_WCOL
      00000084H   SFRSYM    DATA     BYTE      SYS_CLK_CFG
      000000C0H.2 SFRSYM    DATA     BIT       UART0_RO
      000000C8H.2 SFRSYM    DATA     BIT       UART1_RO
      000000D0H.5 SFRSYM    DATA     BIT       F0
      000000D0H.1 SFRSYM    DATA     BIT       F1
      0000009CH   SFRSYM    DATA     BYTE      PWM1_H_H
      000000A1H   SFRSYM    DATA     BYTE      PWM2_H_H
      000000D0H   SFRSYM    DATA     BYTE      PSW
      0000009BH   SFRSYM    DATA     BYTE      PWM1_H_L
      0000009AH   SFRSYM    DATA     BYTE      PWM1_L_H
      0000009FH   SFRSYM    DATA     BYTE      PWM2_H_L
      0000009EH   SFRSYM    DATA     BYTE      PWM2_L_H
      000000E8H.6 SFRSYM    DATA     BIT       IIC_STOP

      ---         MODULE    ---      ---       WORK_DEAL
      00000022H.2 PUBLIC    BIT      BIT       f_high_time
      00000022H.1 PUBLIC    BIT      BIT       f_sys_on_2
      00000022H.0 PUBLIC    BIT      BIT       f_delay_kkg
      00000021H.7 PUBLIC    BIT      BIT       f_sys_on_1
      020000E2H   PUBLIC    XDATA    BYTE      b_delay_kkg
      00000021H.6 PUBLIC    BIT      BIT       f_NO_jiangdang
      020000E1H   PUBLIC    XDATA    BYTE      b_mode
      020000E0H   PUBLIC    XDATA    BYTE      b_baowen_min
      020000DFH   PUBLIC    XDATA    BYTE      gb_kkg
      020000DDH   PUBLIC    XDATA    WORD      b_out_ctrl2
      020000DCH   PUBLIC    XDATA    BYTE      b_yuyue_run_cnt
      020000DBH   PUBLIC    XDATA    BYTE      b_baowen_hour
      020000DAH   PUBLIC    XDATA    BYTE      b_high_level
      020000D9H   PUBLIC    XDATA    BYTE      b_baowen_sec
      00000021H.5 PUBLIC    BIT      BIT       f_mjs_dingshi
      00000016H   PUBLIC    DATA     BYTE      f_out_out
      020000D8H   PUBLIC    XDATA    BYTE      b_mjs_set_sec
      020000D7H   PUBLIC    XDATA    BYTE      b_dingshi_min
      020000D6H   PUBLIC    XDATA    BYTE      b_ctrl_cnt2
      020000D5H   PUBLIC    XDATA    BYTE      b_ctrl_cnt1
      020000D4H   PUBLIC    XDATA    BYTE      b_test_out_time
      020000D3H   PUBLIC    XDATA    BYTE      b_dingshi_hour
      020000D2H   PUBLIC    XDATA    BYTE      b_dingshi_sec
      00000021H.4 PUBLIC    BIT      BIT       f_sys_power_2
      00000021H.3 PUBLIC    BIT      BIT       f_sys_power_1
      020000D1H   PUBLIC    XDATA    BYTE      b_grade
      00000021H.2 PUBLIC    BIT      BIT       f_mjs_set
      00000021H.1 PUBLIC    BIT      BIT       f_jdq3
      00000021H.0 PUBLIC    BIT      BIT       f_jdq2
      00000020H.7 PUBLIC    BIT      BIT       f_mjs_yuyue
      020000CFH   PUBLIC    XDATA    WORD      b_out_ctrl
      00000020H.6 PUBLIC    BIT      BIT       f_relay_change
      020000CEH   PUBLIC    XDATA    BYTE      b_zeor_pre
      020000CDH   PUBLIC    XDATA    BYTE      b_yuyue_min
      00000020H.5 PUBLIC    BIT      BIT       f_mjs_down
      0000000DH   PUBLIC    DATA     ---       tab_huo_guo_9
      020000CCH   PUBLIC    XDATA    BYTE      b_ctrl_sec_3
      020000CAH   PUBLIC    XDATA    WORD      b_ctrl_sec_2
      00000008H   PUBLIC    DATA     ---       tab_huo_guo_5
      020000C9H   PUBLIC    XDATA    BYTE      b_ctrl_sec_1
      020000C8H   PUBLIC    XDATA    BYTE      b_yuyue_hour
      020000C7H   PUBLIC    XDATA    BYTE      b_wendu_ok
      020000C6H   PUBLIC    XDATA    BYTE      b_yuyue_sec
LX51 LINKER/LOCATER V4.66.97.0                                                        05/09/2023  16:57:25  PAGE 124


      00000020H.4 PUBLIC    BIT      BIT       f_mjs_power
      020000C5H   PUBLIC    XDATA    BYTE      b_ctrl_cnt
      020000C4H   PUBLIC    XDATA    BYTE      b_kkg_buf
      00000020H.3 PUBLIC    BIT      BIT       f_dingshi_begin
      020000C3H   PUBLIC    XDATA    BYTE      b_set_wendu
      020000C2H   PUBLIC    XDATA    BYTE      b_wendu_min
      020000C1H   PUBLIC    XDATA    BYTE      b_kkg_count
      020000C0H   PUBLIC    XDATA    BYTE      b_test_mode
      00000020H.2 PUBLIC    BIT      BIT       f_test
      00000020H.1 PUBLIC    BIT      BIT       f_power_power
      00000020H.0 PUBLIC    BIT      BIT       f_jdq
      020000BFH   PUBLIC    XDATA    BYTE      b_test
      020000BEH   PUBLIC    XDATA    BYTE      b_ctrl_status
      01001B5AH   PUBLIC    CODE     ---       zhu_mode_bb
      01002D90H   PUBLIC    CODE     ---       zhu_mode_niupai
      01002C2FH   PUBLIC    CODE     ---       zhu_mode_mandun
      01002BD2H   PUBLIC    CODE     ---       zhu_mode_qingzheng
      01003018H   PUBLIC    CODE     ---       zhu_mode_dunzhu
      0100167AH   PUBLIC    CODE     ---       zhu_mode_chao_SP
      01002EC3H   PUBLIC    CODE     ---       zhu_mode_chao
      01002825H   PUBLIC    CODE     ---       kkg_work_api
      01003381H   PUBLIC    CODE     ---       relay_deal
      01003308H   PUBLIC    CODE     ---       action_work
      0100336EH   PUBLIC    CODE     ---       quit_work
      01003144H   PUBLIC    CODE     ---       next_step
      01000003H   PUBLIC    CODE     ---       shutdown_power
      01002FF4H   PUBLIC    CODE     ---       _intermittent
      010013AEH   PUBLIC    CODE     ---       work_deal
      000000C3H   SFRSYM    DATA     BYTE      UART_IO_CTRL1
      00000099H   SFRSYM    DATA     BYTE      PWM1_L_L
      000000F7H   SFRSYM    DATA     BYTE      EXT_INT_CON
      0000009DH   SFRSYM    DATA     BYTE      PWM2_L_L
      00000085H   SFRSYM    DATA     BYTE      INT_PE_STAT
      000000B5H   SFRSYM    DATA     BYTE      ADC_SCAN_CFG
      000000A0H   SFRSYM    DATA     BYTE      P2_XH
      000000D0H.6 SFRSYM    DATA     BIT       AC
      000000EAH   SFRSYM    DATA     BYTE      TRISA
      000000E8H.2 SFRSYM    DATA     BIT       IIC_ACK
      000000A8H.7 SFRSYM    DATA     BIT       EA
      000000EBH   SFRSYM    DATA     BYTE      TRISB
      000000ECH   SFRSYM    DATA     BYTE      TRISC
      000000D8H   SFRSYM    DATA     BYTE      PD_PB
      00000091H   SFRSYM    DATA     BYTE      WDT_CTRL
      000000EDH   SFRSYM    DATA     BYTE      TRISD
      000000FBH   SFRSYM    DATA     BYTE      SPROG_DATA
      000000F2H   SFRSYM    DATA     BYTE      PERIPH_IO_SEL
      000000B1H   SFRSYM    DATA     BYTE      SCAN_WIDTH
      000000CFH   SFRSYM    DATA     BYTE      CSD_RAWDATAH
      000000A8H   SFRSYM    DATA     BYTE      IEN0
      000000E6H   SFRSYM    DATA     BYTE      IEN1
      000000E7H   SFRSYM    DATA     BYTE      IEN2
      000000CEH   SFRSYM    DATA     BYTE      CSD_RAWDATAL
      000000AEH   SFRSYM    DATA     BYTE      PWM0_MOD_H
      000000E9H   SFRSYM    DATA     BYTE      IICBUFFER
      000000ADH   SFRSYM    DATA     BYTE      PWM0_MOD_L
      000000C0H.1 SFRSYM    DATA     BIT       UART0_F
      000000E8H   SFRSYM    DATA     BYTE      IICSTAT
      000000C8H.1 SFRSYM    DATA     BIT       UART1_F
      000000B8H   SFRSYM    DATA     BYTE      IPL0
      000000F6H   SFRSYM    DATA     BYTE      IPL1
      000000DDH   SFRSYM    DATA     BYTE      PU_PA
      000000AFH   SFRSYM    DATA     BYTE      SCAN_START
      000000F4H   SFRSYM    DATA     BYTE      IPL2
      000000DEH   SFRSYM    DATA     BYTE      PU_PB
      000000D7H   SFRSYM    DATA     BYTE      RST_STAT
LX51 LINKER/LOCATER V4.66.97.0                                                        05/09/2023  16:57:25  PAGE 125


      0000008EH   SFRSYM    DATA     BYTE      SOFT_RST
      000000DFH   SFRSYM    DATA     BYTE      PU_PC
      000000E2H   SFRSYM    DATA     BYTE      PU_PD
      000000D1H   SFRSYM    DATA     BYTE      PULL_I_SELA_L
      000000B6H   SFRSYM    DATA     BYTE      ADCCKC
      000000D0H.7 SFRSYM    DATA     BIT       CY
      00000086H   SFRSYM    DATA     BYTE      INT_POBO_STAT
      000000C0H.0 SFRSYM    DATA     BIT       UART0_P
      000000EEH   SFRSYM    DATA     BYTE      COM_IO_SEL
      000000C8H.0 SFRSYM    DATA     BIT       UART1_P
      000000E3H   SFRSYM    DATA     BYTE      IICADD
      000000BDH   SFRSYM    DATA     BYTE      UART0_BDL
      000000B4H   SFRSYM    DATA     BYTE      ADC_SPT
      000000C5H   SFRSYM    DATA     BYTE      UART1_BDL
      00000081H   SFRSYM    DATA     BYTE      SP
      000000D0H.2 SFRSYM    DATA     BIT       OV
      000000A3H   SFRSYM    DATA     BYTE      PWM0_CH_CTRL
      000000BBH   SFRSYM    DATA     BYTE      ADC_CFG1
      00000094H   SFRSYM    DATA     BYTE      TIMER2_SET_H
      000000C1H   SFRSYM    DATA     BYTE      UART0_BUF
      000000BCH   SFRSYM    DATA     BYTE      ADC_CFG2
      000000C9H   SFRSYM    DATA     BYTE      UART1_BUF
      000000F1H   SFRSYM    DATA     BYTE      IRCON1
      000000E1H   SFRSYM    DATA     BYTE      IRCON2
      00000095H   SFRSYM    DATA     BYTE      TIMER2_SET_L
      000000A5H   SFRSYM    DATA     BYTE      PWM0_CH0_CNT_H
      000000A7H   SFRSYM    DATA     BYTE      PWM0_CH1_CNT_H
      00000087H   SFRSYM    DATA     BYTE      PCON
      000000F9H   SFRSYM    DATA     BYTE      SPROG_ADDR_H
      000000B3H   SFRSYM    DATA     BYTE      LED_DRIVE
      000000AAH   SFRSYM    DATA     BYTE      PWM0_CH2_CNT_H
      000000EFH   SFRSYM    DATA     BYTE      ODRAIN_EN
      000000ACH   SFRSYM    DATA     BYTE      PWM0_CH3_CNT_H
      000000E4H   SFRSYM    DATA     BYTE      IICBUF
      000000A4H   SFRSYM    DATA     BYTE      PWM0_CH0_CNT_L
      000000A6H   SFRSYM    DATA     BYTE      PWM0_CH1_CNT_L
      00000089H   SFRSYM    DATA     BYTE      TMOD
      00000088H   SFRSYM    DATA     BYTE      TCON
      000000FAH   SFRSYM    DATA     BYTE      SPROG_ADDR_L
      000000A9H   SFRSYM    DATA     BYTE      PWM0_CH2_CNT_L
      000000E8H.0 SFRSYM    DATA     BIT       IIC_RECOV
      000000E5H   SFRSYM    DATA     BYTE      IICCON
      000000ABH   SFRSYM    DATA     BYTE      PWM0_CH3_CNT_L
      000000D9H   SFRSYM    DATA     BYTE      ADC_IO_SEL1
      000000DAH   SFRSYM    DATA     BYTE      ADC_IO_SEL2
      000000DBH   SFRSYM    DATA     BYTE      ADC_IO_SEL3
      000000E8H.4 SFRSYM    DATA     BIT       IIC_AD
      000000DCH   SFRSYM    DATA     BYTE      ADC_IO_SEL4
      000000E8H.3 SFRSYM    DATA     BIT       IIC_BF
      00000088H.1 SFRSYM    DATA     BIT       IE0
      00000088H.3 SFRSYM    DATA     BIT       IE1
      000000C4H   SFRSYM    DATA     BYTE      LED_IO_START
      000000F8H.0 SFRSYM    DATA     BIT       PA0
      000000F0H   SFRSYM    DATA     BYTE      B
      00000080H.0 SFRSYM    DATA     BIT       PB0
      000000F8H.1 SFRSYM    DATA     BIT       PA1
      000000FCH   SFRSYM    DATA     BYTE      SPROG_CMD
      00000090H.0 SFRSYM    DATA     BIT       PC0
      00000080H.1 SFRSYM    DATA     BIT       PB1
      00000098H.0 SFRSYM    DATA     BIT       PD0
      00000090H.1 SFRSYM    DATA     BIT       PC1
      00000080H.2 SFRSYM    DATA     BIT       PB2
      00000098H.1 SFRSYM    DATA     BIT       PD1
      00000090H.2 SFRSYM    DATA     BIT       PC2
      00000080H.3 SFRSYM    DATA     BIT       PB3
LX51 LINKER/LOCATER V4.66.97.0                                                        05/09/2023  16:57:25  PAGE 126


      000000FEH   SFRSYM    DATA     BYTE      PD_ANA
      000000E8H.7 SFRSYM    DATA     BIT       IIC_START
      00000098H.2 SFRSYM    DATA     BIT       PD2
      00000090H.3 SFRSYM    DATA     BIT       PC3
      00000080H.4 SFRSYM    DATA     BIT       PB4
      00000098H.3 SFRSYM    DATA     BIT       PD3
      00000090H.4 SFRSYM    DATA     BIT       PC4
      00000080H.5 SFRSYM    DATA     BIT       PB5
      000000E0H   SFRSYM    DATA     BYTE      ACC
      00000098H.4 SFRSYM    DATA     BIT       PD4
      00000090H.5 SFRSYM    DATA     BIT       PC5
      00000080H.6 SFRSYM    DATA     BIT       PB6
      000000A8H.1 SFRSYM    DATA     BIT       ET0
      00000098H.5 SFRSYM    DATA     BIT       PD5
      00000090H.6 SFRSYM    DATA     BIT       PC6
      00000080H.7 SFRSYM    DATA     BIT       PB7
      000000A8H.3 SFRSYM    DATA     BIT       ET1
      00000098H.6 SFRSYM    DATA     BIT       PD6
      00000090H.7 SFRSYM    DATA     BIT       PC7
      00000088H.5 SFRSYM    DATA     BIT       TF0
      000000C0H.3 SFRSYM    DATA     BIT       RI0
      00000098H.7 SFRSYM    DATA     BIT       PD7
      00000088H.7 SFRSYM    DATA     BIT       TF1
      000000CAH   SFRSYM    DATA     BYTE      CSD_START
      000000C8H.3 SFRSYM    DATA     BIT       RI1
      0000008CH   SFRSYM    DATA     BYTE      TH0
      000000C0H.4 SFRSYM    DATA     BIT       TI0
      000000A8H.0 SFRSYM    DATA     BIT       EX0
      000000C2H   SFRSYM    DATA     BYTE      UART_IO_CTRL
      0000008DH   SFRSYM    DATA     BYTE      TH1
      000000C8H.4 SFRSYM    DATA     BIT       TI1
      000000A8H.2 SFRSYM    DATA     BIT       EX1
      000000D0H.0 SFRSYM    DATA     BIT       P
      0000008AH   SFRSYM    DATA     BYTE      TL0
      000000C0H   SFRSYM    DATA     BYTE      UART0_STATE
      0000008BH   SFRSYM    DATA     BYTE      TL1
      000000C8H   SFRSYM    DATA     BYTE      UART1_STATE
      000000FFH   SFRSYM    DATA     BYTE      BOR_LVDT_VTH
      000000B8H.1 SFRSYM    DATA     BIT       PT0
      000000D0H.3 SFRSYM    DATA     BIT       RS0
      000000B8H.3 SFRSYM    DATA     BIT       PT1
      000000B0H   SFRSYM    DATA     BYTE      DP_CON
      000000D0H.4 SFRSYM    DATA     BIT       RS1
      00000088H.4 SFRSYM    DATA     BIT       TR0
      00000088H.6 SFRSYM    DATA     BIT       TR1
      000000D2H   SFRSYM    DATA     BYTE      SNS_ANA_CFG
      000000C0H.6 SFRSYM    DATA     BIT       UART0_R8
      000000B8H.0 SFRSYM    DATA     BIT       PX0
      000000FDH   SFRSYM    DATA     BYTE      SPROG_TIM
      000000C8H.6 SFRSYM    DATA     BIT       UART1_R8
      000000B8H.2 SFRSYM    DATA     BIT       PX1
      000000C0H.5 SFRSYM    DATA     BIT       UART0_T8
      00000097H   SFRSYM    DATA     BYTE      REG_DATA
      000000C8H.5 SFRSYM    DATA     BIT       UART1_T8
      00000096H   SFRSYM    DATA     BYTE      REG_ADDR
      000000F8H   SFRSYM    DATA     BYTE      DATAA
      00000083H   SFRSYM    DATA     BYTE      DPH
      00000080H   SFRSYM    DATA     BYTE      DATAB
      000000CBH   SFRSYM    DATA     BYTE      SNS_SCAN_CFG1
      00000090H   SFRSYM    DATA     BYTE      DATAC
      000000E8H.5 SFRSYM    DATA     BIT       IIC_RW
      000000CCH   SFRSYM    DATA     BYTE      SNS_SCAN_CFG2
      000000B9H   SFRSYM    DATA     BYTE      ADC_RDATAH
      00000098H   SFRSYM    DATA     BYTE      DATAD
      000000CDH   SFRSYM    DATA     BYTE      SNS_SCAN_CFG3
LX51 LINKER/LOCATER V4.66.97.0                                                        05/09/2023  16:57:25  PAGE 127


      000000BEH   SFRSYM    DATA     BYTE      UART0_CON1
      00000082H   SFRSYM    DATA     BYTE      DPL
      000000C6H   SFRSYM    DATA     BYTE      UART1_CON1
      000000BFH   SFRSYM    DATA     BYTE      UART0_CON2
      000000C7H   SFRSYM    DATA     BYTE      UART1_CON2
      000000BAH   SFRSYM    DATA     BYTE      ADC_RDATAL
      00000092H   SFRSYM    DATA     BYTE      WDT_EN
      000000D3H   SFRSYM    DATA     BYTE      SNS_IO_SEL1
      000000D4H   SFRSYM    DATA     BYTE      SNS_IO_SEL2
      000000D5H   SFRSYM    DATA     BYTE      SNS_IO_SEL3
      00000093H   SFRSYM    DATA     BYTE      TIMER2_CFG
      000000D6H   SFRSYM    DATA     BYTE      SNS_IO_SEL4
      000000A2H   SFRSYM    DATA     BYTE      PWM_EN
      000000B2H   SFRSYM    DATA     BYTE      LED2_WIDTH
      000000E8H.1 SFRSYM    DATA     BIT       IIC_WCOL
      00000084H   SFRSYM    DATA     BYTE      SYS_CLK_CFG
      000000C0H.2 SFRSYM    DATA     BIT       UART0_RO
      000000C8H.2 SFRSYM    DATA     BIT       UART1_RO
      000000D0H.5 SFRSYM    DATA     BIT       F0
      000000D0H.1 SFRSYM    DATA     BIT       F1
      0000009CH   SFRSYM    DATA     BYTE      PWM1_H_H
      000000A1H   SFRSYM    DATA     BYTE      PWM2_H_H
      000000D0H   SFRSYM    DATA     BYTE      PSW
      0000009BH   SFRSYM    DATA     BYTE      PWM1_H_L
      0000009AH   SFRSYM    DATA     BYTE      PWM1_L_H
      0000009FH   SFRSYM    DATA     BYTE      PWM2_H_L
      0000009EH   SFRSYM    DATA     BYTE      PWM2_L_H
      000000E8H.6 SFRSYM    DATA     BIT       IIC_STOP

      010013AEH   BLOCK     CODE     ---       LVL=0
      010013AEH   BLOCK     CODE     NEAR LAB  LVL=1
      00000027H   SYMBOL    DATA     BYTE      b_jdq_buf_1
      ---         BLOCKEND  ---      ---       LVL=1
      010013AEH   LINE      CODE     ---       #172
      010013AEH   LINE      CODE     ---       #173
      010013AEH   LINE      CODE     ---       #175
      010013B1H   LINE      CODE     ---       #176
      010013B3H   LINE      CODE     ---       #177
      010013B7H   LINE      CODE     ---       #180
      010013BFH   LINE      CODE     ---       #181
      010013C4H   LINE      CODE     ---       #187
      010013D0H   LINE      CODE     ---       #188
      010013D0H   LINE      CODE     ---       #189
      010013D5H   LINE      CODE     ---       #191
      010013D5H   LINE      CODE     ---       #194
      010013D8H   LINE      CODE     ---       #195
      010013DAH   LINE      CODE     ---       #198
      010013E0H   LINE      CODE     ---       #199
      010013E5H   LINE      CODE     ---       #204
      010013F1H   LINE      CODE     ---       #205
      010013F6H   LINE      CODE     ---       #207
      010013FFH   LINE      CODE     ---       #208
      010013FFH   LINE      CODE     ---       #209
      01001404H   LINE      CODE     ---       #210
      01001408H   LINE      CODE     ---       #211
      0100140CH   LINE      CODE     ---       #212
      0100140CH   LINE      CODE     ---       #216
      01001413H   LINE      CODE     ---       #217
      01001413H   LINE      CODE     ---       #219
      01001416H   LINE      CODE     ---       #220
      01001416H   LINE      CODE     ---       #221
      01001423H   LINE      CODE     ---       #222
      01001423H   LINE      CODE     ---       #223
      01001426H   LINE      CODE     ---       #224
      01001426H   LINE      CODE     ---       #225
LX51 LINKER/LOCATER V4.66.97.0                                                        05/09/2023  16:57:25  PAGE 128


      01001429H   LINE      CODE     ---       #226
      0100142CH   LINE      CODE     ---       #227
      0100142EH   LINE      CODE     ---       #229
      01001431H   LINE      CODE     ---       #231
      01001431H   LINE      CODE     ---       #232
      01001431H   LINE      CODE     ---       #236
      01001434H   LINE      CODE     ---       #237
      01001434H   LINE      CODE     ---       #238
      01001437H   LINE      CODE     ---       #239
      01001437H   LINE      CODE     ---       #246
      01001443H   LINE      CODE     ---       #248
      01001443H   LINE      CODE     ---       #249
      01001445H   LINE      CODE     ---       #250
      01001447H   LINE      CODE     ---       #251
      01001449H   LINE      CODE     ---       #253
      0100144BH   LINE      CODE     ---       #255
      0100144EH   LINE      CODE     ---       #256
      01001453H   LINE      CODE     ---       #257
      01001458H   LINE      CODE     ---       #258
      01001458H   LINE      CODE     ---       #259
      01001458H   LINE      CODE     ---       #260
      01001458H   LINE      CODE     ---       #263
      0100145EH   LINE      CODE     ---       #264
      0100145EH   LINE      CODE     ---       #265
      01001461H   LINE      CODE     ---       #266
      01001461H   LINE      CODE     ---       #267
      01001475H   LINE      CODE     ---       #268
      01001475H   LINE      CODE     ---       #270
      01001478H   LINE      CODE     ---       #272
      0100147DH   LINE      CODE     ---       #274
      01001495H   LINE      CODE     ---       #275
      01001495H   LINE      CODE     ---       #276
      01001497H   LINE      CODE     ---       #277
      01001499H   LINE      CODE     ---       #278
      0100149BH   LINE      CODE     ---       #280
      010014A1H   LINE      CODE     ---       #282
      010014A7H   LINE      CODE     ---       #285
      010014ADH   LINE      CODE     ---       #286
      010014B2H   LINE      CODE     ---       #287
      010014B6H   LINE      CODE     ---       #298
      010014B9H   LINE      CODE     ---       #299
      010014BEH   LINE      CODE     ---       #300
      010014BEH   LINE      CODE     ---       #301
      010014BEH   LINE      CODE     ---       #303
      010014BEH   LINE      CODE     ---       #304
      010014BEH   LINE      CODE     ---       #308
      010014C1H   LINE      CODE     ---       #309
      010014C1H   LINE      CODE     ---       #310
      010014F0H   LINE      CODE     ---       #311
      010014F0H   LINE      CODE     ---       #312
      010014F0H   LINE      CODE     ---       #313
      010014F3H   LINE      CODE     ---       #314
      010014F5H   LINE      CODE     ---       #315
      010014F5H   LINE      CODE     ---       #316
      010014F8H   LINE      CODE     ---       #317
      010014FAH   LINE      CODE     ---       #318
      010014FAH   LINE      CODE     ---       #320
      010014FDH   LINE      CODE     ---       #321
      010014FFH   LINE      CODE     ---       #322
      010014FFH   LINE      CODE     ---       #323
      01001502H   LINE      CODE     ---       #324
      01001504H   LINE      CODE     ---       #325
      01001504H   LINE      CODE     ---       #327
      01001507H   LINE      CODE     ---       #328
      01001509H   LINE      CODE     ---       #329
LX51 LINKER/LOCATER V4.66.97.0                                                        05/09/2023  16:57:25  PAGE 129


      01001509H   LINE      CODE     ---       #330
      0100150CH   LINE      CODE     ---       #331
      0100150EH   LINE      CODE     ---       #333
      0100150EH   LINE      CODE     ---       #334
      0100150EH   LINE      CODE     ---       #335
      01001511H   LINE      CODE     ---       #336
      01001513H   LINE      CODE     ---       #337
      01001513H   LINE      CODE     ---       #338
      01001513H   LINE      CODE     ---       #339
      01001516H   LINE      CODE     ---       #340
      01001516H   LINE      CODE     ---       #341
      01001516H   LINE      CODE     ---       #342
      01001516H   LINE      CODE     ---       #346
      01001521H   LINE      CODE     ---       #347
      01001521H   LINE      CODE     ---       #348
      01001523H   LINE      CODE     ---       #349
      01001528H   LINE      CODE     ---       #350
      01001528H   LINE      CODE     ---       #355
      01001528H   LINE      CODE     ---       #373
      01001530H   LINE      CODE     ---       #378
      ---         BLOCKEND  ---      ---       LVL=0
      00000007H   SYMBOL    DATA     BYTE      heat1
      00000003H   SYMBOL    DATA     BYTE      tmp1
      00000006H   SYMBOL    DATA     BYTE      b_temp1
      00000005H   SYMBOL    DATA     BYTE      b_temp2
      00000007H   SYMBOL    DATA     BYTE      b_para
      00000007H   SYMBOL    DATA     BYTE      b_parameter

      01002FE9H   BLOCK     CODE     ---       LVL=0
      ---         BLOCKEND  ---      ---       LVL=0

      01002FF4H   BLOCK     CODE     ---       LVL=0
      00000006H   SYMBOL    DATA     WORD      b_on
      00000004H   SYMBOL    DATA     WORD      b_all
      01002FF4H   LINE      CODE     ---       #477
      01002FF4H   LINE      CODE     ---       #478
      01002FF4H   LINE      CODE     ---       #479
      01003001H   LINE      CODE     ---       #480
      01003005H   LINE      CODE     ---       #481
      01003012H   LINE      CODE     ---       #482
      01003015H   LINE      CODE     ---       #484
      01003017H   LINE      CODE     ---       #485
      ---         BLOCKEND  ---      ---       LVL=0

      01000003H   BLOCK     CODE     ---       LVL=0
      01000003H   LINE      CODE     ---       #495
      01000003H   LINE      CODE     ---       #496
      01000003H   LINE      CODE     ---       #498
      01000008H   LINE      CODE     ---       #499
      ---         BLOCKEND  ---      ---       LVL=0

      01003144H   BLOCK     CODE     ---       LVL=0
      01003144H   LINE      CODE     ---       #509
      01003144H   LINE      CODE     ---       #510
      01003144H   LINE      CODE     ---       #511
      01003146H   LINE      CODE     ---       #512
      0100314BH   LINE      CODE     ---       #513
      0100314FH   LINE      CODE     ---       #514
      01003151H   LINE      CODE     ---       #516
      01003155H   LINE      CODE     ---       #517
      01003159H   LINE      CODE     ---       #518
      0100315BH   LINE      CODE     ---       #520
      01003161H   LINE      CODE     ---       #521
      01003167H   LINE      CODE     ---       #527
      ---         BLOCKEND  ---      ---       LVL=0
LX51 LINKER/LOCATER V4.66.97.0                                                        05/09/2023  16:57:25  PAGE 130



      0100336EH   BLOCK     CODE     ---       LVL=0
      0100336EH   LINE      CODE     ---       #536
      0100336EH   LINE      CODE     ---       #537
      0100336EH   LINE      CODE     ---       #539
      01003370H   LINE      CODE     ---       #540
      01003372H   LINE      CODE     ---       #543
      01003374H   LINE      CODE     ---       #544
      01003376H   LINE      CODE     ---       #545
      01003378H   LINE      CODE     ---       #546
      0100337AH   LINE      CODE     ---       #547
      0100337CH   LINE      CODE     ---       #549
      0100337EH   LINE      CODE     ---       #551
      01003380H   LINE      CODE     ---       #552
      ---         BLOCKEND  ---      ---       LVL=0

      01003308H   BLOCK     CODE     ---       LVL=0
      01003308H   LINE      CODE     ---       #560
      01003308H   LINE      CODE     ---       #561
      01003308H   LINE      CODE     ---       #563
      0100330AH   LINE      CODE     ---       #565
      01003310H   LINE      CODE     ---       #571
      01003313H   LINE      CODE     ---       #572
      01003313H   LINE      CODE     ---       #573
      01003316H   LINE      CODE     ---       #574
      01003318H   LINE      CODE     ---       #575
      0100331DH   LINE      CODE     ---       #576
      0100331DH   LINE      CODE     ---       #577
      ---         BLOCKEND  ---      ---       LVL=0

      01003381H   BLOCK     CODE     ---       LVL=0
      01003381H   LINE      CODE     ---       #588
      01003381H   LINE      CODE     ---       #589
      01003381H   LINE      CODE     ---       #590
      01003384H   LINE      CODE     ---       #591
      01003384H   LINE      CODE     ---       #592
      01003386H   LINE      CODE     ---       #594
      01003389H   LINE      CODE     ---       #595
      01003389H   LINE      CODE     ---       #596
      0100338BH   LINE      CODE     ---       #597
      0100338BH   LINE      CODE     ---       #606
      0100338CH   LINE      CODE     ---       #608
      0100338CH   LINE      CODE     ---       #609
      0100338EH   LINE      CODE     ---       #611
      01003391H   LINE      CODE     ---       #612
      01003391H   LINE      CODE     ---       #613
      01003393H   LINE      CODE     ---       #614
      01003393H   LINE      CODE     ---       #623
      01003393H   LINE      CODE     ---       #624
      ---         BLOCKEND  ---      ---       LVL=0

      01002825H   BLOCK     CODE     ---       LVL=0
      01002825H   LINE      CODE     ---       #630
      01002825H   LINE      CODE     ---       #631
      01002825H   LINE      CODE     ---       #632
      01002832H   LINE      CODE     ---       #633
      01002832H   LINE      CODE     ---       #635
      01002839H   LINE      CODE     ---       #636
      01002839H   LINE      CODE     ---       #638
      0100283EH   LINE      CODE     ---       #639
      01002845H   LINE      CODE     ---       #640
      0100284AH   LINE      CODE     ---       #641
      0100284CH   LINE      CODE     ---       #644
      01002859H   LINE      CODE     ---       #645
      0100285DH   LINE      CODE     ---       #647
LX51 LINKER/LOCATER V4.66.97.0                                                        05/09/2023  16:57:25  PAGE 131


      0100285FH   LINE      CODE     ---       #648
      01002864H   LINE      CODE     ---       #651
      0100286AH   LINE      CODE     ---       #652
      01002874H   LINE      CODE     ---       #653
      01002876H   LINE      CODE     ---       #656
      01002876H   LINE      CODE     ---       #658
      01002876H   LINE      CODE     ---       #663
      01002876H   LINE      CODE     ---       #664
      01002876H   LINE      CODE     ---       #666
      01002876H   LINE      CODE     ---       #671
      01002876H   LINE      CODE     ---       #673
      01002885H   LINE      CODE     ---       #674
      01002885H   LINE      CODE     ---       #676
      01002885H   LINE      CODE     ---       #677
      01002885H   LINE      CODE     ---       #682
      01002885H   LINE      CODE     ---       #687
      01002887H   LINE      CODE     ---       #688
      01002889H   LINE      CODE     ---       #690
      0100288AH   LINE      CODE     ---       #692
      0100288AH   LINE      CODE     ---       #695
      0100288DH   LINE      CODE     ---       #696
      0100288DH   LINE      CODE     ---       #700
      0100288FH   LINE      CODE     ---       #703
      0100289CH   LINE      CODE     ---       #704
      0100289CH   LINE      CODE     ---       #708
      0100289EH   LINE      CODE     ---       #710
      010028A0H   LINE      CODE     ---       #711
      010028A0H   LINE      CODE     ---       #712
      010028A6H   LINE      CODE     ---       #713
      010028A7H   LINE      CODE     ---       #715
      010028A7H   LINE      CODE     ---       #719
      010028A9H   LINE      CODE     ---       #721
      010028A9H   LINE      CODE     ---       #723
      010028A9H   LINE      CODE     ---       #724
      ---         BLOCKEND  ---      ---       LVL=0
      00000005H   SYMBOL    DATA     BYTE      temp

      01002EC3H   BLOCK     CODE     ---       LVL=0
      01002EC3H   BLOCK     CODE     NEAR LAB  LVL=1
      00000007H   SYMBOL    DATA     BYTE      temp
      ---         BLOCKEND  ---      ---       LVL=1
      01002EC3H   LINE      CODE     ---       #772
      01002EC3H   LINE      CODE     ---       #773
      01002EC3H   LINE      CODE     ---       #774
      01002EC3H   LINE      CODE     ---       #778
      01002ED0H   LINE      CODE     ---       #779
      01002ED0H   LINE      CODE     ---       #780
      01002ED3H   LINE      CODE     ---       #781
      01002ED3H   LINE      CODE     ---       #784
      01002EDBH   LINE      CODE     ---       #785
      01002EDBH   LINE      CODE     ---       #786
      01002EE1H   LINE      CODE     ---       #787
      01002EE1H   LINE      CODE     ---       #792
      01002EEEH   LINE      CODE     ---       #793
      01002EEEH   LINE      CODE     ---       #794
      01002EF6H   LINE      CODE     ---       #795
      01002EF8H   LINE      CODE     ---       #797
      01002EF8H   LINE      CODE     ---       #799
      01002F01H   LINE      CODE     ---       #800
      01002F0AH   LINE      CODE     ---       #801
      01002F0AH   LINE      CODE     ---       #803
      ---         BLOCKEND  ---      ---       LVL=0

      0100167AH   BLOCK     CODE     ---       LVL=0
      0100167AH   BLOCK     CODE     NEAR LAB  LVL=1
LX51 LINKER/LOCATER V4.66.97.0                                                        05/09/2023  16:57:25  PAGE 132


      00000007H   SYMBOL    DATA     BYTE      temp
      00000003H   SYMBOL    DATA     BYTE      b_i
      ---         BLOCKEND  ---      ---       LVL=1
      0100167AH   LINE      CODE     ---       #806
      0100167AH   LINE      CODE     ---       #807
      0100167AH   LINE      CODE     ---       #809
      0100167BH   LINE      CODE     ---       #810
      0100167CH   LINE      CODE     ---       #811
      01001682H   LINE      CODE     ---       #813
      0100168FH   LINE      CODE     ---       #814
      0100168FH   LINE      CODE     ---       #815
      01001691H   LINE      CODE     ---       #816
      0100169DH   LINE      CODE     ---       #817
      010016A0H   LINE      CODE     ---       #818
      010016A0H   LINE      CODE     ---       #821
      010016ABH   LINE      CODE     ---       #822
      010016ABH   LINE      CODE     ---       #823
      010016B9H   LINE      CODE     ---       #824
      010016B9H   LINE      CODE     ---       #826
      010016BCH   LINE      CODE     ---       #829
      010016C5H   LINE      CODE     ---       #830
      010016CEH   LINE      CODE     ---       #832
      010016D0H   LINE      CODE     ---       #834
      010016D0H   LINE      CODE     ---       #835
      010016D2H   LINE      CODE     ---       #836
      010016E7H   LINE      CODE     ---       #837
      010016E7H   LINE      CODE     ---       #838
      010016F2H   LINE      CODE     ---       #839
      010016F2H   LINE      CODE     ---       #840
      010016F8H   LINE      CODE     ---       #841
      010016F8H   LINE      CODE     ---       #843
      01001708H   LINE      CODE     ---       #844
      0100170CH   LINE      CODE     ---       #845
      01001719H   LINE      CODE     ---       #846
      01001719H   LINE      CODE     ---       #847
      0100171BH   LINE      CODE     ---       #848
      0100171BH   LINE      CODE     ---       #850
      0100171BH   LINE      CODE     ---       #851
      0100171BH   LINE      CODE     ---       #852
      0100171BH   LINE      CODE     ---       #855
      01001724H   LINE      CODE     ---       #856
      01001724H   LINE      CODE     ---       #857
      0100172AH   LINE      CODE     ---       #858
      0100172AH   LINE      CODE     ---       #861
      01001740H   LINE      CODE     ---       #862
      01001740H   LINE      CODE     ---       #863
      0100174AH   LINE      CODE     ---       #864
      0100174AH   LINE      CODE     ---       #865
      01001750H   LINE      CODE     ---       #866
      01001750H   LINE      CODE     ---       #867
      01001750H   LINE      CODE     ---       #868
      01001751H   LINE      CODE     ---       #869
      0100175EH   LINE      CODE     ---       #870
      0100175EH   LINE      CODE     ---       #871
      0100176CH   LINE      CODE     ---       #872
      0100176CH   LINE      CODE     ---       #873
      0100176EH   LINE      CODE     ---       #874
      01001771H   LINE      CODE     ---       #875
      01001779H   LINE      CODE     ---       #876
      0100177FH   LINE      CODE     ---       #877
      01001780H   LINE      CODE     ---       #878
      0100178AH   LINE      CODE     ---       #879
      0100178AH   LINE      CODE     ---       #880
      0100178AH   LINE      CODE     ---       #881
      0100178DH   LINE      CODE     ---       #882
LX51 LINKER/LOCATER V4.66.97.0                                                        05/09/2023  16:57:25  PAGE 133


      01001793H   LINE      CODE     ---       #883
      01001794H   LINE      CODE     ---       #885
      01001794H   LINE      CODE     ---       #886
      0100179FH   LINE      CODE     ---       #887
      0100179FH   LINE      CODE     ---       #888
      010017A1H   LINE      CODE     ---       #889
      010017A4H   LINE      CODE     ---       #890
      010017AAH   LINE      CODE     ---       #891
      010017ABH   LINE      CODE     ---       #893
      010017ABH   LINE      CODE     ---       #894
      010017ADH   LINE      CODE     ---       #895
      010017B9H   LINE      CODE     ---       #896
      010017BFH   LINE      CODE     ---       #897
      010017BFH   LINE      CODE     ---       #898
      010017BFH   LINE      CODE     ---       #899
      010017BFH   LINE      CODE     ---       #901
      ---         BLOCKEND  ---      ---       LVL=0

      01003018H   BLOCK     CODE     ---       LVL=0
      01003018H   LINE      CODE     ---       #908
      01003018H   LINE      CODE     ---       #909
      01003018H   LINE      CODE     ---       #910
      0100301AH   LINE      CODE     ---       #914
      01003027H   LINE      CODE     ---       #915
      01003027H   LINE      CODE     ---       #916
      0100302AH   LINE      CODE     ---       #917
      0100302AH   LINE      CODE     ---       #922
      0100303BH   LINE      CODE     ---       #923
      0100303BH   LINE      CODE     ---       #924
      0100303DH   LINE      CODE     ---       #925
      0100303FH   LINE      CODE     ---       #927
      0100303FH   LINE      CODE     ---       #928
      01003046H   LINE      CODE     ---       #929
      01003046H   LINE      CODE     ---       #930
      ---         BLOCKEND  ---      ---       LVL=0

      01002BD2H   BLOCK     CODE     ---       LVL=0
      01002BD2H   BLOCK     CODE     NEAR LAB  LVL=1
      00000006H   SYMBOL    DATA     WORD      temp
      ---         BLOCKEND  ---      ---       LVL=1
      01002BD2H   LINE      CODE     ---       #937
      01002BD2H   LINE      CODE     ---       #938
      01002BD2H   LINE      CODE     ---       #939
      01002BD2H   LINE      CODE     ---       #940
      01002BD4H   LINE      CODE     ---       #942
      01002BE1H   LINE      CODE     ---       #943
      01002BE1H   LINE      CODE     ---       #944
      01002BE3H   LINE      CODE     ---       #945
      01002BEFH   LINE      CODE     ---       #946
      01002BF2H   LINE      CODE     ---       #947
      01002BF2H   LINE      CODE     ---       #949
      01002C07H   LINE      CODE     ---       #954
      01002C10H   LINE      CODE     ---       #955
      01002C10H   LINE      CODE     ---       #956
      01002C14H   LINE      CODE     ---       #957
      01002C16H   LINE      CODE     ---       #958
      01002C23H   LINE      CODE     ---       #959
      01002C23H   LINE      CODE     ---       #960
      01002C25H   LINE      CODE     ---       #961
      01002C27H   LINE      CODE     ---       #963
      01002C27H   LINE      CODE     ---       #964
      01002C2EH   LINE      CODE     ---       #965
      01002C2EH   LINE      CODE     ---       #966
      ---         BLOCKEND  ---      ---       LVL=0

LX51 LINKER/LOCATER V4.66.97.0                                                        05/09/2023  16:57:25  PAGE 134


      01002C2FH   BLOCK     CODE     ---       LVL=0
      01002C2FH   BLOCK     CODE     NEAR LAB  LVL=1
      00000006H   SYMBOL    DATA     WORD      temp
      ---         BLOCKEND  ---      ---       LVL=1
      01002C2FH   LINE      CODE     ---       #969
      01002C2FH   LINE      CODE     ---       #970
      01002C2FH   LINE      CODE     ---       #972
      01002C2FH   LINE      CODE     ---       #973
      01002C31H   LINE      CODE     ---       #975
      01002C3EH   LINE      CODE     ---       #976
      01002C3EH   LINE      CODE     ---       #977
      01002C40H   LINE      CODE     ---       #978
      01002C4CH   LINE      CODE     ---       #979
      01002C4FH   LINE      CODE     ---       #980
      01002C4FH   LINE      CODE     ---       #982
      01002C64H   LINE      CODE     ---       #987
      01002C6DH   LINE      CODE     ---       #988
      01002C6DH   LINE      CODE     ---       #989
      01002C71H   LINE      CODE     ---       #990
      01002C73H   LINE      CODE     ---       #991
      01002C80H   LINE      CODE     ---       #992
      01002C80H   LINE      CODE     ---       #993
      01002C82H   LINE      CODE     ---       #994
      01002C84H   LINE      CODE     ---       #996
      01002C84H   LINE      CODE     ---       #997
      01002C8BH   LINE      CODE     ---       #998
      01002C8BH   LINE      CODE     ---       #1000
      ---         BLOCKEND  ---      ---       LVL=0

      01002D90H   BLOCK     CODE     ---       LVL=0
      01002D90H   BLOCK     CODE     NEAR LAB  LVL=1
      00000006H   SYMBOL    DATA     WORD      temp
      ---         BLOCKEND  ---      ---       LVL=1
      01002D90H   LINE      CODE     ---       #1004
      01002D90H   LINE      CODE     ---       #1005
      01002D90H   LINE      CODE     ---       #1007
      01002D90H   LINE      CODE     ---       #1008
      01002D92H   LINE      CODE     ---       #1010
      01002D9FH   LINE      CODE     ---       #1011
      01002D9FH   LINE      CODE     ---       #1012
      01002DA1H   LINE      CODE     ---       #1013
      01002DADH   LINE      CODE     ---       #1014
      01002DB0H   LINE      CODE     ---       #1015
      01002DB0H   LINE      CODE     ---       #1017
      01002DC5H   LINE      CODE     ---       #1021
      01002DCEH   LINE      CODE     ---       #1022
      01002DCEH   LINE      CODE     ---       #1023
      01002DD2H   LINE      CODE     ---       #1024
      01002DD4H   LINE      CODE     ---       #1026
      01002DD4H   LINE      CODE     ---       #1027
      01002DDFH   LINE      CODE     ---       #1028
      01002DDFH   LINE      CODE     ---       #1030
      ---         BLOCKEND  ---      ---       LVL=0

      01001B5AH   BLOCK     CODE     ---       LVL=0
      01001B5AH   BLOCK     CODE     NEAR LAB  LVL=1
      00000026H.4 SYMBOL    BIT      BIT       f_out_temp
      ---         BLOCKEND  ---      ---       LVL=1
      01001B5AH   LINE      CODE     ---       #1038
      01001B5AH   LINE      CODE     ---       #1039
      01001B5AH   LINE      CODE     ---       #1040
      01001B5CH   LINE      CODE     ---       #1042
      01001B5EH   LINE      CODE     ---       #1044
      01001B6BH   LINE      CODE     ---       #1045
      01001B6BH   LINE      CODE     ---       #1046
LX51 LINKER/LOCATER V4.66.97.0                                                        05/09/2023  16:57:25  PAGE 135


      01001B6DH   LINE      CODE     ---       #1047
      01001B79H   LINE      CODE     ---       #1048
      01001B7CH   LINE      CODE     ---       #1049
      01001B7CH   LINE      CODE     ---       #1051
      01001B8DH   LINE      CODE     ---       #1052
      01001B8DH   LINE      CODE     ---       #1053
      01001B97H   LINE      CODE     ---       #1054
      01001B97H   LINE      CODE     ---       #1055
      01001B99H   LINE      CODE     ---       #1056
      01001B9AH   LINE      CODE     ---       #1057
      01001BA5H   LINE      CODE     ---       #1058
      01001BA5H   LINE      CODE     ---       #1059
      01001BA7H   LINE      CODE     ---       #1060
      01001BABH   LINE      CODE     ---       #1061
      01001BACH   LINE      CODE     ---       #1063
      01001BACH   LINE      CODE     ---       #1064
      01001BAEH   LINE      CODE     ---       #1065
      01001BB3H   LINE      CODE     ---       #1066
      01001BB3H   LINE      CODE     ---       #1067
      01001BB4H   LINE      CODE     ---       #1069
      01001BB4H   LINE      CODE     ---       #1073
      01001BBCH   LINE      CODE     ---       #1074
      01001BBCH   LINE      CODE     ---       #1075
      01001BC9H   LINE      CODE     ---       #1076
      01001BC9H   LINE      CODE     ---       #1077
      01001BCBH   LINE      CODE     ---       #1078
      01001BCEH   LINE      CODE     ---       #1080
      01001BD0H   LINE      CODE     ---       #1082
      01001BD0H   LINE      CODE     ---       #1083
      01001BD2H   LINE      CODE     ---       #1084
      01001BE7H   LINE      CODE     ---       #1086
      01001BE7H   LINE      CODE     ---       #1088
      01001BF2H   LINE      CODE     ---       #1089
      01001BF2H   LINE      CODE     ---       #1090
      01001BF8H   LINE      CODE     ---       #1091
      01001BF8H   LINE      CODE     ---       #1093
      01001C05H   LINE      CODE     ---       #1094
      01001C05H   LINE      CODE     ---       #1095
      01001C0BH   LINE      CODE     ---       #1096
      01001C0BH   LINE      CODE     ---       #1097
      01001C0CH   LINE      CODE     ---       #1098
      01001C19H   LINE      CODE     ---       #1099
      01001C19H   LINE      CODE     ---       #1100
      01001C27H   LINE      CODE     ---       #1101
      01001C27H   LINE      CODE     ---       #1102
      01001C29H   LINE      CODE     ---       #1103
      01001C2CH   LINE      CODE     ---       #1104
      01001C34H   LINE      CODE     ---       #1105
      01001C3AH   LINE      CODE     ---       #1106
      01001C3BH   LINE      CODE     ---       #1107
      01001C45H   LINE      CODE     ---       #1108
      01001C45H   LINE      CODE     ---       #1109
      01001C45H   LINE      CODE     ---       #1110
      01001C48H   LINE      CODE     ---       #1111
      01001C4EH   LINE      CODE     ---       #1112
      01001C4FH   LINE      CODE     ---       #1114
      01001C4FH   LINE      CODE     ---       #1115
      01001C5AH   LINE      CODE     ---       #1116
      01001C5AH   LINE      CODE     ---       #1117
      01001C5CH   LINE      CODE     ---       #1118
      01001C5FH   LINE      CODE     ---       #1119
      01001C65H   LINE      CODE     ---       #1120
      01001C66H   LINE      CODE     ---       #1122
      01001C66H   LINE      CODE     ---       #1123
      01001C68H   LINE      CODE     ---       #1124
LX51 LINKER/LOCATER V4.66.97.0                                                        05/09/2023  16:57:25  PAGE 136


      01001C74H   LINE      CODE     ---       #1127
      01001C7AH   LINE      CODE     ---       #1128
      01001C7AH   LINE      CODE     ---       #1129
      01001C7AH   LINE      CODE     ---       #1130
      01001C7AH   LINE      CODE     ---       #1132
      01001C7AH   LINE      CODE     ---       #1134
      ---         BLOCKEND  ---      ---       LVL=0

      ---         MODULE    ---      ---       MAIN
      01003347H   PUBLIC    CODE     ---       main
      000000C3H   SFRSYM    DATA     BYTE      UART_IO_CTRL1
      00000099H   SFRSYM    DATA     BYTE      PWM1_L_L
      000000F7H   SFRSYM    DATA     BYTE      EXT_INT_CON
      0000009DH   SFRSYM    DATA     BYTE      PWM2_L_L
      00000085H   SFRSYM    DATA     BYTE      INT_PE_STAT
      000000B5H   SFRSYM    DATA     BYTE      ADC_SCAN_CFG
      000000A0H   SFRSYM    DATA     BYTE      P2_XH
      000000D0H.6 SFRSYM    DATA     BIT       AC
      000000EAH   SFRSYM    DATA     BYTE      TRISA
      000000E8H.2 SFRSYM    DATA     BIT       IIC_ACK
      000000A8H.7 SFRSYM    DATA     BIT       EA
      000000EBH   SFRSYM    DATA     BYTE      TRISB
      000000ECH   SFRSYM    DATA     BYTE      TRISC
      000000D8H   SFRSYM    DATA     BYTE      PD_PB
      00000091H   SFRSYM    DATA     BYTE      WDT_CTRL
      000000EDH   SFRSYM    DATA     BYTE      TRISD
      000000FBH   SFRSYM    DATA     BYTE      SPROG_DATA
      000000F2H   SFRSYM    DATA     BYTE      PERIPH_IO_SEL
      000000B1H   SFRSYM    DATA     BYTE      SCAN_WIDTH
      000000CFH   SFRSYM    DATA     BYTE      CSD_RAWDATAH
      000000A8H   SFRSYM    DATA     BYTE      IEN0
      000000E6H   SFRSYM    DATA     BYTE      IEN1
      000000E7H   SFRSYM    DATA     BYTE      IEN2
      000000CEH   SFRSYM    DATA     BYTE      CSD_RAWDATAL
      000000AEH   SFRSYM    DATA     BYTE      PWM0_MOD_H
      000000E9H   SFRSYM    DATA     BYTE      IICBUFFER
      000000ADH   SFRSYM    DATA     BYTE      PWM0_MOD_L
      000000C0H.1 SFRSYM    DATA     BIT       UART0_F
      000000E8H   SFRSYM    DATA     BYTE      IICSTAT
      000000C8H.1 SFRSYM    DATA     BIT       UART1_F
      000000B8H   SFRSYM    DATA     BYTE      IPL0
      000000F6H   SFRSYM    DATA     BYTE      IPL1
      000000DDH   SFRSYM    DATA     BYTE      PU_PA
      000000AFH   SFRSYM    DATA     BYTE      SCAN_START
      000000F4H   SFRSYM    DATA     BYTE      IPL2
      000000DEH   SFRSYM    DATA     BYTE      PU_PB
      000000D7H   SFRSYM    DATA     BYTE      RST_STAT
      0000008EH   SFRSYM    DATA     BYTE      SOFT_RST
      000000DFH   SFRSYM    DATA     BYTE      PU_PC
      000000E2H   SFRSYM    DATA     BYTE      PU_PD
      000000D1H   SFRSYM    DATA     BYTE      PULL_I_SELA_L
      000000B6H   SFRSYM    DATA     BYTE      ADCCKC
      000000D0H.7 SFRSYM    DATA     BIT       CY
      00000086H   SFRSYM    DATA     BYTE      INT_POBO_STAT
      000000C0H.0 SFRSYM    DATA     BIT       UART0_P
      000000EEH   SFRSYM    DATA     BYTE      COM_IO_SEL
      000000C8H.0 SFRSYM    DATA     BIT       UART1_P
      000000E3H   SFRSYM    DATA     BYTE      IICADD
      000000BDH   SFRSYM    DATA     BYTE      UART0_BDL
      000000B4H   SFRSYM    DATA     BYTE      ADC_SPT
      000000C5H   SFRSYM    DATA     BYTE      UART1_BDL
      00000081H   SFRSYM    DATA     BYTE      SP
      000000D0H.2 SFRSYM    DATA     BIT       OV
      000000A3H   SFRSYM    DATA     BYTE      PWM0_CH_CTRL
      000000BBH   SFRSYM    DATA     BYTE      ADC_CFG1
LX51 LINKER/LOCATER V4.66.97.0                                                        05/09/2023  16:57:25  PAGE 137


      00000094H   SFRSYM    DATA     BYTE      TIMER2_SET_H
      000000C1H   SFRSYM    DATA     BYTE      UART0_BUF
      000000BCH   SFRSYM    DATA     BYTE      ADC_CFG2
      000000C9H   SFRSYM    DATA     BYTE      UART1_BUF
      000000F1H   SFRSYM    DATA     BYTE      IRCON1
      000000E1H   SFRSYM    DATA     BYTE      IRCON2
      00000095H   SFRSYM    DATA     BYTE      TIMER2_SET_L
      000000A5H   SFRSYM    DATA     BYTE      PWM0_CH0_CNT_H
      000000A7H   SFRSYM    DATA     BYTE      PWM0_CH1_CNT_H
      00000087H   SFRSYM    DATA     BYTE      PCON
      000000F9H   SFRSYM    DATA     BYTE      SPROG_ADDR_H
      000000B3H   SFRSYM    DATA     BYTE      LED_DRIVE
      000000AAH   SFRSYM    DATA     BYTE      PWM0_CH2_CNT_H
      000000EFH   SFRSYM    DATA     BYTE      ODRAIN_EN
      000000ACH   SFRSYM    DATA     BYTE      PWM0_CH3_CNT_H
      000000E4H   SFRSYM    DATA     BYTE      IICBUF
      000000A4H   SFRSYM    DATA     BYTE      PWM0_CH0_CNT_L
      000000A6H   SFRSYM    DATA     BYTE      PWM0_CH1_CNT_L
      00000089H   SFRSYM    DATA     BYTE      TMOD
      00000088H   SFRSYM    DATA     BYTE      TCON
      000000FAH   SFRSYM    DATA     BYTE      SPROG_ADDR_L
      000000A9H   SFRSYM    DATA     BYTE      PWM0_CH2_CNT_L
      000000E8H.0 SFRSYM    DATA     BIT       IIC_RECOV
      000000E5H   SFRSYM    DATA     BYTE      IICCON
      000000ABH   SFRSYM    DATA     BYTE      PWM0_CH3_CNT_L
      000000D9H   SFRSYM    DATA     BYTE      ADC_IO_SEL1
      000000DAH   SFRSYM    DATA     BYTE      ADC_IO_SEL2
      000000DBH   SFRSYM    DATA     BYTE      ADC_IO_SEL3
      000000E8H.4 SFRSYM    DATA     BIT       IIC_AD
      000000DCH   SFRSYM    DATA     BYTE      ADC_IO_SEL4
      000000E8H.3 SFRSYM    DATA     BIT       IIC_BF
      00000088H.1 SFRSYM    DATA     BIT       IE0
      00000088H.3 SFRSYM    DATA     BIT       IE1
      000000C4H   SFRSYM    DATA     BYTE      LED_IO_START
      000000F8H.0 SFRSYM    DATA     BIT       PA0
      000000F0H   SFRSYM    DATA     BYTE      B
      00000080H.0 SFRSYM    DATA     BIT       PB0
      000000F8H.1 SFRSYM    DATA     BIT       PA1
      000000FCH   SFRSYM    DATA     BYTE      SPROG_CMD
      00000090H.0 SFRSYM    DATA     BIT       PC0
      00000080H.1 SFRSYM    DATA     BIT       PB1
      00000098H.0 SFRSYM    DATA     BIT       PD0
      00000090H.1 SFRSYM    DATA     BIT       PC1
      00000080H.2 SFRSYM    DATA     BIT       PB2
      00000098H.1 SFRSYM    DATA     BIT       PD1
      00000090H.2 SFRSYM    DATA     BIT       PC2
      00000080H.3 SFRSYM    DATA     BIT       PB3
      000000FEH   SFRSYM    DATA     BYTE      PD_ANA
      000000E8H.7 SFRSYM    DATA     BIT       IIC_START
      00000098H.2 SFRSYM    DATA     BIT       PD2
      00000090H.3 SFRSYM    DATA     BIT       PC3
      00000080H.4 SFRSYM    DATA     BIT       PB4
      00000098H.3 SFRSYM    DATA     BIT       PD3
      00000090H.4 SFRSYM    DATA     BIT       PC4
      00000080H.5 SFRSYM    DATA     BIT       PB5
      000000E0H   SFRSYM    DATA     BYTE      ACC
      00000098H.4 SFRSYM    DATA     BIT       PD4
      00000090H.5 SFRSYM    DATA     BIT       PC5
      00000080H.6 SFRSYM    DATA     BIT       PB6
      000000A8H.1 SFRSYM    DATA     BIT       ET0
      00000098H.5 SFRSYM    DATA     BIT       PD5
      00000090H.6 SFRSYM    DATA     BIT       PC6
      00000080H.7 SFRSYM    DATA     BIT       PB7
      000000A8H.3 SFRSYM    DATA     BIT       ET1
      00000098H.6 SFRSYM    DATA     BIT       PD6
LX51 LINKER/LOCATER V4.66.97.0                                                        05/09/2023  16:57:25  PAGE 138


      00000090H.7 SFRSYM    DATA     BIT       PC7
      00000088H.5 SFRSYM    DATA     BIT       TF0
      000000C0H.3 SFRSYM    DATA     BIT       RI0
      00000098H.7 SFRSYM    DATA     BIT       PD7
      00000088H.7 SFRSYM    DATA     BIT       TF1
      000000CAH   SFRSYM    DATA     BYTE      CSD_START
      000000C8H.3 SFRSYM    DATA     BIT       RI1
      0000008CH   SFRSYM    DATA     BYTE      TH0
      000000C0H.4 SFRSYM    DATA     BIT       TI0
      000000A8H.0 SFRSYM    DATA     BIT       EX0
      000000C2H   SFRSYM    DATA     BYTE      UART_IO_CTRL
      0000008DH   SFRSYM    DATA     BYTE      TH1
      000000C8H.4 SFRSYM    DATA     BIT       TI1
      000000A8H.2 SFRSYM    DATA     BIT       EX1
      000000D0H.0 SFRSYM    DATA     BIT       P
      0000008AH   SFRSYM    DATA     BYTE      TL0
      000000C0H   SFRSYM    DATA     BYTE      UART0_STATE
      0000008BH   SFRSYM    DATA     BYTE      TL1
      000000C8H   SFRSYM    DATA     BYTE      UART1_STATE
      000000FFH   SFRSYM    DATA     BYTE      BOR_LVDT_VTH
      000000B8H.1 SFRSYM    DATA     BIT       PT0
      000000D0H.3 SFRSYM    DATA     BIT       RS0
      000000B8H.3 SFRSYM    DATA     BIT       PT1
      000000B0H   SFRSYM    DATA     BYTE      DP_CON
      000000D0H.4 SFRSYM    DATA     BIT       RS1
      00000088H.4 SFRSYM    DATA     BIT       TR0
      00000088H.6 SFRSYM    DATA     BIT       TR1
      000000D2H   SFRSYM    DATA     BYTE      SNS_ANA_CFG
      000000C0H.6 SFRSYM    DATA     BIT       UART0_R8
      000000B8H.0 SFRSYM    DATA     BIT       PX0
      000000FDH   SFRSYM    DATA     BYTE      SPROG_TIM
      000000C8H.6 SFRSYM    DATA     BIT       UART1_R8
      000000B8H.2 SFRSYM    DATA     BIT       PX1
      000000C0H.5 SFRSYM    DATA     BIT       UART0_T8
      00000097H   SFRSYM    DATA     BYTE      REG_DATA
      000000C8H.5 SFRSYM    DATA     BIT       UART1_T8
      00000096H   SFRSYM    DATA     BYTE      REG_ADDR
      000000F8H   SFRSYM    DATA     BYTE      DATAA
      00000083H   SFRSYM    DATA     BYTE      DPH
      00000080H   SFRSYM    DATA     BYTE      DATAB
      000000CBH   SFRSYM    DATA     BYTE      SNS_SCAN_CFG1
      00000090H   SFRSYM    DATA     BYTE      DATAC
      000000E8H.5 SFRSYM    DATA     BIT       IIC_RW
      000000CCH   SFRSYM    DATA     BYTE      SNS_SCAN_CFG2
      000000B9H   SFRSYM    DATA     BYTE      ADC_RDATAH
      00000098H   SFRSYM    DATA     BYTE      DATAD
      000000CDH   SFRSYM    DATA     BYTE      SNS_SCAN_CFG3
      000000BEH   SFRSYM    DATA     BYTE      UART0_CON1
      00000082H   SFRSYM    DATA     BYTE      DPL
      000000C6H   SFRSYM    DATA     BYTE      UART1_CON1
      000000BFH   SFRSYM    DATA     BYTE      UART0_CON2
      000000C7H   SFRSYM    DATA     BYTE      UART1_CON2
      000000BAH   SFRSYM    DATA     BYTE      ADC_RDATAL
      00000092H   SFRSYM    DATA     BYTE      WDT_EN
      000000D3H   SFRSYM    DATA     BYTE      SNS_IO_SEL1
      000000D4H   SFRSYM    DATA     BYTE      SNS_IO_SEL2
      000000D5H   SFRSYM    DATA     BYTE      SNS_IO_SEL3
      00000093H   SFRSYM    DATA     BYTE      TIMER2_CFG
      000000D6H   SFRSYM    DATA     BYTE      SNS_IO_SEL4
      000000A2H   SFRSYM    DATA     BYTE      PWM_EN
      000000B2H   SFRSYM    DATA     BYTE      LED2_WIDTH
      000000E8H.1 SFRSYM    DATA     BIT       IIC_WCOL
      00000084H   SFRSYM    DATA     BYTE      SYS_CLK_CFG
      000000C0H.2 SFRSYM    DATA     BIT       UART0_RO
      000000C8H.2 SFRSYM    DATA     BIT       UART1_RO
LX51 LINKER/LOCATER V4.66.97.0                                                        05/09/2023  16:57:25  PAGE 139


      000000D0H.5 SFRSYM    DATA     BIT       F0
      000000D0H.1 SFRSYM    DATA     BIT       F1
      0000009CH   SFRSYM    DATA     BYTE      PWM1_H_H
      000000A1H   SFRSYM    DATA     BYTE      PWM2_H_H
      000000D0H   SFRSYM    DATA     BYTE      PSW
      0000009BH   SFRSYM    DATA     BYTE      PWM1_H_L
      0000009AH   SFRSYM    DATA     BYTE      PWM1_L_H
      0000009FH   SFRSYM    DATA     BYTE      PWM2_H_L
      0000009EH   SFRSYM    DATA     BYTE      PWM2_L_H
      000000E8H.6 SFRSYM    DATA     BIT       IIC_STOP

      01003347H   BLOCK     CODE     ---       LVL=0
      01003347H   LINE      CODE     ---       #3
      01003347H   LINE      CODE     ---       #4
      01003347H   LINE      CODE     ---       #7
      0100334AH   LINE      CODE     ---       #8
      0100334DH   LINE      CODE     ---       #10
      0100334DH   LINE      CODE     ---       #11
      0100334DH   LINE      CODE     ---       #13
      01003350H   LINE      CODE     ---       #18
      01003353H   LINE      CODE     ---       #21
      01003353H   LINE      CODE     ---       #23
      01003356H   LINE      CODE     ---       #25
      01003356H   LINE      CODE     ---       #37
      01003359H   LINE      CODE     ---       #39
      ---         BLOCKEND  ---      ---       LVL=0

      ---         MODULE    ---      ---       PROJECT
      02000124H   PUBLIC    XDATA    BYTE      b_NOW_or_Target_cnt
      00000026H.3 PUBLIC    BIT      BIT       gf_check
      02000123H   PUBLIC    XDATA    BYTE      b_NOW_or_Target_cnt2
      0000004DH   PUBLIC    DATA     BYTE      b_tbcheck
      01000F6DH   PUBLIC    CODE     ---       time_deal
      01003047H   PUBLIC    CODE     ---       Project
      000000C3H   SFRSYM    DATA     BYTE      UART_IO_CTRL1
      00000099H   SFRSYM    DATA     BYTE      PWM1_L_L
      000000F7H   SFRSYM    DATA     BYTE      EXT_INT_CON
      0000009DH   SFRSYM    DATA     BYTE      PWM2_L_L
      00000085H   SFRSYM    DATA     BYTE      INT_PE_STAT
      000000B5H   SFRSYM    DATA     BYTE      ADC_SCAN_CFG
      000000A0H   SFRSYM    DATA     BYTE      P2_XH
      000000D0H.6 SFRSYM    DATA     BIT       AC
      000000EAH   SFRSYM    DATA     BYTE      TRISA
      000000E8H.2 SFRSYM    DATA     BIT       IIC_ACK
      000000A8H.7 SFRSYM    DATA     BIT       EA
      000000EBH   SFRSYM    DATA     BYTE      TRISB
      000000ECH   SFRSYM    DATA     BYTE      TRISC
      000000D8H   SFRSYM    DATA     BYTE      PD_PB
      00000091H   SFRSYM    DATA     BYTE      WDT_CTRL
      000000EDH   SFRSYM    DATA     BYTE      TRISD
      000000FBH   SFRSYM    DATA     BYTE      SPROG_DATA
      000000F2H   SFRSYM    DATA     BYTE      PERIPH_IO_SEL
      000000B1H   SFRSYM    DATA     BYTE      SCAN_WIDTH
      000000CFH   SFRSYM    DATA     BYTE      CSD_RAWDATAH
      000000A8H   SFRSYM    DATA     BYTE      IEN0
      000000E6H   SFRSYM    DATA     BYTE      IEN1
      000000E7H   SFRSYM    DATA     BYTE      IEN2
      000000CEH   SFRSYM    DATA     BYTE      CSD_RAWDATAL
      000000AEH   SFRSYM    DATA     BYTE      PWM0_MOD_H
      000000E9H   SFRSYM    DATA     BYTE      IICBUFFER
      000000ADH   SFRSYM    DATA     BYTE      PWM0_MOD_L
      000000C0H.1 SFRSYM    DATA     BIT       UART0_F
      000000E8H   SFRSYM    DATA     BYTE      IICSTAT
      000000C8H.1 SFRSYM    DATA     BIT       UART1_F
      000000B8H   SFRSYM    DATA     BYTE      IPL0
LX51 LINKER/LOCATER V4.66.97.0                                                        05/09/2023  16:57:25  PAGE 140


      000000F6H   SFRSYM    DATA     BYTE      IPL1
      000000DDH   SFRSYM    DATA     BYTE      PU_PA
      000000AFH   SFRSYM    DATA     BYTE      SCAN_START
      000000F4H   SFRSYM    DATA     BYTE      IPL2
      000000DEH   SFRSYM    DATA     BYTE      PU_PB
      000000D7H   SFRSYM    DATA     BYTE      RST_STAT
      0000008EH   SFRSYM    DATA     BYTE      SOFT_RST
      000000DFH   SFRSYM    DATA     BYTE      PU_PC
      000000E2H   SFRSYM    DATA     BYTE      PU_PD
      000000D1H   SFRSYM    DATA     BYTE      PULL_I_SELA_L
      000000B6H   SFRSYM    DATA     BYTE      ADCCKC
      000000D0H.7 SFRSYM    DATA     BIT       CY
      00000086H   SFRSYM    DATA     BYTE      INT_POBO_STAT
      000000C0H.0 SFRSYM    DATA     BIT       UART0_P
      000000EEH   SFRSYM    DATA     BYTE      COM_IO_SEL
      000000C8H.0 SFRSYM    DATA     BIT       UART1_P
      000000E3H   SFRSYM    DATA     BYTE      IICADD
      000000BDH   SFRSYM    DATA     BYTE      UART0_BDL
      000000B4H   SFRSYM    DATA     BYTE      ADC_SPT
      000000C5H   SFRSYM    DATA     BYTE      UART1_BDL
      00000081H   SFRSYM    DATA     BYTE      SP
      000000D0H.2 SFRSYM    DATA     BIT       OV
      000000A3H   SFRSYM    DATA     BYTE      PWM0_CH_CTRL
      000000BBH   SFRSYM    DATA     BYTE      ADC_CFG1
      00000094H   SFRSYM    DATA     BYTE      TIMER2_SET_H
      000000C1H   SFRSYM    DATA     BYTE      UART0_BUF
      000000BCH   SFRSYM    DATA     BYTE      ADC_CFG2
      000000C9H   SFRSYM    DATA     BYTE      UART1_BUF
      000000F1H   SFRSYM    DATA     BYTE      IRCON1
      000000E1H   SFRSYM    DATA     BYTE      IRCON2
      00000095H   SFRSYM    DATA     BYTE      TIMER2_SET_L
      000000A5H   SFRSYM    DATA     BYTE      PWM0_CH0_CNT_H
      000000A7H   SFRSYM    DATA     BYTE      PWM0_CH1_CNT_H
      00000087H   SFRSYM    DATA     BYTE      PCON
      000000F9H   SFRSYM    DATA     BYTE      SPROG_ADDR_H
      000000B3H   SFRSYM    DATA     BYTE      LED_DRIVE
      000000AAH   SFRSYM    DATA     BYTE      PWM0_CH2_CNT_H
      000000EFH   SFRSYM    DATA     BYTE      ODRAIN_EN
      000000ACH   SFRSYM    DATA     BYTE      PWM0_CH3_CNT_H
      000000E4H   SFRSYM    DATA     BYTE      IICBUF
      000000A4H   SFRSYM    DATA     BYTE      PWM0_CH0_CNT_L
      000000A6H   SFRSYM    DATA     BYTE      PWM0_CH1_CNT_L
      00000089H   SFRSYM    DATA     BYTE      TMOD
      00000088H   SFRSYM    DATA     BYTE      TCON
      000000FAH   SFRSYM    DATA     BYTE      SPROG_ADDR_L
      000000A9H   SFRSYM    DATA     BYTE      PWM0_CH2_CNT_L
      000000E8H.0 SFRSYM    DATA     BIT       IIC_RECOV
      000000E5H   SFRSYM    DATA     BYTE      IICCON
      000000ABH   SFRSYM    DATA     BYTE      PWM0_CH3_CNT_L
      000000D9H   SFRSYM    DATA     BYTE      ADC_IO_SEL1
      000000DAH   SFRSYM    DATA     BYTE      ADC_IO_SEL2
      000000DBH   SFRSYM    DATA     BYTE      ADC_IO_SEL3
      000000E8H.4 SFRSYM    DATA     BIT       IIC_AD
      000000DCH   SFRSYM    DATA     BYTE      ADC_IO_SEL4
      000000E8H.3 SFRSYM    DATA     BIT       IIC_BF
      00000088H.1 SFRSYM    DATA     BIT       IE0
      00000088H.3 SFRSYM    DATA     BIT       IE1
      000000C4H   SFRSYM    DATA     BYTE      LED_IO_START
      000000F8H.0 SFRSYM    DATA     BIT       PA0
      000000F0H   SFRSYM    DATA     BYTE      B
      00000080H.0 SFRSYM    DATA     BIT       PB0
      000000F8H.1 SFRSYM    DATA     BIT       PA1
      000000FCH   SFRSYM    DATA     BYTE      SPROG_CMD
      00000090H.0 SFRSYM    DATA     BIT       PC0
      00000080H.1 SFRSYM    DATA     BIT       PB1
LX51 LINKER/LOCATER V4.66.97.0                                                        05/09/2023  16:57:25  PAGE 141


      00000098H.0 SFRSYM    DATA     BIT       PD0
      00000090H.1 SFRSYM    DATA     BIT       PC1
      00000080H.2 SFRSYM    DATA     BIT       PB2
      00000098H.1 SFRSYM    DATA     BIT       PD1
      00000090H.2 SFRSYM    DATA     BIT       PC2
      00000080H.3 SFRSYM    DATA     BIT       PB3
      000000FEH   SFRSYM    DATA     BYTE      PD_ANA
      000000E8H.7 SFRSYM    DATA     BIT       IIC_START
      00000098H.2 SFRSYM    DATA     BIT       PD2
      00000090H.3 SFRSYM    DATA     BIT       PC3
      00000080H.4 SFRSYM    DATA     BIT       PB4
      00000098H.3 SFRSYM    DATA     BIT       PD3
      00000090H.4 SFRSYM    DATA     BIT       PC4
      00000080H.5 SFRSYM    DATA     BIT       PB5
      000000E0H   SFRSYM    DATA     BYTE      ACC
      00000098H.4 SFRSYM    DATA     BIT       PD4
      00000090H.5 SFRSYM    DATA     BIT       PC5
      00000080H.6 SFRSYM    DATA     BIT       PB6
      000000A8H.1 SFRSYM    DATA     BIT       ET0
      00000098H.5 SFRSYM    DATA     BIT       PD5
      00000090H.6 SFRSYM    DATA     BIT       PC6
      00000080H.7 SFRSYM    DATA     BIT       PB7
      000000A8H.3 SFRSYM    DATA     BIT       ET1
      00000098H.6 SFRSYM    DATA     BIT       PD6
      00000090H.7 SFRSYM    DATA     BIT       PC7
      00000088H.5 SFRSYM    DATA     BIT       TF0
      000000C0H.3 SFRSYM    DATA     BIT       RI0
      00000098H.7 SFRSYM    DATA     BIT       PD7
      00000088H.7 SFRSYM    DATA     BIT       TF1
      000000CAH   SFRSYM    DATA     BYTE      CSD_START
      000000C8H.3 SFRSYM    DATA     BIT       RI1
      0000008CH   SFRSYM    DATA     BYTE      TH0
      000000C0H.4 SFRSYM    DATA     BIT       TI0
      000000A8H.0 SFRSYM    DATA     BIT       EX0
      000000C2H   SFRSYM    DATA     BYTE      UART_IO_CTRL
      0000008DH   SFRSYM    DATA     BYTE      TH1
      000000C8H.4 SFRSYM    DATA     BIT       TI1
      000000A8H.2 SFRSYM    DATA     BIT       EX1
      000000D0H.0 SFRSYM    DATA     BIT       P
      0000008AH   SFRSYM    DATA     BYTE      TL0
      000000C0H   SFRSYM    DATA     BYTE      UART0_STATE
      0000008BH   SFRSYM    DATA     BYTE      TL1
      000000C8H   SFRSYM    DATA     BYTE      UART1_STATE
      000000FFH   SFRSYM    DATA     BYTE      BOR_LVDT_VTH
      000000B8H.1 SFRSYM    DATA     BIT       PT0
      000000D0H.3 SFRSYM    DATA     BIT       RS0
      000000B8H.3 SFRSYM    DATA     BIT       PT1
      000000B0H   SFRSYM    DATA     BYTE      DP_CON
      000000D0H.4 SFRSYM    DATA     BIT       RS1
      00000088H.4 SFRSYM    DATA     BIT       TR0
      00000088H.6 SFRSYM    DATA     BIT       TR1
      000000D2H   SFRSYM    DATA     BYTE      SNS_ANA_CFG
      000000C0H.6 SFRSYM    DATA     BIT       UART0_R8
      000000B8H.0 SFRSYM    DATA     BIT       PX0
      000000FDH   SFRSYM    DATA     BYTE      SPROG_TIM
      000000C8H.6 SFRSYM    DATA     BIT       UART1_R8
      000000B8H.2 SFRSYM    DATA     BIT       PX1
      000000C0H.5 SFRSYM    DATA     BIT       UART0_T8
      00000097H   SFRSYM    DATA     BYTE      REG_DATA
      000000C8H.5 SFRSYM    DATA     BIT       UART1_T8
      00000096H   SFRSYM    DATA     BYTE      REG_ADDR
      000000F8H   SFRSYM    DATA     BYTE      DATAA
      00000083H   SFRSYM    DATA     BYTE      DPH
      00000080H   SFRSYM    DATA     BYTE      DATAB
      000000CBH   SFRSYM    DATA     BYTE      SNS_SCAN_CFG1
LX51 LINKER/LOCATER V4.66.97.0                                                        05/09/2023  16:57:25  PAGE 142


      00000090H   SFRSYM    DATA     BYTE      DATAC
      000000E8H.5 SFRSYM    DATA     BIT       IIC_RW
      000000CCH   SFRSYM    DATA     BYTE      SNS_SCAN_CFG2
      000000B9H   SFRSYM    DATA     BYTE      ADC_RDATAH
      00000098H   SFRSYM    DATA     BYTE      DATAD
      000000CDH   SFRSYM    DATA     BYTE      SNS_SCAN_CFG3
      000000BEH   SFRSYM    DATA     BYTE      UART0_CON1
      00000082H   SFRSYM    DATA     BYTE      DPL
      000000C6H   SFRSYM    DATA     BYTE      UART1_CON1
      000000BFH   SFRSYM    DATA     BYTE      UART0_CON2
      000000C7H   SFRSYM    DATA     BYTE      UART1_CON2
      000000BAH   SFRSYM    DATA     BYTE      ADC_RDATAL
      00000092H   SFRSYM    DATA     BYTE      WDT_EN
      000000D3H   SFRSYM    DATA     BYTE      SNS_IO_SEL1
      000000D4H   SFRSYM    DATA     BYTE      SNS_IO_SEL2
      000000D5H   SFRSYM    DATA     BYTE      SNS_IO_SEL3
      00000093H   SFRSYM    DATA     BYTE      TIMER2_CFG
      000000D6H   SFRSYM    DATA     BYTE      SNS_IO_SEL4
      000000A2H   SFRSYM    DATA     BYTE      PWM_EN
      000000B2H   SFRSYM    DATA     BYTE      LED2_WIDTH
      000000E8H.1 SFRSYM    DATA     BIT       IIC_WCOL
      00000084H   SFRSYM    DATA     BYTE      SYS_CLK_CFG
      000000C0H.2 SFRSYM    DATA     BIT       UART0_RO
      000000C8H.2 SFRSYM    DATA     BIT       UART1_RO
      000000D0H.5 SFRSYM    DATA     BIT       F0
      000000D0H.1 SFRSYM    DATA     BIT       F1
      0000009CH   SFRSYM    DATA     BYTE      PWM1_H_H
      000000A1H   SFRSYM    DATA     BYTE      PWM2_H_H
      000000D0H   SFRSYM    DATA     BYTE      PSW
      0000009BH   SFRSYM    DATA     BYTE      PWM1_H_L
      0000009AH   SFRSYM    DATA     BYTE      PWM1_L_H
      0000009FH   SFRSYM    DATA     BYTE      PWM2_H_L
      0000009EH   SFRSYM    DATA     BYTE      PWM2_L_H
      000000E8H.6 SFRSYM    DATA     BIT       IIC_STOP

      01003047H   BLOCK     CODE     ---       LVL=0
      01003047H   LINE      CODE     ---       #41
      01003047H   LINE      CODE     ---       #42
      01003047H   LINE      CODE     ---       #43
      01003052H   LINE      CODE     ---       #44
      01003052H   LINE      CODE     ---       #45
      01003058H   LINE      CODE     ---       #47
      0100305BH   LINE      CODE     ---       #48
      0100305BH   LINE      CODE     ---       #49
      0100305EH   LINE      CODE     ---       #50
      01003061H   LINE      CODE     ---       #51
      01003064H   LINE      CODE     ---       #52
      01003064H   LINE      CODE     ---       #54
      01003067H   LINE      CODE     ---       #56
      0100306AH   LINE      CODE     ---       #61
      0100306DH   LINE      CODE     ---       #65
      01003070H   LINE      CODE     ---       #66
      01003073H   LINE      CODE     ---       #73
      01003073H   LINE      CODE     ---       #75
      ---         BLOCKEND  ---      ---       LVL=0

      01000F6DH   BLOCK     CODE     ---       LVL=0
      01000F6DH   LINE      CODE     ---       #85
      01000F6DH   LINE      CODE     ---       #86
      01000F6DH   LINE      CODE     ---       #89
      01000F7CH   LINE      CODE     ---       #90
      01000F7CH   LINE      CODE     ---       #91
      01000F7EH   LINE      CODE     ---       #92
      01000F80H   LINE      CODE     ---       #93
      01000F80H   LINE      CODE     ---       #96
LX51 LINKER/LOCATER V4.66.97.0                                                        05/09/2023  16:57:25  PAGE 143


      01000F8DH   LINE      CODE     ---       #97
      01000F90H   LINE      CODE     ---       #100
      01000F9DH   LINE      CODE     ---       #101
      01000FA0H   LINE      CODE     ---       #102
      01000FA9H   LINE      CODE     ---       #103
      01000FA9H   LINE      CODE     ---       #104
      01000FAEH   LINE      CODE     ---       #105
      01000FB0H   LINE      CODE     ---       #106
      01000FB0H   LINE      CODE     ---       #108
      01000FBDH   LINE      CODE     ---       #109
      01000FBFH   LINE      CODE     ---       #111
      01000FC2H   LINE      CODE     ---       #112
      01000FC2H   LINE      CODE     ---       #113
      01000FC5H   LINE      CODE     ---       #114
      01000FC5H   LINE      CODE     ---       #115
      01000FC7H   LINE      CODE     ---       #116
      01000FC7H   LINE      CODE     ---       #119
      01000FD2H   LINE      CODE     ---       #120
      01000FD2H   LINE      CODE     ---       #121
      01000FDEH   LINE      CODE     ---       #122
      01000FDEH   LINE      CODE     ---       #123
      01000FE1H   LINE      CODE     ---       #126
      01000FEEH   LINE      CODE     ---       #127
      01000FEEH   LINE      CODE     ---       #128
      01000FF3H   LINE      CODE     ---       #129
      01000FF3H   LINE      CODE     ---       #130
      01000FF3H   LINE      CODE     ---       #135
      01000FF3H   LINE      CODE     ---       #136
      01000FF3H   LINE      CODE     ---       #150
      01001000H   LINE      CODE     ---       #151
      01001003H   LINE      CODE     ---       #154
      01001005H   LINE      CODE     ---       #155
      01001010H   LINE      CODE     ---       #156
      01001010H   LINE      CODE     ---       #157
      01001013H   LINE      CODE     ---       #166
      01001016H   LINE      CODE     ---       #169
      01001016H   LINE      CODE     ---       #173
      01001018H   LINE      CODE     ---       #174
      01001026H   LINE      CODE     ---       #175
      01001026H   LINE      CODE     ---       #176
      01001029H   LINE      CODE     ---       #181
      0100102FH   LINE      CODE     ---       #182
      01001038H   LINE      CODE     ---       #183
      0100103AH   LINE      CODE     ---       #186
      01001047H   LINE      CODE     ---       #187
      0100104AH   LINE      CODE     ---       #190
      01001057H   LINE      CODE     ---       #191
      0100105AH   LINE      CODE     ---       #192
      01001069H   LINE      CODE     ---       #193
      01001075H   LINE      CODE     ---       #194
      01001082H   LINE      CODE     ---       #195
      01001085H   LINE      CODE     ---       #198
      0100108BH   LINE      CODE     ---       #199
      01001095H   LINE      CODE     ---       #200
      01001097H   LINE      CODE     ---       #204
      010010A4H   LINE      CODE     ---       #205
      010010A7H   LINE      CODE     ---       #206
      010010B4H   LINE      CODE     ---       #207
      010010B7H   LINE      CODE     ---       #208
      010010C4H   LINE      CODE     ---       #209
      010010C7H   LINE      CODE     ---       #220
      010010D2H   LINE      CODE     ---       #221
      010010D8H   LINE      CODE     ---       #222
      010010E5H   LINE      CODE     ---       #223
      010010E5H   LINE      CODE     ---       #224
LX51 LINKER/LOCATER V4.66.97.0                                                        05/09/2023  16:57:25  PAGE 144


      010010E7H   LINE      CODE     ---       #225
      010010EDH   LINE      CODE     ---       #226
      010010F6H   LINE      CODE     ---       #227
      010010F6H   LINE      CODE     ---       #228
      010010F8H   LINE      CODE     ---       #229
      010010FEH   LINE      CODE     ---       #230
      010010FEH   LINE      CODE     ---       #231
      010010FEH   LINE      CODE     ---       #234
      01001104H   LINE      CODE     ---       #235
      0100110EH   LINE      CODE     ---       #236
      0100110EH   LINE      CODE     ---       #237
      01001110H   LINE      CODE     ---       #238
      0100111DH   LINE      CODE     ---       #239
      0100111DH   LINE      CODE     ---       #240
      01001123H   LINE      CODE     ---       #241
      01001125H   LINE      CODE     ---       #243
      01001125H   LINE      CODE     ---       #244
      01001128H   LINE      CODE     ---       #245
      0100112EH   LINE      CODE     ---       #246
      0100112EH   LINE      CODE     ---       #247
      0100112EH   LINE      CODE     ---       #248
      0100112EH   LINE      CODE     ---       #268
      01001133H   LINE      CODE     ---       #269
      01001133H   LINE      CODE     ---       #271
      01001136H   LINE      CODE     ---       #272
      0100113CH   LINE      CODE     ---       #273
      01001149H   LINE      CODE     ---       #274
      01001149H   LINE      CODE     ---       #275
      0100114BH   LINE      CODE     ---       #276
      01001158H   LINE      CODE     ---       #277
      01001158H   LINE      CODE     ---       #278
      0100115EH   LINE      CODE     ---       #279
      01001160H   LINE      CODE     ---       #290
      01001160H   LINE      CODE     ---       #293
      01001166H   LINE      CODE     ---       #294
      01001169H   LINE      CODE     ---       #295
      0100116BH   LINE      CODE     ---       #296
      01001178H   LINE      CODE     ---       #297
      01001178H   LINE      CODE     ---       #298
      0100117AH   LINE      CODE     ---       #299
      01001187H   LINE      CODE     ---       #300
      01001187H   LINE      CODE     ---       #301
      0100118DH   LINE      CODE     ---       #302
      0100118FH   LINE      CODE     ---       #304
      0100118FH   LINE      CODE     ---       #305
      01001192H   LINE      CODE     ---       #306
      01001198H   LINE      CODE     ---       #307
      01001198H   LINE      CODE     ---       #308
      01001198H   LINE      CODE     ---       #309
      01001198H   LINE      CODE     ---       #310
      01001198H   LINE      CODE     ---       #351
      01001198H   LINE      CODE     ---       #352
      ---         BLOCKEND  ---      ---       LVL=0

      ---         MODULE    ---      ---       TOUCH_MCU_INIT
      02000126H   PUBLIC    XDATA    BYTE      CFG_Rb
      0100331EH   PUBLIC    CODE     ---       MCU_Init
      010032F1H   PUBLIC    CODE     ---       Function_Init
      01003074H   PUBLIC    CODE     ---       Default_Set_IO
      0100001AH   PUBLIC    CODE     ---       Init_IO
      010032DAH   PUBLIC    CODE     ---       WDT_Init
      01000013H   PUBLIC    CODE     ---       Set_Sys_Clk
      010032C3H   PUBLIC    CODE     ---       Bor_Init
      01002711H   PUBLIC    CODE     ---       CFG_Check
      000000C3H   SFRSYM    DATA     BYTE      UART_IO_CTRL1
LX51 LINKER/LOCATER V4.66.97.0                                                        05/09/2023  16:57:25  PAGE 145


      00000099H   SFRSYM    DATA     BYTE      PWM1_L_L
      000000F7H   SFRSYM    DATA     BYTE      EXT_INT_CON
      0000009DH   SFRSYM    DATA     BYTE      PWM2_L_L
      00000085H   SFRSYM    DATA     BYTE      INT_PE_STAT
      000000B5H   SFRSYM    DATA     BYTE      ADC_SCAN_CFG
      000000A0H   SFRSYM    DATA     BYTE      P2_XH
      000000D0H.6 SFRSYM    DATA     BIT       AC
      000000EAH   SFRSYM    DATA     BYTE      TRISA
      000000E8H.2 SFRSYM    DATA     BIT       IIC_ACK
      000000A8H.7 SFRSYM    DATA     BIT       EA
      000000EBH   SFRSYM    DATA     BYTE      TRISB
      000000ECH   SFRSYM    DATA     BYTE      TRISC
      000000D8H   SFRSYM    DATA     BYTE      PD_PB
      00000091H   SFRSYM    DATA     BYTE      WDT_CTRL
      000000EDH   SFRSYM    DATA     BYTE      TRISD
      000000FBH   SFRSYM    DATA     BYTE      SPROG_DATA
      000000F2H   SFRSYM    DATA     BYTE      PERIPH_IO_SEL
      000000B1H   SFRSYM    DATA     BYTE      SCAN_WIDTH
      000000CFH   SFRSYM    DATA     BYTE      CSD_RAWDATAH
      000000A8H   SFRSYM    DATA     BYTE      IEN0
      000000E6H   SFRSYM    DATA     BYTE      IEN1
      000000E7H   SFRSYM    DATA     BYTE      IEN2
      000000CEH   SFRSYM    DATA     BYTE      CSD_RAWDATAL
      000000AEH   SFRSYM    DATA     BYTE      PWM0_MOD_H
      000000E9H   SFRSYM    DATA     BYTE      IICBUFFER
      000000ADH   SFRSYM    DATA     BYTE      PWM0_MOD_L
      000000C0H.1 SFRSYM    DATA     BIT       UART0_F
      000000E8H   SFRSYM    DATA     BYTE      IICSTAT
      000000C8H.1 SFRSYM    DATA     BIT       UART1_F
      000000B8H   SFRSYM    DATA     BYTE      IPL0
      000000F6H   SFRSYM    DATA     BYTE      IPL1
      000000DDH   SFRSYM    DATA     BYTE      PU_PA
      000000AFH   SFRSYM    DATA     BYTE      SCAN_START
      000000F4H   SFRSYM    DATA     BYTE      IPL2
      000000DEH   SFRSYM    DATA     BYTE      PU_PB
      000000D7H   SFRSYM    DATA     BYTE      RST_STAT
      0000008EH   SFRSYM    DATA     BYTE      SOFT_RST
      000000DFH   SFRSYM    DATA     BYTE      PU_PC
      000000E2H   SFRSYM    DATA     BYTE      PU_PD
      000000D1H   SFRSYM    DATA     BYTE      PULL_I_SELA_L
      000000B6H   SFRSYM    DATA     BYTE      ADCCKC
      000000D0H.7 SFRSYM    DATA     BIT       CY
      00000086H   SFRSYM    DATA     BYTE      INT_POBO_STAT
      000000C0H.0 SFRSYM    DATA     BIT       UART0_P
      000000EEH   SFRSYM    DATA     BYTE      COM_IO_SEL
      000000C8H.0 SFRSYM    DATA     BIT       UART1_P
      000000E3H   SFRSYM    DATA     BYTE      IICADD
      000000BDH   SFRSYM    DATA     BYTE      UART0_BDL
      000000B4H   SFRSYM    DATA     BYTE      ADC_SPT
      000000C5H   SFRSYM    DATA     BYTE      UART1_BDL
      00000081H   SFRSYM    DATA     BYTE      SP
      000000D0H.2 SFRSYM    DATA     BIT       OV
      000000A3H   SFRSYM    DATA     BYTE      PWM0_CH_CTRL
      000000BBH   SFRSYM    DATA     BYTE      ADC_CFG1
      00000094H   SFRSYM    DATA     BYTE      TIMER2_SET_H
      000000C1H   SFRSYM    DATA     BYTE      UART0_BUF
      000000BCH   SFRSYM    DATA     BYTE      ADC_CFG2
      000000C9H   SFRSYM    DATA     BYTE      UART1_BUF
      000000F1H   SFRSYM    DATA     BYTE      IRCON1
      000000E1H   SFRSYM    DATA     BYTE      IRCON2
      00000095H   SFRSYM    DATA     BYTE      TIMER2_SET_L
      000000A5H   SFRSYM    DATA     BYTE      PWM0_CH0_CNT_H
      000000A7H   SFRSYM    DATA     BYTE      PWM0_CH1_CNT_H
      00000087H   SFRSYM    DATA     BYTE      PCON
      000000F9H   SFRSYM    DATA     BYTE      SPROG_ADDR_H
LX51 LINKER/LOCATER V4.66.97.0                                                        05/09/2023  16:57:25  PAGE 146


      000000B3H   SFRSYM    DATA     BYTE      LED_DRIVE
      000000AAH   SFRSYM    DATA     BYTE      PWM0_CH2_CNT_H
      000000EFH   SFRSYM    DATA     BYTE      ODRAIN_EN
      000000ACH   SFRSYM    DATA     BYTE      PWM0_CH3_CNT_H
      000000E4H   SFRSYM    DATA     BYTE      IICBUF
      000000A4H   SFRSYM    DATA     BYTE      PWM0_CH0_CNT_L
      000000A6H   SFRSYM    DATA     BYTE      PWM0_CH1_CNT_L
      00000089H   SFRSYM    DATA     BYTE      TMOD
      00000088H   SFRSYM    DATA     BYTE      TCON
      000000FAH   SFRSYM    DATA     BYTE      SPROG_ADDR_L
      000000A9H   SFRSYM    DATA     BYTE      PWM0_CH2_CNT_L
      000000E8H.0 SFRSYM    DATA     BIT       IIC_RECOV
      000000E5H   SFRSYM    DATA     BYTE      IICCON
      000000ABH   SFRSYM    DATA     BYTE      PWM0_CH3_CNT_L
      000000D9H   SFRSYM    DATA     BYTE      ADC_IO_SEL1
      000000DAH   SFRSYM    DATA     BYTE      ADC_IO_SEL2
      000000DBH   SFRSYM    DATA     BYTE      ADC_IO_SEL3
      000000E8H.4 SFRSYM    DATA     BIT       IIC_AD
      000000DCH   SFRSYM    DATA     BYTE      ADC_IO_SEL4
      000000E8H.3 SFRSYM    DATA     BIT       IIC_BF
      00000088H.1 SFRSYM    DATA     BIT       IE0
      00000088H.3 SFRSYM    DATA     BIT       IE1
      000000C4H   SFRSYM    DATA     BYTE      LED_IO_START
      000000F8H.0 SFRSYM    DATA     BIT       PA0
      000000F0H   SFRSYM    DATA     BYTE      B
      00000080H.0 SFRSYM    DATA     BIT       PB0
      000000F8H.1 SFRSYM    DATA     BIT       PA1
      000000FCH   SFRSYM    DATA     BYTE      SPROG_CMD
      00000090H.0 SFRSYM    DATA     BIT       PC0
      00000080H.1 SFRSYM    DATA     BIT       PB1
      00000098H.0 SFRSYM    DATA     BIT       PD0
      00000090H.1 SFRSYM    DATA     BIT       PC1
      00000080H.2 SFRSYM    DATA     BIT       PB2
      00000098H.1 SFRSYM    DATA     BIT       PD1
      00000090H.2 SFRSYM    DATA     BIT       PC2
      00000080H.3 SFRSYM    DATA     BIT       PB3
      000000FEH   SFRSYM    DATA     BYTE      PD_ANA
      000000E8H.7 SFRSYM    DATA     BIT       IIC_START
      00000098H.2 SFRSYM    DATA     BIT       PD2
      00000090H.3 SFRSYM    DATA     BIT       PC3
      00000080H.4 SFRSYM    DATA     BIT       PB4
      00000098H.3 SFRSYM    DATA     BIT       PD3
      00000090H.4 SFRSYM    DATA     BIT       PC4
      00000080H.5 SFRSYM    DATA     BIT       PB5
      000000E0H   SFRSYM    DATA     BYTE      ACC
      00000098H.4 SFRSYM    DATA     BIT       PD4
      00000090H.5 SFRSYM    DATA     BIT       PC5
      00000080H.6 SFRSYM    DATA     BIT       PB6
      000000A8H.1 SFRSYM    DATA     BIT       ET0
      00000098H.5 SFRSYM    DATA     BIT       PD5
      00000090H.6 SFRSYM    DATA     BIT       PC6
      00000080H.7 SFRSYM    DATA     BIT       PB7
      000000A8H.3 SFRSYM    DATA     BIT       ET1
      00000098H.6 SFRSYM    DATA     BIT       PD6
      00000090H.7 SFRSYM    DATA     BIT       PC7
      00000088H.5 SFRSYM    DATA     BIT       TF0
      000000C0H.3 SFRSYM    DATA     BIT       RI0
      00000098H.7 SFRSYM    DATA     BIT       PD7
      00000088H.7 SFRSYM    DATA     BIT       TF1
      000000CAH   SFRSYM    DATA     BYTE      CSD_START
      000000C8H.3 SFRSYM    DATA     BIT       RI1
      0000008CH   SFRSYM    DATA     BYTE      TH0
      000000C0H.4 SFRSYM    DATA     BIT       TI0
      000000A8H.0 SFRSYM    DATA     BIT       EX0
      000000C2H   SFRSYM    DATA     BYTE      UART_IO_CTRL
LX51 LINKER/LOCATER V4.66.97.0                                                        05/09/2023  16:57:25  PAGE 147


      0000008DH   SFRSYM    DATA     BYTE      TH1
      000000C8H.4 SFRSYM    DATA     BIT       TI1
      000000A8H.2 SFRSYM    DATA     BIT       EX1
      000000D0H.0 SFRSYM    DATA     BIT       P
      0000008AH   SFRSYM    DATA     BYTE      TL0
      000000C0H   SFRSYM    DATA     BYTE      UART0_STATE
      0000008BH   SFRSYM    DATA     BYTE      TL1
      000000C8H   SFRSYM    DATA     BYTE      UART1_STATE
      000000FFH   SFRSYM    DATA     BYTE      BOR_LVDT_VTH
      000000B8H.1 SFRSYM    DATA     BIT       PT0
      000000D0H.3 SFRSYM    DATA     BIT       RS0
      000000B8H.3 SFRSYM    DATA     BIT       PT1
      000000B0H   SFRSYM    DATA     BYTE      DP_CON
      000000D0H.4 SFRSYM    DATA     BIT       RS1
      00000088H.4 SFRSYM    DATA     BIT       TR0
      00000088H.6 SFRSYM    DATA     BIT       TR1
      000000D2H   SFRSYM    DATA     BYTE      SNS_ANA_CFG
      000000C0H.6 SFRSYM    DATA     BIT       UART0_R8
      000000B8H.0 SFRSYM    DATA     BIT       PX0
      000000FDH   SFRSYM    DATA     BYTE      SPROG_TIM
      000000C8H.6 SFRSYM    DATA     BIT       UART1_R8
      000000B8H.2 SFRSYM    DATA     BIT       PX1
      000000C0H.5 SFRSYM    DATA     BIT       UART0_T8
      00000097H   SFRSYM    DATA     BYTE      REG_DATA
      000000C8H.5 SFRSYM    DATA     BIT       UART1_T8
      00000096H   SFRSYM    DATA     BYTE      REG_ADDR
      000000F8H   SFRSYM    DATA     BYTE      DATAA
      00000083H   SFRSYM    DATA     BYTE      DPH
      00000080H   SFRSYM    DATA     BYTE      DATAB
      000000CBH   SFRSYM    DATA     BYTE      SNS_SCAN_CFG1
      00000090H   SFRSYM    DATA     BYTE      DATAC
      000000E8H.5 SFRSYM    DATA     BIT       IIC_RW
      000000CCH   SFRSYM    DATA     BYTE      SNS_SCAN_CFG2
      000000B9H   SFRSYM    DATA     BYTE      ADC_RDATAH
      00000098H   SFRSYM    DATA     BYTE      DATAD
      000000CDH   SFRSYM    DATA     BYTE      SNS_SCAN_CFG3
      000000BEH   SFRSYM    DATA     BYTE      UART0_CON1
      00000082H   SFRSYM    DATA     BYTE      DPL
      000000C6H   SFRSYM    DATA     BYTE      UART1_CON1
      000000BFH   SFRSYM    DATA     BYTE      UART0_CON2
      000000C7H   SFRSYM    DATA     BYTE      UART1_CON2
      000000BAH   SFRSYM    DATA     BYTE      ADC_RDATAL
      00000092H   SFRSYM    DATA     BYTE      WDT_EN
      000000D3H   SFRSYM    DATA     BYTE      SNS_IO_SEL1
      000000D4H   SFRSYM    DATA     BYTE      SNS_IO_SEL2
      000000D5H   SFRSYM    DATA     BYTE      SNS_IO_SEL3
      00000093H   SFRSYM    DATA     BYTE      TIMER2_CFG
      000000D6H   SFRSYM    DATA     BYTE      SNS_IO_SEL4
      000000A2H   SFRSYM    DATA     BYTE      PWM_EN
      000000B2H   SFRSYM    DATA     BYTE      LED2_WIDTH
      000000E8H.1 SFRSYM    DATA     BIT       IIC_WCOL
      00000084H   SFRSYM    DATA     BYTE      SYS_CLK_CFG
      000000C0H.2 SFRSYM    DATA     BIT       UART0_RO
      000000C8H.2 SFRSYM    DATA     BIT       UART1_RO
      000000D0H.5 SFRSYM    DATA     BIT       F0
      000000D0H.1 SFRSYM    DATA     BIT       F1
      0000009CH   SFRSYM    DATA     BYTE      PWM1_H_H
      000000A1H   SFRSYM    DATA     BYTE      PWM2_H_H
      000000D0H   SFRSYM    DATA     BYTE      PSW
      0000009BH   SFRSYM    DATA     BYTE      PWM1_H_L
      0000009AH   SFRSYM    DATA     BYTE      PWM1_L_H
      0000009FH   SFRSYM    DATA     BYTE      PWM2_H_L
      0000009EH   SFRSYM    DATA     BYTE      PWM2_L_H
      000000E8H.6 SFRSYM    DATA     BIT       IIC_STOP

LX51 LINKER/LOCATER V4.66.97.0                                                        05/09/2023  16:57:25  PAGE 148


      01002711H   BLOCK     CODE     ---       LVL=0
      01002711H   BLOCK     CODE     NEAR LAB  LVL=1
      00000007H   SYMBOL    DATA     BYTE      i
      0100357CH   SYMBOL    CONST    ---       add_cfg
      0100358EH   SYMBOL    CONST    ---       add_cfg_Bit
      00000004H   SYMBOL    DATA     WORD      rom_offset
      ---         BLOCKEND  ---      ---       LVL=1
      01002711H   LINE      CODE     ---       #317
      01002711H   LINE      CODE     ---       #318
      01002711H   LINE      CODE     ---       #319
      01002711H   LINE      CODE     ---       #322
      01002711H   LINE      CODE     ---       #323
      01002713H   LINE      CODE     ---       #324
      01002716H   LINE      CODE     ---       #325
      0100271AH   LINE      CODE     ---       #326
      0100271DH   LINE      CODE     ---       #327
      01002721H   LINE      CODE     ---       #328
      0100272DH   LINE      CODE     ---       #329
      0100272DH   LINE      CODE     ---       #330
      01002731H   LINE      CODE     ---       #332
      0100275CH   LINE      CODE     ---       #333
      0100275CH   LINE      CODE     ---       #334
      0100275FH   LINE      CODE     ---       #335
      0100275FH   LINE      CODE     ---       #336
      01002762H   LINE      CODE     ---       #338
      01002784H   LINE      CODE     ---       #339
      01002784H   LINE      CODE     ---       #340
      01002796H   LINE      CODE     ---       #341
      01002796H   LINE      CODE     ---       #343
      01002799H   LINE      CODE     ---       #344
      0100279BH   LINE      CODE     ---       #346
      ---         BLOCKEND  ---      ---       LVL=0

      010032C3H   BLOCK     CODE     ---       LVL=0
      010032C3H   LINE      CODE     ---       #372
      010032C3H   LINE      CODE     ---       #373
      010032C3H   LINE      CODE     ---       #374
      010032C5H   LINE      CODE     ---       #375
      010032CBH   LINE      CODE     ---       #376
      010032D4H   LINE      CODE     ---       #378
      010032D7H   LINE      CODE     ---       #379
      010032D9H   LINE      CODE     ---       #380
      ---         BLOCKEND  ---      ---       LVL=0

      01000013H   BLOCK     CODE     ---       LVL=0
      01000013H   LINE      CODE     ---       #389
      01000013H   LINE      CODE     ---       #390
      01000013H   LINE      CODE     ---       #391
      01000016H   LINE      CODE     ---       #392
      ---         BLOCKEND  ---      ---       LVL=0

      010032DAH   BLOCK     CODE     ---       LVL=0
      010032DAH   LINE      CODE     ---       #451
      010032DAH   LINE      CODE     ---       #452
      010032DAH   LINE      CODE     ---       #454
      010032DCH   LINE      CODE     ---       #455
      010032DFH   LINE      CODE     ---       #456
      010032E5H   LINE      CODE     ---       #457
      010032E8H   LINE      CODE     ---       #458
      010032EBH   LINE      CODE     ---       #459
      010032EEH   LINE      CODE     ---       #460
      010032F0H   LINE      CODE     ---       #461
      ---         BLOCKEND  ---      ---       LVL=0

      0100001AH   BLOCK     CODE     ---       LVL=0
LX51 LINKER/LOCATER V4.66.97.0                                                        05/09/2023  16:57:25  PAGE 149


      0100001AH   LINE      CODE     ---       #470
      0100001AH   LINE      CODE     ---       #471
      0100001AH   LINE      CODE     ---       #473
      ---         BLOCKEND  ---      ---       LVL=0

      01003074H   BLOCK     CODE     ---       LVL=0
      01003074H   LINE      CODE     ---       #481
      01003074H   LINE      CODE     ---       #482
      01003074H   LINE      CODE     ---       #484
      01003077H   LINE      CODE     ---       #485
      01003079H   LINE      CODE     ---       #486
      0100307BH   LINE      CODE     ---       #487
      0100307DH   LINE      CODE     ---       #490
      01003080H   LINE      CODE     ---       #491
      01003082H   LINE      CODE     ---       #492
      01003084H   LINE      CODE     ---       #493
      01003086H   LINE      CODE     ---       #496
      01003089H   LINE      CODE     ---       #497
      0100308BH   LINE      CODE     ---       #498
      0100308DH   LINE      CODE     ---       #500
      0100308FH   LINE      CODE     ---       #501
      01003091H   LINE      CODE     ---       #502
      01003093H   LINE      CODE     ---       #504
      01003095H   LINE      CODE     ---       #505
      01003098H   LINE      CODE     ---       #506
      0100309AH   LINE      CODE     ---       #508
      0100309CH   LINE      CODE     ---       #509
      0100309EH   LINE      CODE     ---       #510
      010030A0H   LINE      CODE     ---       #512
      ---         BLOCKEND  ---      ---       LVL=0

      010032F1H   BLOCK     CODE     ---       LVL=0
      010032F1H   LINE      CODE     ---       #521
      010032F1H   LINE      CODE     ---       #522
      010032F1H   LINE      CODE     ---       #531
      010032F8H   LINE      CODE     ---       #539
      010032FFH   LINE      CODE     ---       #636
      01003302H   LINE      CODE     ---       #650
      01003305H   LINE      CODE     ---       #666
      ---         BLOCKEND  ---      ---       LVL=0

      0100331EH   BLOCK     CODE     ---       LVL=0
      0100331EH   LINE      CODE     ---       #677
      0100331EH   LINE      CODE     ---       #678
      0100331EH   LINE      CODE     ---       #680
      01003321H   LINE      CODE     ---       #683
      01003324H   LINE      CODE     ---       #686
      01003327H   LINE      CODE     ---       #690
      0100332AH   LINE      CODE     ---       #693
      0100332DH   LINE      CODE     ---       #696
      01003330H   LINE      CODE     ---       #699
      ---         BLOCKEND  ---      ---       LVL=0

      ---         MODULE    ---      ---       ?C?FCAST
      01000946H   PUBLIC    CODE     ---       ?C?FCASTC
      01000941H   PUBLIC    CODE     ---       ?C?FCASTI
      0100093CH   PUBLIC    CODE     ---       ?C?FCASTL

      ---         MODULE    ---      ---       ?C?CASTF
      0100097AH   PUBLIC    CODE     ---       ?C?CASTF

      ---         MODULE    ---      ---       ?C_INIT
      010026CCH   PUBLIC    CODE     ---       ?C_START

      ---         MODULE    ---      ---       ?C?IMUL
LX51 LINKER/LOCATER V4.66.97.0                                                        05/09/2023  16:57:25  PAGE 150


      010009B1H   PUBLIC    CODE     ---       ?C?IMUL

      ---         MODULE    ---      ---       ?C?UIDIV
      010009C3H   PUBLIC    CODE     ---       ?C?UIDIV

      ---         MODULE    ---      ---       ?C?SIDIV
      01000A18H   PUBLIC    CODE     ---       ?C?SIDIV

      ---         MODULE    ---      ---       ?C?IILDX
      01000A4EH   PUBLIC    CODE     ---       ?C?IILDX

      ---         MODULE    ---      ---       ?C?LMUL
      01000A64H   PUBLIC    CODE     ---       ?C?LMUL

      ---         MODULE    ---      ---       ?C?ULDIV
      01000AEFH   PUBLIC    CODE     ---       ?C?ULDIV

      ---         MODULE    ---      ---       ?C?SLDIV
      0100001EH   PUBLIC    CODE     ---       ?C?SLDIV

      ---         MODULE    ---      ---       ?C?LNOT
      01000B81H   PUBLIC    CODE     ---       ?C?LNOT

      ---         MODULE    ---      ---       ?C?LNEG
      01000B8EH   PUBLIC    CODE     ---       ?C?LNEG

      ---         MODULE    ---      ---       ?C?SLCMP
      01000B9CH   PUBLIC    CODE     ---       ?C?SLCMP

      ---         MODULE    ---      ---       ?C?ULCMP
      01000BB2H   PUBLIC    CODE     ---       ?C?ULCMP

      ---         MODULE    ---      ---       ?C?ULSHR
      01000BC3H   PUBLIC    CODE     ---       ?C?ULSHR

      ---         MODULE    ---      ---       ?C?SLSHR
      01000BD6H   PUBLIC    CODE     ---       ?C?SLSHR

      ---         MODULE    ---      ---       ?C?LSHL
      01000BEAH   PUBLIC    CODE     ---       ?C?LSHL

      ---         MODULE    ---      ---       ?C?LSTXDATA
      01000BFDH   PUBLIC    CODE     ---       ?C?LSTXDATA

      ---         MODULE    ---      ---       ?C?LSTKXDATA
      01000C09H   PUBLIC    CODE     ---       ?C?LSTKXDATA

      ---         MODULE    ---      ---       ?C?LIMUL
      01000C3AH   PUBLIC    CODE     ---       ?C?LIMUL

Program Size: data=78.5 xdata=296 const=522 code=13202
LX51 RUN COMPLETE.  0 WARNING(S),  0 ERROR(S)
